Microsoft (R) COFF/PE Dumper Version 14.28.29913.0
Copyright (C) Microsoft Corporation.  All rights reserved.


Dump of file .\EasyHook32.dll

File Type: DLL

  10001000: 6A 00              push        0
  10001002: 6A 00              push        0
  10001004: FF 73 10           push        dword ptr [ebx+10h]
  10001007: FF 73 08           push        dword ptr [ebx+8]
  1000100A: 6A 00              push        0
  1000100C: 6A 00              push        0
  1000100E: FF 13              call        dword ptr [ebx]
  10001010: FF 73 30           push        dword ptr [ebx+30h]
  10001013: 89 43 30           mov         dword ptr [ebx+30h],eax
  10001016: FF 53 38           call        dword ptr [ebx+38h]
  10001019: 6A FF              push        0FFFFFFFFh
  1000101B: FF 73 20           push        dword ptr [ebx+20h]
  1000101E: FF 53 18           call        dword ptr [ebx+18h]
  10001021: FF 73 20           push        dword ptr [ebx+20h]
  10001024: FF 53 28           call        dword ptr [ebx+28h]
  10001027: FF 73 30           push        dword ptr [ebx+30h]
  1000102A: FF 53 28           call        dword ptr [ebx+28h]
  1000102D: 8B 43 40           mov         eax,dword ptr [ebx+40h]
  10001030: 8B 4B 48           mov         ecx,dword ptr [ebx+48h]
  10001033: 8B 53 50           mov         edx,dword ptr [ebx+50h]
  10001036: 8B 6B 58           mov         ebp,dword ptr [ebx+58h]
  10001039: 8B 63 60           mov         esp,dword ptr [ebx+60h]
  1000103C: 8B 73 68           mov         esi,dword ptr [ebx+68h]
  1000103F: 8B 7B 70           mov         edi,dword ptr [ebx+70h]
  10001042: FF B3 88 00 00 00  push        dword ptr [ebx+00000088h]
  10001048: FF B3 80 00 00 00  push        dword ptr [ebx+00000080h]
  1000104E: 8B 5B 78           mov         ebx,dword ptr [ebx+78h]
  10001051: 83 C4 04           add         esp,4
  10001054: 9D                 popfd
  10001055: FF 64 24 F8        jmp         dword ptr [esp-8]
  10001059: 78 56              js          100010B1
  1000105B: 34 12              xor         al,12h
  1000105D: 8B C4              mov         eax,esp
  1000105F: 51                 push        ecx
  10001060: 52                 push        edx
  10001061: 8B C8              mov         ecx,eax
  10001063: B8 02 3C 2B 1A     mov         eax,1A2B3C02h
  10001068: F0 FF 00           lock inc    dword ptr [eax]
  1000106B: B8 07 3C 2B 1A     mov         eax,1A2B3C07h
  10001070: 83 38 00           cmp         dword ptr [eax],0
  10001073: 3E 75 0F           ht jne      10001085
  10001076: B8 02 3C 2B 1A     mov         eax,1A2B3C02h
  1000107B: F0 FF 08           lock dec    dword ptr [eax]
  1000107E: B8 01 3C 2B 1A     mov         eax,1A2B3C01h
  10001083: EB 54              jmp         100010D9
  10001085: 51                 push        ecx
  10001086: FF 74 24 0C        push        dword ptr [esp+0Ch]
  1000108A: 68 05 3C 2B 1A     push        1A2B3C05h
  1000108F: B8 03 3C 2B 1A     mov         eax,1A2B3C03h
  10001094: FF D0              call        eax
  10001096: 85 C0              test        eax,eax
  10001098: 3E 75 0F           ht jne      100010AA
  1000109B: B8 02 3C 2B 1A     mov         eax,1A2B3C02h
  100010A0: F0 FF 08           lock dec    dword ptr [eax]
  100010A3: B8 01 3C 2B 1A     mov         eax,1A2B3C01h
  100010A8: EB 2F              jmp         100010D9
  100010AA: C7 44 24 08 04 3C  mov         dword ptr [esp+8],1A2B3C04h
            2B 1A
  100010B2: B8 00 3C 2B 1A     mov         eax,1A2B3C00h
  100010B7: EB 20              jmp         100010D9
  100010B9: 6A 00              push        0
  100010BB: 50                 push        eax
  100010BC: 52                 push        edx
  100010BD: 8D 44 24 08        lea         eax,[esp+8]
  100010C1: 50                 push        eax
  100010C2: 68 05 3C 2B 1A     push        1A2B3C05h
  100010C7: B8 06 3C 2B 1A     mov         eax,1A2B3C06h
  100010CC: FF D0              call        eax
  100010CE: B8 02 3C 2B 1A     mov         eax,1A2B3C02h
  100010D3: F0 FF 08           lock dec    dword ptr [eax]
  100010D6: 5A                 pop         edx
  100010D7: 58                 pop         eax
  100010D8: C3                 ret
  100010D9: 5A                 pop         edx
  100010DA: 59                 pop         ecx
  100010DB: FF E0              jmp         eax
  100010DD: 78 56              js          10001135
  100010DF: 34 12              xor         al,12h
  100010E1: 8B 74 24 04        mov         esi,dword ptr [esp+4]
  100010E5: FF 76 08           push        dword ptr [esi+8]
  100010E8: FF 56 28           call        dword ptr [esi+28h]
  100010EB: 8B E8              mov         ebp,eax
  100010ED: 85 C0              test        eax,eax
  100010EF: 74 19              je          1000110A
  100010F1: FF 76 18           push        dword ptr [esi+18h]
  100010F4: 55                 push        ebp
  100010F5: FF 56 38           call        dword ptr [esi+38h]
  100010F8: 85 C0              test        eax,eax
  100010FA: 74 18              je          10001114
  100010FC: 56                 push        esi
  100010FD: FF D0              call        eax
  100010FF: 50                 push        eax
  10001100: 55                 push        ebp
  10001101: FF 56 30           call        dword ptr [esi+30h]
  10001104: 85 C0              test        eax,eax
  10001106: 74 16              je          1000111E
  10001108: EB 1F              jmp         10001129
  1000110A: FF 56 58           call        dword ptr [esi+58h]
  1000110D: 0D 00 00 00 40     or          eax,40000000h
  10001112: EB 14              jmp         10001128
  10001114: FF 56 58           call        dword ptr [esi+58h]
  10001117: 0D 00 00 00 10     or          eax,10000000h
  1000111C: EB 0A              jmp         10001128
  1000111E: FF 56 58           call        dword ptr [esi+58h]
  10001121: 0D 00 00 00 30     or          eax,30000000h
  10001126: EB 00              jmp         10001128
  10001128: 50                 push        eax
  10001129: 6A 00              push        0
  1000112B: 6A 00              push        0
  1000112D: 6A 00              push        0
  1000112F: 8D 5C 24 08        lea         ebx,[esp+8]
  10001133: 53                 push        ebx
  10001134: 6A 40              push        40h
  10001136: 6A 0C              push        0Ch
  10001138: 53                 push        ebx
  10001139: FF 56 48           call        dword ptr [esi+48h]
  1000113C: 85 C0              test        eax,eax
  1000113E: 75 0C              jne         1000114C
  10001140: FF 56 58           call        dword ptr [esi+58h]
  10001143: 0D 00 00 00 20     or          eax,20000000h
  10001148: 83 C4 10           add         esp,10h
  1000114B: C3                 ret
  1000114C: C7 04 24 FF D3 8B  mov         dword ptr [esp],448BD3FFh
            44
  10001153: C7 44 24 04 24 0C  mov         dword ptr [esp+4],5C8B0C24h
            8B 5C
  1000115B: C7 44 24 08 24 10  mov         dword ptr [esp+8],0E3FF1024h
            FF E3
  10001163: 8B 5E 40           mov         ebx,dword ptr [esi+40h]
  10001166: 68 00 80 00 00     push        8000h
  1000116B: 6A 00              push        0
  1000116D: FF 76 10           push        dword ptr [esi+10h]
  10001170: 8D 44 24 0C        lea         eax,[esp+0Ch]
  10001174: FF E0              jmp         eax
  10001176: 78 56              js          100011CE
  10001178: 34 12              xor         al,12h
  1000117A: CC                 int         3
  1000117B: CC                 int         3
  1000117C: 55                 push        ebp
  1000117D: 83 EC 27           sub         esp,27h
  10001180: 8B EC              mov         ebp,esp
  10001182: 51                 push        ecx
  10001183: 52                 push        edx
  10001184: 56                 push        esi
  10001185: 57                 push        edi
  10001186: E8 A0 14 00 00     call        1000262B
  1000118B: E9 A1 15 00 00     jmp         10002731
  10001190: E9 9C 15 00 00     jmp         10002731
  10001195: E9 97 15 00 00     jmp         10002731
  1000119A: E9 92 15 00 00     jmp         10002731
  1000119F: E9 A1 15 00 00     jmp         10002745
  100011A4: E9 D8 15 00 00     jmp         10002781
  100011A9: E9 C3 15 00 00     jmp         10002771
  100011AE: E9 BE 15 00 00     jmp         10002771
  100011B3: E9 79 15 00 00     jmp         10002731
  100011B8: E9 74 15 00 00     jmp         10002731
  100011BD: E9 6F 15 00 00     jmp         10002731
  100011C2: E9 6A 15 00 00     jmp         10002731
  100011C7: E9 79 15 00 00     jmp         10002745
  100011CC: E9 B0 15 00 00     jmp         10002781
  100011D1: E9 9B 15 00 00     jmp         10002771
  100011D6: E9 70 1E 00 00     jmp         1000304B
  100011DB: E9 51 15 00 00     jmp         10002731
  100011E0: E9 4C 15 00 00     jmp         10002731
  100011E5: E9 47 15 00 00     jmp         10002731
  100011EA: E9 42 15 00 00     jmp         10002731
  100011EF: E9 51 15 00 00     jmp         10002745
  100011F4: E9 88 15 00 00     jmp         10002781
  100011F9: E9 73 15 00 00     jmp         10002771
  100011FE: E9 6E 15 00 00     jmp         10002771
  10001203: E9 29 15 00 00     jmp         10002731
  10001208: E9 24 15 00 00     jmp         10002731
  1000120D: E9 1F 15 00 00     jmp         10002731
  10001212: E9 1A 15 00 00     jmp         10002731
  10001217: E9 29 15 00 00     jmp         10002745
  1000121C: E9 60 15 00 00     jmp         10002781
  10001221: E9 4B 15 00 00     jmp         10002771
  10001226: E9 56 15 00 00     jmp         10002781
  1000122B: E9 01 15 00 00     jmp         10002731
  10001230: E9 FC 14 00 00     jmp         10002731
  10001235: E9 F7 14 00 00     jmp         10002731
  1000123A: E9 F2 14 00 00     jmp         10002731
  1000123F: E9 01 15 00 00     jmp         10002745
  10001244: E9 38 15 00 00     jmp         10002781
  10001249: E9 C7 15 00 00     jmp         10002815
  1000124E: E9 1E 15 00 00     jmp         10002771
  10001253: E9 D9 14 00 00     jmp         10002731
  10001258: E9 D4 14 00 00     jmp         10002731
  1000125D: E9 CF 14 00 00     jmp         10002731
  10001262: E9 CA 14 00 00     jmp         10002731
  10001267: E9 D9 14 00 00     jmp         10002745
  1000126C: E9 10 15 00 00     jmp         10002781
  10001271: E9 9F 15 00 00     jmp         10002815
  10001276: E9 F6 14 00 00     jmp         10002771
  1000127B: E9 B1 14 00 00     jmp         10002731
  10001280: E9 AC 14 00 00     jmp         10002731
  10001285: E9 A7 14 00 00     jmp         10002731
  1000128A: E9 A2 14 00 00     jmp         10002731
  1000128F: E9 B1 14 00 00     jmp         10002745
  10001294: E9 E8 14 00 00     jmp         10002781
  10001299: E9 77 15 00 00     jmp         10002815
  1000129E: E9 CE 14 00 00     jmp         10002771
  100012A3: E9 89 14 00 00     jmp         10002731
  100012A8: E9 84 14 00 00     jmp         10002731
  100012AD: E9 7F 14 00 00     jmp         10002731
  100012B2: E9 7A 14 00 00     jmp         10002731
  100012B7: E9 89 14 00 00     jmp         10002745
  100012BC: E9 C0 14 00 00     jmp         10002781
  100012C1: E9 4F 15 00 00     jmp         10002815
  100012C6: E9 A6 14 00 00     jmp         10002771
  100012CB: E9 14 15 00 00     jmp         100027E4
  100012D0: E9 0F 15 00 00     jmp         100027E4
  100012D5: E9 0A 15 00 00     jmp         100027E4
  100012DA: E9 05 15 00 00     jmp         100027E4
  100012DF: E9 00 15 00 00     jmp         100027E4
  100012E4: E9 FB 14 00 00     jmp         100027E4
  100012E9: E9 F6 14 00 00     jmp         100027E4
  100012EE: E9 F1 14 00 00     jmp         100027E4
  100012F3: E9 BD 14 00 00     jmp         100027B5
  100012F8: E9 B8 14 00 00     jmp         100027B5
  100012FD: E9 B3 14 00 00     jmp         100027B5
  10001302: E9 AE 14 00 00     jmp         100027B5
  10001307: E9 A9 14 00 00     jmp         100027B5
  1000130C: E9 A4 14 00 00     jmp         100027B5
  10001311: E9 9F 14 00 00     jmp         100027B5
  10001316: E9 9A 14 00 00     jmp         100027B5
  1000131B: E9 21 14 00 00     jmp         10002741
  10001320: E9 1C 14 00 00     jmp         10002741
  10001325: E9 17 14 00 00     jmp         10002741
  1000132A: E9 12 14 00 00     jmp         10002741
  1000132F: E9 0D 14 00 00     jmp         10002741
  10001334: E9 08 14 00 00     jmp         10002741
  10001339: E9 03 14 00 00     jmp         10002741
  1000133E: E9 FE 13 00 00     jmp         10002741
  10001343: E9 F9 13 00 00     jmp         10002741
  10001348: E9 F4 13 00 00     jmp         10002741
  1000134D: E9 EF 13 00 00     jmp         10002741
  10001352: E9 EA 13 00 00     jmp         10002741
  10001357: E9 E5 13 00 00     jmp         10002741
  1000135C: E9 E0 13 00 00     jmp         10002741
  10001361: E9 DB 13 00 00     jmp         10002741
  10001366: E9 D6 13 00 00     jmp         10002741
  1000136B: E9 D1 13 00 00     jmp         10002741
  10001370: E9 CC 13 00 00     jmp         10002741
  10001375: E9 F6 14 00 00     jmp         10002870
  1000137A: E9 B2 13 00 00     jmp         10002731
  1000137F: E9 91 14 00 00     jmp         10002815
  10001384: E9 8C 14 00 00     jmp         10002815
  10001389: E9 93 1B 00 00     jmp         10002F21
  1000138E: E9 C2 1B 00 00     jmp         10002F55
  10001393: E9 E3 15 00 00     jmp         1000297B
  10001398: E9 85 15 00 00     jmp         10002922
  1000139D: E9 A3 13 00 00     jmp         10002745
  100013A2: E9 05 14 00 00     jmp         100027AC
  100013A7: E9 95 13 00 00     jmp         10002741
  100013AC: E9 90 13 00 00     jmp         10002741
  100013B1: E9 8B 13 00 00     jmp         10002741
  100013B6: E9 86 13 00 00     jmp         10002741
  100013BB: E9 85 13 00 00     jmp         10002745
  100013C0: E9 80 13 00 00     jmp         10002745
  100013C5: E9 7B 13 00 00     jmp         10002745
  100013CA: E9 76 13 00 00     jmp         10002745
  100013CF: E9 71 13 00 00     jmp         10002745
  100013D4: E9 6C 13 00 00     jmp         10002745
  100013D9: E9 67 13 00 00     jmp         10002745
  100013DE: E9 62 13 00 00     jmp         10002745
  100013E3: E9 5D 13 00 00     jmp         10002745
  100013E8: E9 58 13 00 00     jmp         10002745
  100013ED: E9 53 13 00 00     jmp         10002745
  100013F2: E9 4E 13 00 00     jmp         10002745
  100013F7: E9 49 13 00 00     jmp         10002745
  100013FC: E9 44 13 00 00     jmp         10002745
  10001401: E9 3F 13 00 00     jmp         10002745
  10001406: E9 3A 13 00 00     jmp         10002745
  1000140B: E9 9C 13 00 00     jmp         100027AC
  10001410: E9 AF 15 00 00     jmp         100029C4
  10001415: E9 94 15 00 00     jmp         100029AE
  1000141A: E9 8D 13 00 00     jmp         100027AC
  1000141F: E9 0D 13 00 00     jmp         10002731
  10001424: E9 08 13 00 00     jmp         10002731
  10001429: E9 03 13 00 00     jmp         10002731
  1000142E: E9 FE 12 00 00     jmp         10002731
  10001433: E9 F9 12 00 00     jmp         10002731
  10001438: E9 F4 12 00 00     jmp         10002731
  1000143D: E9 EF 12 00 00     jmp         10002731
  10001442: E9 EA 12 00 00     jmp         10002731
  10001447: E9 E5 12 00 00     jmp         10002731
  1000144C: E9 E0 12 00 00     jmp         10002731
  10001451: E9 DB 12 00 00     jmp         10002731
  10001456: E9 09 15 00 00     jmp         10002964
  1000145B: E9 E1 12 00 00     jmp         10002741
  10001460: E9 DC 12 00 00     jmp         10002741
  10001465: E9 D7 12 00 00     jmp         10002741
  1000146A: E9 D2 12 00 00     jmp         10002741
  1000146F: E9 CD 12 00 00     jmp         10002741
  10001474: E9 C8 12 00 00     jmp         10002741
  10001479: E9 C3 12 00 00     jmp         10002741
  1000147E: E9 BE 12 00 00     jmp         10002741
  10001483: E9 B9 12 00 00     jmp         10002741
  10001488: E9 B4 12 00 00     jmp         10002741
  1000148D: E9 73 14 00 00     jmp         10002905
  10001492: E9 AA 12 00 00     jmp         10002741
  10001497: E9 A5 12 00 00     jmp         10002741
  1000149C: E9 A0 12 00 00     jmp         10002741
  100014A1: E9 9B 12 00 00     jmp         10002741
  100014A6: E9 96 12 00 00     jmp         10002741
  100014AB: E9 EE 13 00 00     jmp         1000289E
  100014B0: E9 F9 13 00 00     jmp         100028AE
  100014B5: E9 E4 13 00 00     jmp         1000289E
  100014BA: E9 EF 13 00 00     jmp         100028AE
  100014BF: E9 7D 12 00 00     jmp         10002741
  100014C4: E9 78 12 00 00     jmp         10002741
  100014C9: E9 73 12 00 00     jmp         10002741
  100014CE: E9 6E 12 00 00     jmp         10002741
  100014D3: E9 6D 12 00 00     jmp         10002745
  100014D8: E9 A4 12 00 00     jmp         10002781
  100014DD: E9 5F 12 00 00     jmp         10002741
  100014E2: E9 5A 12 00 00     jmp         10002741
  100014E7: E9 55 12 00 00     jmp         10002741
  100014EC: E9 50 12 00 00     jmp         10002741
  100014F1: E9 4B 12 00 00     jmp         10002741
  100014F6: E9 46 12 00 00     jmp         10002741
  100014FB: E9 45 12 00 00     jmp         10002745
  10001500: E9 40 12 00 00     jmp         10002745
  10001505: E9 3B 12 00 00     jmp         10002745
  1000150A: E9 36 12 00 00     jmp         10002745
  1000150F: E9 31 12 00 00     jmp         10002745
  10001514: E9 2C 12 00 00     jmp         10002745
  10001519: E9 27 12 00 00     jmp         10002745
  1000151E: E9 22 12 00 00     jmp         10002745
  10001523: E9 69 12 00 00     jmp         10002791
  10001528: E9 64 12 00 00     jmp         10002791
  1000152D: E9 5F 12 00 00     jmp         10002791
  10001532: E9 5A 12 00 00     jmp         10002791
  10001537: E9 55 12 00 00     jmp         10002791
  1000153C: E9 50 12 00 00     jmp         10002791
  10001541: E9 4B 12 00 00     jmp         10002791
  10001546: E9 46 12 00 00     jmp         10002791
  1000154B: E9 5C 12 00 00     jmp         100027AC
  10001550: E9 57 12 00 00     jmp         100027AC
  10001555: E9 3F 13 00 00     jmp         10002899
  1000155A: E9 E2 11 00 00     jmp         10002741
  1000155F: E9 0C 13 00 00     jmp         10002870
  10001564: E9 07 13 00 00     jmp         10002870
  10001569: E9 3E 12 00 00     jmp         100027AC
  1000156E: E9 C8 12 00 00     jmp         1000283B
  10001573: E9 EE 12 00 00     jmp         10002866
  10001578: E9 C4 11 00 00     jmp         10002741
  1000157D: E9 17 13 00 00     jmp         10002899
  10001582: E9 BA 11 00 00     jmp         10002741
  10001587: E9 B5 11 00 00     jmp         10002741
  1000158C: E9 B4 11 00 00     jmp         10002745
  10001591: E9 DB 11 00 00     jmp         10002771
  10001596: E9 A6 11 00 00     jmp         10002741
  1000159B: E9 91 11 00 00     jmp         10002731
  100015A0: E9 8C 11 00 00     jmp         10002731
  100015A5: E9 87 11 00 00     jmp         10002731
  100015AA: E9 82 11 00 00     jmp         10002731
  100015AF: E9 A1 12 00 00     jmp         10002855
  100015B4: E9 9C 12 00 00     jmp         10002855
  100015B9: E9 83 11 00 00     jmp         10002741
  100015BE: E9 7E 11 00 00     jmp         10002741
  100015C3: E9 04 1B 00 00     jmp         100030CC
  100015C8: E9 35 1B 00 00     jmp         10003102
  100015CD: E9 C9 1B 00 00     jmp         1000319B
  100015D2: E9 26 1C 00 00     jmp         100031FD
  100015D7: E9 A0 1C 00 00     jmp         1000327C
  100015DC: E9 ED 1C 00 00     jmp         100032CE
  100015E1: E9 52 1D 00 00     jmp         10003338
  100015E6: E9 A4 1D 00 00     jmp         1000338F
  100015EB: E9 55 11 00 00     jmp         10002745
  100015F0: E9 50 11 00 00     jmp         10002745
  100015F5: E9 4B 11 00 00     jmp         10002745
  100015FA: E9 46 11 00 00     jmp         10002745
  100015FF: E9 41 11 00 00     jmp         10002745
  10001604: E9 3C 11 00 00     jmp         10002745
  10001609: E9 37 11 00 00     jmp         10002745
  1000160E: E9 32 11 00 00     jmp         10002745
  10001613: E9 69 11 00 00     jmp         10002781
  10001618: E9 64 11 00 00     jmp         10002781
  1000161D: E9 26 13 00 00     jmp         10002948
  10001622: E9 1E 11 00 00     jmp         10002745
  10001627: E9 15 11 00 00     jmp         10002741
  1000162C: E9 10 11 00 00     jmp         10002741
  10001631: E9 0B 11 00 00     jmp         10002741
  10001636: E9 06 11 00 00     jmp         10002741
  1000163B: E9 D5 11 00 00     jmp         10002815
  10001640: E9 FC 10 00 00     jmp         10002741
  10001645: E9 41 19 00 00     jmp         10002F8B
  1000164A: E9 86 19 00 00     jmp         10002FD5
  1000164F: E9 ED 10 00 00     jmp         10002741
  10001654: E9 E8 10 00 00     jmp         10002741
  10001659: E9 80 13 00 00     jmp         100029DE
  1000165E: E9 AD 13 00 00     jmp         10002A10
  10001663: E9 D9 10 00 00     jmp         10002741
  10001668: E9 D4 10 00 00     jmp         10002741
  1000166D: E9 CF 10 00 00     jmp         10002741
  10001672: E9 CA 10 00 00     jmp         10002741
  10001677: E9 C5 10 00 00     jmp         10002741
  1000167C: E9 C0 10 00 00     jmp         10002741
  10001681: E9 F4 13 00 00     jmp         10002A7A
  10001686: E9 10 14 00 00     jmp         10002A9B
  1000168B: E9 2C 14 00 00     jmp         10002ABC
  10001690: E9 48 14 00 00     jmp         10002ADD
  10001695: E9 97 10 00 00     jmp         10002731
  1000169A: E9 92 10 00 00     jmp         10002731
  1000169F: E9 04 13 00 00     jmp         100029A8
  100016A4: E9 98 10 00 00     jmp         10002741
  100016A9: E9 93 10 00 00     jmp         10002741
  100016AE: E9 8E 10 00 00     jmp         10002741
  100016B3: E9 89 10 00 00     jmp         10002741
  100016B8: E9 84 10 00 00     jmp         10002741
  100016BD: E9 E6 12 00 00     jmp         100029A8
  100016C2: E9 7A 10 00 00     jmp         10002741
  100016C7: E9 DC 12 00 00     jmp         100029A8
  100016CC: E9 60 10 00 00     jmp         10002731
  100016D1: E9 6B 10 00 00     jmp         10002741
  100016D6: E9 CD 12 00 00     jmp         100029A8
  100016DB: E9 51 10 00 00     jmp         10002731
  100016E0: E9 4C 10 00 00     jmp         10002731
  100016E5: E9 47 10 00 00     jmp         10002731
  100016EA: E9 42 10 00 00     jmp         10002731
  100016EF: E9 3D 10 00 00     jmp         10002731
  100016F4: E9 38 10 00 00     jmp         10002731
  100016F9: E9 33 10 00 00     jmp         10002731
  100016FE: E9 2E 10 00 00     jmp         10002731
  10001703: E9 A7 17 00 00     jmp         10002EAF
  10001708: E9 24 10 00 00     jmp         10002731
  1000170D: E9 1F 10 00 00     jmp         10002731
  10001712: E9 1A 10 00 00     jmp         10002731
  10001717: E9 15 10 00 00     jmp         10002731
  1000171C: E9 10 10 00 00     jmp         10002731
  10001721: E9 0B 10 00 00     jmp         10002731
  10001726: E9 06 10 00 00     jmp         10002731
  1000172B: E9 52 11 00 00     jmp         10002882
  10001730: E9 4D 11 00 00     jmp         10002882
  10001735: E9 48 11 00 00     jmp         10002882
  1000173A: E9 43 11 00 00     jmp         10002882
  1000173F: E9 64 12 00 00     jmp         100029A8
  10001744: E9 5F 12 00 00     jmp         100029A8
  10001749: E9 5A 12 00 00     jmp         100029A8
  1000174E: E9 55 12 00 00     jmp         100029A8
  10001753: E9 D9 0F 00 00     jmp         10002731
  10001758: E9 D4 0F 00 00     jmp         10002731
  1000175D: E9 CF 0F 00 00     jmp         10002731
  10001762: E9 CA 0F 00 00     jmp         10002731
  10001767: E9 C5 0F 00 00     jmp         10002731
  1000176C: E9 C0 0F 00 00     jmp         10002731
  10001771: E9 BB 0F 00 00     jmp         10002731
  10001776: E9 B6 0F 00 00     jmp         10002731
  1000177B: E9 C1 0F 00 00     jmp         10002741
  10001780: E9 BC 0F 00 00     jmp         10002741
  10001785: E9 B7 0F 00 00     jmp         10002741
  1000178A: E9 B2 0F 00 00     jmp         10002741
  1000178F: E9 AD 0F 00 00     jmp         10002741
  10001794: E9 A8 0F 00 00     jmp         10002741
  10001799: E9 0A 12 00 00     jmp         100029A8
  1000179E: E9 05 12 00 00     jmp         100029A8
  100017A3: E9 CE 18 00 00     jmp         10003076
  100017A8: E9 FB 11 00 00     jmp         100029A8
  100017AD: E9 EF 18 00 00     jmp         100030A1
  100017B2: E9 F1 11 00 00     jmp         100029A8
  100017B7: E9 EC 11 00 00     jmp         100029A8
  100017BC: E9 E7 11 00 00     jmp         100029A8
  100017C1: E9 E2 11 00 00     jmp         100029A8
  100017C6: E9 DD 11 00 00     jmp         100029A8
  100017CB: E9 61 0F 00 00     jmp         10002731
  100017D0: E9 5C 0F 00 00     jmp         10002731
  100017D5: E9 57 0F 00 00     jmp         10002731
  100017DA: E9 52 0F 00 00     jmp         10002731
  100017DF: E9 4D 0F 00 00     jmp         10002731
  100017E4: E9 48 0F 00 00     jmp         10002731
  100017E9: E9 43 0F 00 00     jmp         10002731
  100017EE: E9 3E 0F 00 00     jmp         10002731
  100017F3: E9 39 0F 00 00     jmp         10002731
  100017F8: E9 34 0F 00 00     jmp         10002731
  100017FD: E9 2F 0F 00 00     jmp         10002731
  10001802: E9 2A 0F 00 00     jmp         10002731
  10001807: E9 25 0F 00 00     jmp         10002731
  1000180C: E9 20 0F 00 00     jmp         10002731
  10001811: E9 1B 0F 00 00     jmp         10002731
  10001816: E9 16 0F 00 00     jmp         10002731
  1000181B: E9 11 0F 00 00     jmp         10002731
  10001820: E9 0C 0F 00 00     jmp         10002731
  10001825: E9 07 0F 00 00     jmp         10002731
  1000182A: E9 02 0F 00 00     jmp         10002731
  1000182F: E9 FD 0E 00 00     jmp         10002731
  10001834: E9 F8 0E 00 00     jmp         10002731
  10001839: E9 F3 0E 00 00     jmp         10002731
  1000183E: E9 EE 0E 00 00     jmp         10002731
  10001843: E9 E9 0E 00 00     jmp         10002731
  10001848: E9 E4 0E 00 00     jmp         10002731
  1000184D: E9 DF 0E 00 00     jmp         10002731
  10001852: E9 DA 0E 00 00     jmp         10002731
  10001857: E9 D5 0E 00 00     jmp         10002731
  1000185C: E9 D0 0E 00 00     jmp         10002731
  10001861: E9 CB 0E 00 00     jmp         10002731
  10001866: E9 C6 0E 00 00     jmp         10002731
  1000186B: E9 C1 0E 00 00     jmp         10002731
  10001870: E9 BC 0E 00 00     jmp         10002731
  10001875: E9 B7 0E 00 00     jmp         10002731
  1000187A: E9 B2 0E 00 00     jmp         10002731
  1000187F: E9 AD 0E 00 00     jmp         10002731
  10001884: E9 A8 0E 00 00     jmp         10002731
  10001889: E9 A3 0E 00 00     jmp         10002731
  1000188E: E9 9E 0E 00 00     jmp         10002731
  10001893: E9 99 0E 00 00     jmp         10002731
  10001898: E9 94 0E 00 00     jmp         10002731
  1000189D: E9 8F 0E 00 00     jmp         10002731
  100018A2: E9 8A 0E 00 00     jmp         10002731
  100018A7: E9 9E 0E 00 00     jmp         1000274A
  100018AC: E9 99 0E 00 00     jmp         1000274A
  100018B1: E9 7B 0E 00 00     jmp         10002731
  100018B6: E9 76 0E 00 00     jmp         10002731
  100018BB: E9 71 0E 00 00     jmp         10002731
  100018C0: E9 5F 13 00 00     jmp         10002C24
  100018C5: E9 E5 13 00 00     jmp         10002CAF
  100018CA: E9 6B 14 00 00     jmp         10002D3A
  100018CF: E9 5D 0E 00 00     jmp         10002731
  100018D4: E9 58 0E 00 00     jmp         10002731
  100018D9: E9 53 0E 00 00     jmp         10002731
  100018DE: E9 5E 0E 00 00     jmp         10002741
  100018E3: E9 49 0E 00 00     jmp         10002731
  100018E8: E9 44 0E 00 00     jmp         10002731
  100018ED: E9 B6 10 00 00     jmp         100029A8
  100018F2: E9 B1 10 00 00     jmp         100029A8
  100018F7: E9 35 0E 00 00     jmp         10002731
  100018FC: E9 30 0E 00 00     jmp         10002731
  10001901: E9 2B 0E 00 00     jmp         10002731
  10001906: E9 26 0E 00 00     jmp         10002731
  1000190B: E9 71 0E 00 00     jmp         10002781
  10001910: E9 6C 0E 00 00     jmp         10002781
  10001915: E9 51 0F 00 00     jmp         1000286B
  1000191A: E9 4C 0F 00 00     jmp         1000286B
  1000191F: E9 47 0F 00 00     jmp         1000286B
  10001924: E9 42 0F 00 00     jmp         1000286B
  10001929: E9 53 0E 00 00     jmp         10002781
  1000192E: E9 4E 0E 00 00     jmp         10002781
  10001933: E9 49 0E 00 00     jmp         10002781
  10001938: E9 44 0E 00 00     jmp         10002781
  1000193D: E9 3F 0E 00 00     jmp         10002781
  10001942: E9 3A 0E 00 00     jmp         10002781
  10001947: E9 35 0E 00 00     jmp         10002781
  1000194C: E9 30 0E 00 00     jmp         10002781
  10001951: E9 2B 0E 00 00     jmp         10002781
  10001956: E9 26 0E 00 00     jmp         10002781
  1000195B: E9 D1 0D 00 00     jmp         10002731
  10001960: E9 CC 0D 00 00     jmp         10002731
  10001965: E9 C7 0D 00 00     jmp         10002731
  1000196A: E9 C2 0D 00 00     jmp         10002731
  1000196F: E9 BD 0D 00 00     jmp         10002731
  10001974: E9 B8 0D 00 00     jmp         10002731
  10001979: E9 B3 0D 00 00     jmp         10002731
  1000197E: E9 AE 0D 00 00     jmp         10002731
  10001983: E9 A9 0D 00 00     jmp         10002731
  10001988: E9 A4 0D 00 00     jmp         10002731
  1000198D: E9 9F 0D 00 00     jmp         10002731
  10001992: E9 9A 0D 00 00     jmp         10002731
  10001997: E9 95 0D 00 00     jmp         10002731
  1000199C: E9 90 0D 00 00     jmp         10002731
  100019A1: E9 8B 0D 00 00     jmp         10002731
  100019A6: E9 86 0D 00 00     jmp         10002731
  100019AB: E9 91 0D 00 00     jmp         10002741
  100019B0: E9 8C 0D 00 00     jmp         10002741
  100019B5: E9 87 0D 00 00     jmp         10002741
  100019BA: E9 72 0D 00 00     jmp         10002731
  100019BF: E9 E8 0D 00 00     jmp         100027AC
  100019C4: E9 68 0D 00 00     jmp         10002731
  100019C9: E9 DA 0F 00 00     jmp         100029A8
  100019CE: E9 D5 0F 00 00     jmp         100029A8
  100019D3: E9 69 0D 00 00     jmp         10002741
  100019D8: E9 64 0D 00 00     jmp         10002741
  100019DD: E9 5F 0D 00 00     jmp         10002741
  100019E2: E9 4A 0D 00 00     jmp         10002731
  100019E7: E9 C0 0D 00 00     jmp         100027AC
  100019EC: E9 40 0D 00 00     jmp         10002731
  100019F1: E9 F8 13 00 00     jmp         10002DEE
  100019F6: E9 36 0D 00 00     jmp         10002731
  100019FB: E9 31 0D 00 00     jmp         10002731
  10001A00: E9 2C 0D 00 00     jmp         10002731
  10001A05: E9 27 0D 00 00     jmp         10002731
  10001A0A: E9 22 0D 00 00     jmp         10002731
  10001A0F: E9 1D 0D 00 00     jmp         10002731
  10001A14: E9 18 0D 00 00     jmp         10002731
  10001A19: E9 13 0D 00 00     jmp         10002731
  10001A1E: E9 0E 0D 00 00     jmp         10002731
  10001A23: E9 09 0D 00 00     jmp         10002731
  10001A28: E9 14 0D 00 00     jmp         10002741
  10001A2D: E9 74 11 00 00     jmp         10002BA6
  10001A32: E9 FA 0C 00 00     jmp         10002731
  10001A37: E9 F5 0C 00 00     jmp         10002731
  10001A3C: E9 F0 0C 00 00     jmp         10002731
  10001A41: E9 EB 0C 00 00     jmp         10002731
  10001A46: E9 E6 0C 00 00     jmp         10002731
  10001A4B: E9 E1 0C 00 00     jmp         10002731
  10001A50: E9 DC 0C 00 00     jmp         10002731
  10001A55: E9 D7 0C 00 00     jmp         10002731
  10001A5A: E9 D2 0C 00 00     jmp         10002731
  10001A5F: E9 CD 0C 00 00     jmp         10002731
  10001A64: E9 C8 0C 00 00     jmp         10002731
  10001A69: E9 C3 0C 00 00     jmp         10002731
  10001A6E: E9 54 11 00 00     jmp         10002BC7
  10001A73: E9 C9 0C 00 00     jmp         10002741
  10001A78: E9 C4 0C 00 00     jmp         10002741
  10001A7D: E9 BF 0C 00 00     jmp         10002741
  10001A82: E9 BA 0C 00 00     jmp         10002741
  10001A87: E9 B5 0C 00 00     jmp         10002741
  10001A8C: E9 B0 0C 00 00     jmp         10002741
  10001A91: E9 AB 0C 00 00     jmp         10002741
  10001A96: E9 A6 0C 00 00     jmp         10002741
  10001A9B: E9 91 0C 00 00     jmp         10002731
  10001AA0: E9 8C 0C 00 00     jmp         10002731
  10001AA5: E9 87 0C 00 00     jmp         10002731
  10001AAA: E9 82 0C 00 00     jmp         10002731
  10001AAF: E9 7D 0C 00 00     jmp         10002731
  10001AB4: E9 78 0C 00 00     jmp         10002731
  10001AB9: E9 1D 0E 00 00     jmp         100028DB
  10001ABE: E9 6E 0C 00 00     jmp         10002731
  10001AC3: E9 69 0C 00 00     jmp         10002731
  10001AC8: E9 64 0C 00 00     jmp         10002731
  10001ACD: E9 5F 0C 00 00     jmp         10002731
  10001AD2: E9 5A 0C 00 00     jmp         10002731
  10001AD7: E9 55 0C 00 00     jmp         10002731
  10001ADC: E9 50 0C 00 00     jmp         10002731
  10001AE1: E9 4B 0C 00 00     jmp         10002731
  10001AE6: E9 46 0C 00 00     jmp         10002731
  10001AEB: E9 41 0C 00 00     jmp         10002731
  10001AF0: E9 3C 0C 00 00     jmp         10002731
  10001AF5: E9 37 0C 00 00     jmp         10002731
  10001AFA: E9 32 0C 00 00     jmp         10002731
  10001AFF: E9 2D 0C 00 00     jmp         10002731
  10001B04: E9 28 0C 00 00     jmp         10002731
  10001B09: E9 CD 0D 00 00     jmp         100028DB
  10001B0E: E9 1E 0C 00 00     jmp         10002731
  10001B13: E9 19 0C 00 00     jmp         10002731
  10001B18: E9 14 0C 00 00     jmp         10002731
  10001B1D: E9 0F 0C 00 00     jmp         10002731
  10001B22: E9 0A 0C 00 00     jmp         10002731
  10001B27: E9 05 0C 00 00     jmp         10002731
  10001B2C: E9 00 0C 00 00     jmp         10002731
  10001B31: E9 FB 0B 00 00     jmp         10002731
  10001B36: E9 F6 0B 00 00     jmp         10002731
  10001B3B: E9 56 0E 00 00     jmp         10002996
  10001B40: E9 EC 0B 00 00     jmp         10002731
  10001B45: E9 E7 0B 00 00     jmp         10002731
  10001B4A: E9 E2 0B 00 00     jmp         10002731
  10001B4F: E9 DD 0B 00 00     jmp         10002731
  10001B54: E9 D8 0B 00 00     jmp         10002731
  10001B59: E9 D3 0B 00 00     jmp         10002731
  10001B5E: E9 CE 0B 00 00     jmp         10002731
  10001B63: E9 C9 0B 00 00     jmp         10002731
  10001B68: E9 C4 0B 00 00     jmp         10002731
  10001B6D: E9 BF 0B 00 00     jmp         10002731
  10001B72: E9 BA 0B 00 00     jmp         10002731
  10001B77: E9 B5 0B 00 00     jmp         10002731
  10001B7C: E9 B0 0B 00 00     jmp         10002731
  10001B81: E9 AB 0B 00 00     jmp         10002731
  10001B86: E9 1D 0E 00 00     jmp         100029A8
  10001B8B: E9 A1 0B 00 00     jmp         10002731
  10001B90: E9 9C 0B 00 00     jmp         10002731
  10001B95: E9 97 0B 00 00     jmp         10002731
  10001B9A: E9 92 0B 00 00     jmp         10002731
  10001B9F: E9 8D 0B 00 00     jmp         10002731
  10001BA4: E9 88 0B 00 00     jmp         10002731
  10001BA9: E9 83 0B 00 00     jmp         10002731
  10001BAE: E9 7E 0B 00 00     jmp         10002731
  10001BB3: E9 79 0B 00 00     jmp         10002731
  10001BB8: E9 74 0B 00 00     jmp         10002731
  10001BBD: E9 6F 0B 00 00     jmp         10002731
  10001BC2: E9 6A 0B 00 00     jmp         10002731
  10001BC7: E9 DC 0D 00 00     jmp         100029A8
  10001BCC: E9 D7 0D 00 00     jmp         100029A8
  10001BD1: E9 D2 0D 00 00     jmp         100029A8
  10001BD6: E9 CD 0D 00 00     jmp         100029A8
  10001BDB: E9 6A 0B 00 00     jmp         1000274A
  10001BE0: E9 C3 0D 00 00     jmp         100029A8
  10001BE5: E9 BE 0D 00 00     jmp         100029A8
  10001BEA: E9 B9 0D 00 00     jmp         100029A8
  10001BEF: E9 56 0B 00 00     jmp         1000274A
  10001BF4: E9 51 0B 00 00     jmp         1000274A
  10001BF9: E9 AA 0D 00 00     jmp         100029A8
  10001BFE: E9 47 0B 00 00     jmp         1000274A
  10001C03: E9 A0 0D 00 00     jmp         100029A8
  10001C08: E9 9B 0D 00 00     jmp         100029A8
  10001C0D: E9 96 0D 00 00     jmp         100029A8
  10001C12: E9 91 0D 00 00     jmp         100029A8
  10001C17: E9 15 0B 00 00     jmp         10002731
  10001C1C: E9 10 0B 00 00     jmp         10002731
  10001C21: E9 0B 0B 00 00     jmp         10002731
  10001C26: E9 7D 0D 00 00     jmp         100029A8
  10001C2B: E9 1A 0B 00 00     jmp         1000274A
  10001C30: E9 15 0B 00 00     jmp         1000274A
  10001C35: E9 10 0B 00 00     jmp         1000274A
  10001C3A: E9 0B 0B 00 00     jmp         1000274A
  10001C3F: E9 06 0B 00 00     jmp         1000274A
  10001C44: E9 01 0B 00 00     jmp         1000274A
  10001C49: E9 5A 0D 00 00     jmp         100029A8
  10001C4E: E9 55 0D 00 00     jmp         100029A8
  10001C53: E9 F2 0A 00 00     jmp         1000274A
  10001C58: E9 ED 0A 00 00     jmp         1000274A
  10001C5D: E9 E8 0A 00 00     jmp         1000274A
  10001C62: E9 E3 0A 00 00     jmp         1000274A
  10001C67: E9 3C 0D 00 00     jmp         100029A8
  10001C6C: E9 37 0D 00 00     jmp         100029A8
  10001C71: E9 32 0D 00 00     jmp         100029A8
  10001C76: E9 2D 0D 00 00     jmp         100029A8
  10001C7B: E9 CA 0A 00 00     jmp         1000274A
  10001C80: E9 C5 0A 00 00     jmp         1000274A
  10001C85: E9 C0 0A 00 00     jmp         1000274A
  10001C8A: E9 BB 0A 00 00     jmp         1000274A
  10001C8F: E9 B6 0A 00 00     jmp         1000274A
  10001C94: E9 B1 0A 00 00     jmp         1000274A
  10001C99: E9 0A 0D 00 00     jmp         100029A8
  10001C9E: E9 A7 0A 00 00     jmp         1000274A
  10001CA3: E9 A2 0A 00 00     jmp         1000274A
  10001CA8: E9 9D 0A 00 00     jmp         1000274A
  10001CAD: E9 98 0A 00 00     jmp         1000274A
  10001CB2: E9 93 0A 00 00     jmp         1000274A
  10001CB7: E9 8E 0A 00 00     jmp         1000274A
  10001CBC: E9 89 0A 00 00     jmp         1000274A
  10001CC1: E9 84 0A 00 00     jmp         1000274A
  10001CC6: E9 7F 0A 00 00     jmp         1000274A
  10001CCB: E9 7A 0A 00 00     jmp         1000274A
  10001CD0: E9 75 0A 00 00     jmp         1000274A
  10001CD5: E9 CE 0C 00 00     jmp         100029A8
  10001CDA: E9 C9 0C 00 00     jmp         100029A8
  10001CDF: E9 C4 0C 00 00     jmp         100029A8
  10001CE4: E9 BF 0C 00 00     jmp         100029A8
  10001CE9: E9 BA 0C 00 00     jmp         100029A8
  10001CEE: E9 B5 0C 00 00     jmp         100029A8
  10001CF3: E9 B0 0C 00 00     jmp         100029A8
  10001CF8: E9 AB 0C 00 00     jmp         100029A8
  10001CFD: E9 A6 0C 00 00     jmp         100029A8
  10001D02: E9 A1 0C 00 00     jmp         100029A8
  10001D07: E9 9C 0C 00 00     jmp         100029A8
  10001D0C: E9 97 0C 00 00     jmp         100029A8
  10001D11: E9 92 0C 00 00     jmp         100029A8
  10001D16: E9 8D 0C 00 00     jmp         100029A8
  10001D1B: E9 88 0C 00 00     jmp         100029A8
  10001D20: E9 83 0C 00 00     jmp         100029A8
  10001D25: E9 7E 0C 00 00     jmp         100029A8
  10001D2A: E9 79 0C 00 00     jmp         100029A8
  10001D2F: E9 74 0C 00 00     jmp         100029A8
  10001D34: E9 6F 0C 00 00     jmp         100029A8
  10001D39: E9 6A 0C 00 00     jmp         100029A8
  10001D3E: E9 65 0C 00 00     jmp         100029A8
  10001D43: E9 60 0C 00 00     jmp         100029A8
  10001D48: E9 5B 0C 00 00     jmp         100029A8
  10001D4D: E9 56 0C 00 00     jmp         100029A8
  10001D52: E9 51 0C 00 00     jmp         100029A8
  10001D57: E9 4C 0C 00 00     jmp         100029A8
  10001D5C: E9 47 0C 00 00     jmp         100029A8
  10001D61: E9 42 0C 00 00     jmp         100029A8
  10001D66: E9 3D 0C 00 00     jmp         100029A8
  10001D6B: E9 38 0C 00 00     jmp         100029A8
  10001D70: E9 33 0C 00 00     jmp         100029A8
  10001D75: E9 2E 0C 00 00     jmp         100029A8
  10001D7A: E9 29 0C 00 00     jmp         100029A8
  10001D7F: E9 24 0C 00 00     jmp         100029A8
  10001D84: E9 1F 0C 00 00     jmp         100029A8
  10001D89: E9 1A 0C 00 00     jmp         100029A8
  10001D8E: E9 15 0C 00 00     jmp         100029A8
  10001D93: E9 10 0C 00 00     jmp         100029A8
  10001D98: E9 0B 0C 00 00     jmp         100029A8
  10001D9D: E9 06 0C 00 00     jmp         100029A8
  10001DA2: E9 01 0C 00 00     jmp         100029A8
  10001DA7: E9 FC 0B 00 00     jmp         100029A8
  10001DAC: E9 F7 0B 00 00     jmp         100029A8
  10001DB1: E9 F2 0B 00 00     jmp         100029A8
  10001DB6: E9 ED 0B 00 00     jmp         100029A8
  10001DBB: E9 E8 0B 00 00     jmp         100029A8
  10001DC0: E9 E3 0B 00 00     jmp         100029A8
  10001DC5: E9 DE 0B 00 00     jmp         100029A8
  10001DCA: E9 D9 0B 00 00     jmp         100029A8
  10001DCF: E9 D4 0B 00 00     jmp         100029A8
  10001DD4: E9 CF 0B 00 00     jmp         100029A8
  10001DD9: E9 CA 0B 00 00     jmp         100029A8
  10001DDE: E9 C5 0B 00 00     jmp         100029A8
  10001DE3: E9 C0 0B 00 00     jmp         100029A8
  10001DE8: E9 BB 0B 00 00     jmp         100029A8
  10001DED: E9 B6 0B 00 00     jmp         100029A8
  10001DF2: E9 B1 0B 00 00     jmp         100029A8
  10001DF7: E9 AC 0B 00 00     jmp         100029A8
  10001DFC: E9 A7 0B 00 00     jmp         100029A8
  10001E01: E9 A2 0B 00 00     jmp         100029A8
  10001E06: E9 9D 0B 00 00     jmp         100029A8
  10001E0B: E9 98 0B 00 00     jmp         100029A8
  10001E10: E9 93 0B 00 00     jmp         100029A8
  10001E15: E9 8E 0B 00 00     jmp         100029A8
  10001E1A: E9 89 0B 00 00     jmp         100029A8
  10001E1F: E9 84 0B 00 00     jmp         100029A8
  10001E24: E9 7F 0B 00 00     jmp         100029A8
  10001E29: E9 7A 0B 00 00     jmp         100029A8
  10001E2E: E9 75 0B 00 00     jmp         100029A8
  10001E33: E9 70 0B 00 00     jmp         100029A8
  10001E38: E9 6B 0B 00 00     jmp         100029A8
  10001E3D: E9 66 0B 00 00     jmp         100029A8
  10001E42: E9 61 0B 00 00     jmp         100029A8
  10001E47: E9 5C 0B 00 00     jmp         100029A8
  10001E4C: E9 57 0B 00 00     jmp         100029A8
  10001E51: E9 52 0B 00 00     jmp         100029A8
  10001E56: E9 4D 0B 00 00     jmp         100029A8
  10001E5B: E9 48 0B 00 00     jmp         100029A8
  10001E60: E9 43 0B 00 00     jmp         100029A8
  10001E65: E9 3E 0B 00 00     jmp         100029A8
  10001E6A: E9 39 0B 00 00     jmp         100029A8
  10001E6F: E9 34 0B 00 00     jmp         100029A8
  10001E74: E9 2F 0B 00 00     jmp         100029A8
  10001E79: E9 2A 0B 00 00     jmp         100029A8
  10001E7E: E9 25 0B 00 00     jmp         100029A8
  10001E83: E9 20 0B 00 00     jmp         100029A8
  10001E88: E9 1B 0B 00 00     jmp         100029A8
  10001E8D: E9 16 0B 00 00     jmp         100029A8
  10001E92: E9 11 0B 00 00     jmp         100029A8
  10001E97: E9 0C 0B 00 00     jmp         100029A8
  10001E9C: E9 07 0B 00 00     jmp         100029A8
  10001EA1: E9 02 0B 00 00     jmp         100029A8
  10001EA6: E9 FD 0A 00 00     jmp         100029A8
  10001EAB: E9 F8 0A 00 00     jmp         100029A8
  10001EB0: E9 F3 0A 00 00     jmp         100029A8
  10001EB5: E9 EE 0A 00 00     jmp         100029A8
  10001EBA: E9 E9 0A 00 00     jmp         100029A8
  10001EBF: E9 E4 0A 00 00     jmp         100029A8
  10001EC4: E9 DF 0A 00 00     jmp         100029A8
  10001EC9: E9 DA 0A 00 00     jmp         100029A8
  10001ECE: E9 D5 0A 00 00     jmp         100029A8
  10001ED3: E9 D0 0A 00 00     jmp         100029A8
  10001ED8: E9 CB 0A 00 00     jmp         100029A8
  10001EDD: E9 C6 0A 00 00     jmp         100029A8
  10001EE2: E9 C1 0A 00 00     jmp         100029A8
  10001EE7: E9 BC 0A 00 00     jmp         100029A8
  10001EEC: E9 B7 0A 00 00     jmp         100029A8
  10001EF1: E9 B2 0A 00 00     jmp         100029A8
  10001EF6: E9 AD 0A 00 00     jmp         100029A8
  10001EFB: E9 A8 0A 00 00     jmp         100029A8
  10001F00: E9 A3 0A 00 00     jmp         100029A8
  10001F05: E9 9E 0A 00 00     jmp         100029A8
  10001F0A: E9 99 0A 00 00     jmp         100029A8
  10001F0F: E9 94 0A 00 00     jmp         100029A8
  10001F14: E9 8F 0A 00 00     jmp         100029A8
  10001F19: E9 8A 0A 00 00     jmp         100029A8
  10001F1E: E9 85 0A 00 00     jmp         100029A8
  10001F23: E9 80 0A 00 00     jmp         100029A8
  10001F28: E9 7B 0A 00 00     jmp         100029A8
  10001F2D: E9 76 0A 00 00     jmp         100029A8
  10001F32: E9 71 0A 00 00     jmp         100029A8
  10001F37: E9 6C 0A 00 00     jmp         100029A8
  10001F3C: E9 67 0A 00 00     jmp         100029A8
  10001F41: E9 62 0A 00 00     jmp         100029A8
  10001F46: E9 5D 0A 00 00     jmp         100029A8
  10001F4B: E9 58 0A 00 00     jmp         100029A8
  10001F50: E9 53 0A 00 00     jmp         100029A8
  10001F55: E9 4E 0A 00 00     jmp         100029A8
  10001F5A: E9 49 0A 00 00     jmp         100029A8
  10001F5F: E9 44 0A 00 00     jmp         100029A8
  10001F64: E9 3F 0A 00 00     jmp         100029A8
  10001F69: E9 3A 0A 00 00     jmp         100029A8
  10001F6E: E9 35 0A 00 00     jmp         100029A8
  10001F73: E9 30 0A 00 00     jmp         100029A8
  10001F78: E9 2B 0A 00 00     jmp         100029A8
  10001F7D: E9 26 0A 00 00     jmp         100029A8
  10001F82: E9 21 0A 00 00     jmp         100029A8
  10001F87: E9 1C 0A 00 00     jmp         100029A8
  10001F8C: E9 17 0A 00 00     jmp         100029A8
  10001F91: E9 12 0A 00 00     jmp         100029A8
  10001F96: E9 0D 0A 00 00     jmp         100029A8
  10001F9B: E9 08 0A 00 00     jmp         100029A8
  10001FA0: E9 03 0A 00 00     jmp         100029A8
  10001FA5: E9 FE 09 00 00     jmp         100029A8
  10001FAA: E9 F9 09 00 00     jmp         100029A8
  10001FAF: E9 F4 09 00 00     jmp         100029A8
  10001FB4: E9 EF 09 00 00     jmp         100029A8
  10001FB9: E9 EA 09 00 00     jmp         100029A8
  10001FBE: E9 E5 09 00 00     jmp         100029A8
  10001FC3: E9 E0 09 00 00     jmp         100029A8
  10001FC8: E9 DB 09 00 00     jmp         100029A8
  10001FCD: E9 D6 09 00 00     jmp         100029A8
  10001FD2: E9 D1 09 00 00     jmp         100029A8
  10001FD7: E9 CC 09 00 00     jmp         100029A8
  10001FDC: E9 C7 09 00 00     jmp         100029A8
  10001FE1: E9 C2 09 00 00     jmp         100029A8
  10001FE6: E9 BD 09 00 00     jmp         100029A8
  10001FEB: E9 B8 09 00 00     jmp         100029A8
  10001FF0: E9 B3 09 00 00     jmp         100029A8
  10001FF5: E9 AE 09 00 00     jmp         100029A8
  10001FFA: E9 A9 09 00 00     jmp         100029A8
  10001FFF: E9 A4 09 00 00     jmp         100029A8
  10002004: E9 9F 09 00 00     jmp         100029A8
  10002009: E9 9A 09 00 00     jmp         100029A8
  1000200E: E9 95 09 00 00     jmp         100029A8
  10002013: E9 90 09 00 00     jmp         100029A8
  10002018: E9 8B 09 00 00     jmp         100029A8
  1000201D: E9 86 09 00 00     jmp         100029A8
  10002022: E9 81 09 00 00     jmp         100029A8
  10002027: E9 7C 09 00 00     jmp         100029A8
  1000202C: E9 77 09 00 00     jmp         100029A8
  10002031: E9 72 09 00 00     jmp         100029A8
  10002036: E9 6D 09 00 00     jmp         100029A8
  1000203B: E9 89 08 00 00     jmp         100028C9
  10002040: E9 84 08 00 00     jmp         100028C9
  10002045: E9 5E 09 00 00     jmp         100029A8
  1000204A: E9 59 09 00 00     jmp         100029A8
  1000204F: E9 54 09 00 00     jmp         100029A8
  10002054: E9 4F 09 00 00     jmp         100029A8
  10002059: E9 4A 09 00 00     jmp         100029A8
  1000205E: E9 45 09 00 00     jmp         100029A8
  10002063: E9 40 09 00 00     jmp         100029A8
  10002068: E9 3B 09 00 00     jmp         100029A8
  1000206D: E9 36 09 00 00     jmp         100029A8
  10002072: E9 31 09 00 00     jmp         100029A8
  10002077: E9 2C 09 00 00     jmp         100029A8
  1000207C: E9 27 09 00 00     jmp         100029A8
  10002081: E9 22 09 00 00     jmp         100029A8
  10002086: E9 1D 09 00 00     jmp         100029A8
  1000208B: E9 18 09 00 00     jmp         100029A8
  10002090: E9 13 09 00 00     jmp         100029A8
  10002095: E9 0E 09 00 00     jmp         100029A8
  1000209A: E9 09 09 00 00     jmp         100029A8
  1000209F: E9 04 09 00 00     jmp         100029A8
  100020A4: E9 FF 08 00 00     jmp         100029A8
  100020A9: E9 FA 08 00 00     jmp         100029A8
  100020AE: E9 F5 08 00 00     jmp         100029A8
  100020B3: E9 A4 06 00 00     jmp         1000275C
  100020B8: E9 9F 06 00 00     jmp         1000275C
  100020BD: E9 9A 06 00 00     jmp         1000275C
  100020C2: E9 95 06 00 00     jmp         1000275C
  100020C7: E9 90 06 00 00     jmp         1000275C
  100020CC: E9 8B 06 00 00     jmp         1000275C
  100020D1: E9 86 06 00 00     jmp         1000275C
  100020D6: E9 56 06 00 00     jmp         10002731
  100020DB: E9 C8 08 00 00     jmp         100029A8
  100020E0: E9 C3 08 00 00     jmp         100029A8
  100020E5: E9 BE 08 00 00     jmp         100029A8
  100020EA: E9 B9 08 00 00     jmp         100029A8
  100020EF: E9 68 06 00 00     jmp         1000275C
  100020F4: E9 63 06 00 00     jmp         1000275C
  100020F9: E9 5E 06 00 00     jmp         1000275C
  100020FE: E9 59 06 00 00     jmp         1000275C
  10002103: E9 A0 08 00 00     jmp         100029A8
  10002108: E9 9B 08 00 00     jmp         100029A8
  1000210D: E9 96 08 00 00     jmp         100029A8
  10002112: E9 91 08 00 00     jmp         100029A8
  10002117: E9 8C 08 00 00     jmp         100029A8
  1000211C: E9 87 08 00 00     jmp         100029A8
  10002121: E9 82 08 00 00     jmp         100029A8
  10002126: E9 7D 08 00 00     jmp         100029A8
  1000212B: E9 2C 06 00 00     jmp         1000275C
  10002130: E9 27 06 00 00     jmp         1000275C
  10002135: E9 22 06 00 00     jmp         1000275C
  1000213A: E9 69 08 00 00     jmp         100029A8
  1000213F: E9 64 08 00 00     jmp         100029A8
  10002144: E9 5F 08 00 00     jmp         100029A8
  10002149: E9 5A 08 00 00     jmp         100029A8
  1000214E: E9 55 08 00 00     jmp         100029A8
  10002153: E9 50 08 00 00     jmp         100029A8
  10002158: E9 4B 08 00 00     jmp         100029A8
  1000215D: E9 46 08 00 00     jmp         100029A8
  10002162: E9 41 08 00 00     jmp         100029A8
  10002167: E9 3C 08 00 00     jmp         100029A8
  1000216C: E9 37 08 00 00     jmp         100029A8
  10002171: E9 32 08 00 00     jmp         100029A8
  10002176: E9 2D 08 00 00     jmp         100029A8
  1000217B: E9 28 08 00 00     jmp         100029A8
  10002180: E9 23 08 00 00     jmp         100029A8
  10002185: E9 1E 08 00 00     jmp         100029A8
  1000218A: E9 19 08 00 00     jmp         100029A8
  1000218F: E9 14 08 00 00     jmp         100029A8
  10002194: E9 0F 08 00 00     jmp         100029A8
  10002199: E9 0A 08 00 00     jmp         100029A8
  1000219E: E9 05 08 00 00     jmp         100029A8
  100021A3: E9 00 08 00 00     jmp         100029A8
  100021A8: E9 FB 07 00 00     jmp         100029A8
  100021AD: E9 F6 07 00 00     jmp         100029A8
  100021B2: E9 F1 07 00 00     jmp         100029A8
  100021B7: E9 EC 07 00 00     jmp         100029A8
  100021BC: E9 E7 07 00 00     jmp         100029A8
  100021C1: E9 E2 07 00 00     jmp         100029A8
  100021C6: E9 DD 07 00 00     jmp         100029A8
  100021CB: E9 8C 05 00 00     jmp         1000275C
  100021D0: E9 87 05 00 00     jmp         1000275C
  100021D5: E9 82 05 00 00     jmp         1000275C
  100021DA: E9 C9 07 00 00     jmp         100029A8
  100021DF: E9 C4 07 00 00     jmp         100029A8
  100021E4: E9 BF 07 00 00     jmp         100029A8
  100021E9: E9 BA 07 00 00     jmp         100029A8
  100021EE: E9 B5 07 00 00     jmp         100029A8
  100021F3: E9 B0 07 00 00     jmp         100029A8
  100021F8: E9 AB 07 00 00     jmp         100029A8
  100021FD: E9 A6 07 00 00     jmp         100029A8
  10002202: E9 A1 07 00 00     jmp         100029A8
  10002207: E9 9C 07 00 00     jmp         100029A8
  1000220C: E9 97 07 00 00     jmp         100029A8
  10002211: E9 92 07 00 00     jmp         100029A8
  10002216: E9 8D 07 00 00     jmp         100029A8
  1000221B: E9 88 07 00 00     jmp         100029A8
  10002220: E9 83 07 00 00     jmp         100029A8
  10002225: E9 7E 07 00 00     jmp         100029A8
  1000222A: E9 79 07 00 00     jmp         100029A8
  1000222F: E9 74 07 00 00     jmp         100029A8
  10002234: E9 6F 07 00 00     jmp         100029A8
  10002239: E9 6A 07 00 00     jmp         100029A8
  1000223E: E9 65 07 00 00     jmp         100029A8
  10002243: E9 60 07 00 00     jmp         100029A8
  10002248: E9 5B 07 00 00     jmp         100029A8
  1000224D: E9 56 07 00 00     jmp         100029A8
  10002252: E9 51 07 00 00     jmp         100029A8
  10002257: E9 4C 07 00 00     jmp         100029A8
  1000225C: E9 47 07 00 00     jmp         100029A8
  10002261: E9 42 07 00 00     jmp         100029A8
  10002266: E9 3D 07 00 00     jmp         100029A8
  1000226B: E9 EC 04 00 00     jmp         1000275C
  10002270: E9 E7 04 00 00     jmp         1000275C
  10002275: E9 E2 04 00 00     jmp         1000275C
  1000227A: E9 DD 04 00 00     jmp         1000275C
  1000227F: E9 24 07 00 00     jmp         100029A8
  10002284: E9 1F 07 00 00     jmp         100029A8
  10002289: E9 1A 07 00 00     jmp         100029A8
  1000228E: E9 15 07 00 00     jmp         100029A8
  10002293: E9 10 07 00 00     jmp         100029A8
  10002298: E9 0B 07 00 00     jmp         100029A8
  1000229D: E9 06 07 00 00     jmp         100029A8
  100022A2: E9 01 07 00 00     jmp         100029A8
  100022A7: E9 FC 06 00 00     jmp         100029A8
  100022AC: E9 F7 06 00 00     jmp         100029A8
  100022B1: E9 F2 06 00 00     jmp         100029A8
  100022B6: E9 ED 06 00 00     jmp         100029A8
  100022BB: E9 E8 06 00 00     jmp         100029A8
  100022C0: E9 E3 06 00 00     jmp         100029A8
  100022C5: E9 DE 06 00 00     jmp         100029A8
  100022CA: E9 D9 06 00 00     jmp         100029A8
  100022CF: E9 D4 06 00 00     jmp         100029A8
  100022D4: E9 CF 06 00 00     jmp         100029A8
  100022D9: E9 CA 06 00 00     jmp         100029A8
  100022DE: E9 C5 06 00 00     jmp         100029A8
  100022E3: E9 C0 06 00 00     jmp         100029A8
  100022E8: E9 BB 06 00 00     jmp         100029A8
  100022ED: E9 B6 06 00 00     jmp         100029A8
  100022F2: E9 B1 06 00 00     jmp         100029A8
  100022F7: E9 AC 06 00 00     jmp         100029A8
  100022FC: E9 A7 06 00 00     jmp         100029A8
  10002301: E9 A2 06 00 00     jmp         100029A8
  10002306: E9 9D 06 00 00     jmp         100029A8
  1000230B: E9 98 06 00 00     jmp         100029A8
  10002310: E9 93 06 00 00     jmp         100029A8
  10002315: E9 8E 06 00 00     jmp         100029A8
  1000231A: E9 89 06 00 00     jmp         100029A8
  1000231F: E9 84 06 00 00     jmp         100029A8
  10002324: E9 7F 06 00 00     jmp         100029A8
  10002329: E9 7A 06 00 00     jmp         100029A8
  1000232E: E9 75 06 00 00     jmp         100029A8
  10002333: E9 70 06 00 00     jmp         100029A8
  10002338: E9 6B 06 00 00     jmp         100029A8
  1000233D: E9 66 06 00 00     jmp         100029A8
  10002342: E9 61 06 00 00     jmp         100029A8
  10002347: E9 5C 06 00 00     jmp         100029A8
  1000234C: E9 57 06 00 00     jmp         100029A8
  10002351: E9 52 06 00 00     jmp         100029A8
  10002356: E9 4D 06 00 00     jmp         100029A8
  1000235B: E9 48 06 00 00     jmp         100029A8
  10002360: E9 43 06 00 00     jmp         100029A8
  10002365: E9 3E 06 00 00     jmp         100029A8
  1000236A: E9 39 06 00 00     jmp         100029A8
  1000236F: E9 34 06 00 00     jmp         100029A8
  10002374: E9 2F 06 00 00     jmp         100029A8
  10002379: E9 2A 06 00 00     jmp         100029A8
  1000237E: E9 25 06 00 00     jmp         100029A8
  10002383: E9 20 06 00 00     jmp         100029A8
  10002388: E9 1B 06 00 00     jmp         100029A8
  1000238D: E9 16 06 00 00     jmp         100029A8
  10002392: E9 11 06 00 00     jmp         100029A8
  10002397: E9 0C 06 00 00     jmp         100029A8
  1000239C: E9 07 06 00 00     jmp         100029A8
  100023A1: E9 02 06 00 00     jmp         100029A8
  100023A6: E9 FD 05 00 00     jmp         100029A8
  100023AB: E9 F8 05 00 00     jmp         100029A8
  100023B0: E9 F3 05 00 00     jmp         100029A8
  100023B5: E9 EE 05 00 00     jmp         100029A8
  100023BA: E9 E9 05 00 00     jmp         100029A8
  100023BF: E9 E4 05 00 00     jmp         100029A8
  100023C4: E9 DF 05 00 00     jmp         100029A8
  100023C9: E9 DA 05 00 00     jmp         100029A8
  100023CE: E9 D5 05 00 00     jmp         100029A8
  100023D3: E9 D0 05 00 00     jmp         100029A8
  100023D8: E9 CB 05 00 00     jmp         100029A8
  100023DD: E9 C6 05 00 00     jmp         100029A8
  100023E2: E9 C1 05 00 00     jmp         100029A8
  100023E7: E9 BC 05 00 00     jmp         100029A8
  100023EC: E9 B7 05 00 00     jmp         100029A8
  100023F1: E9 B2 05 00 00     jmp         100029A8
  100023F6: E9 AD 05 00 00     jmp         100029A8
  100023FB: E9 A8 05 00 00     jmp         100029A8
  10002400: E9 A3 05 00 00     jmp         100029A8
  10002405: E9 9E 05 00 00     jmp         100029A8
  1000240A: E9 99 05 00 00     jmp         100029A8
  1000240F: E9 94 05 00 00     jmp         100029A8
  10002414: E9 8F 05 00 00     jmp         100029A8
  10002419: E9 8A 05 00 00     jmp         100029A8
  1000241E: E9 85 05 00 00     jmp         100029A8
  10002423: E9 80 05 00 00     jmp         100029A8
  10002428: E9 7B 05 00 00     jmp         100029A8
  1000242D: E9 76 05 00 00     jmp         100029A8
  10002432: E9 71 05 00 00     jmp         100029A8
  10002437: E9 6C 05 00 00     jmp         100029A8
  1000243C: E9 67 05 00 00     jmp         100029A8
  10002441: E9 62 05 00 00     jmp         100029A8
  10002446: E9 5D 05 00 00     jmp         100029A8
  1000244B: E9 58 05 00 00     jmp         100029A8
  10002450: E9 53 05 00 00     jmp         100029A8
  10002455: E9 4E 05 00 00     jmp         100029A8
  1000245A: E9 49 05 00 00     jmp         100029A8
  1000245F: E9 44 05 00 00     jmp         100029A8
  10002464: E9 3F 05 00 00     jmp         100029A8
  10002469: E9 3A 05 00 00     jmp         100029A8
  1000246E: E9 35 05 00 00     jmp         100029A8
  10002473: E9 30 05 00 00     jmp         100029A8
  10002478: E9 2B 05 00 00     jmp         100029A8
  1000247D: E9 26 05 00 00     jmp         100029A8
  10002482: E9 21 05 00 00     jmp         100029A8
  10002487: E9 1C 05 00 00     jmp         100029A8
  1000248C: E9 17 05 00 00     jmp         100029A8
  10002491: E9 12 05 00 00     jmp         100029A8
  10002496: E9 0D 05 00 00     jmp         100029A8
  1000249B: E9 08 05 00 00     jmp         100029A8
  100024A0: E9 03 05 00 00     jmp         100029A8
  100024A5: E9 FE 04 00 00     jmp         100029A8
  100024AA: E9 F9 04 00 00     jmp         100029A8
  100024AF: E9 F4 04 00 00     jmp         100029A8
  100024B4: E9 EF 04 00 00     jmp         100029A8
  100024B9: E9 EA 04 00 00     jmp         100029A8
  100024BE: E9 E5 04 00 00     jmp         100029A8
  100024C3: E9 E0 04 00 00     jmp         100029A8
  100024C8: E9 DB 04 00 00     jmp         100029A8
  100024CD: E9 D6 04 00 00     jmp         100029A8
  100024D2: E9 D1 04 00 00     jmp         100029A8
  100024D7: E9 CC 04 00 00     jmp         100029A8
  100024DC: E9 C7 04 00 00     jmp         100029A8
  100024E1: E9 C2 04 00 00     jmp         100029A8
  100024E6: E9 BD 04 00 00     jmp         100029A8
  100024EB: E9 B8 04 00 00     jmp         100029A8
  100024F0: E9 B3 04 00 00     jmp         100029A8
  100024F5: E9 AE 04 00 00     jmp         100029A8
  100024FA: E9 A9 04 00 00     jmp         100029A8
  100024FF: E9 A4 04 00 00     jmp         100029A8
  10002504: E9 9F 04 00 00     jmp         100029A8
  10002509: E9 9A 04 00 00     jmp         100029A8
  1000250E: E9 95 04 00 00     jmp         100029A8
  10002513: E9 90 04 00 00     jmp         100029A8
  10002518: E9 8B 04 00 00     jmp         100029A8
  1000251D: E9 86 04 00 00     jmp         100029A8
  10002522: E9 81 04 00 00     jmp         100029A8
  10002527: E9 7C 04 00 00     jmp         100029A8
  1000252C: E9 77 04 00 00     jmp         100029A8
  10002531: E9 72 04 00 00     jmp         100029A8
  10002536: E9 6D 04 00 00     jmp         100029A8
  1000253B: E9 68 04 00 00     jmp         100029A8
  10002540: E9 63 04 00 00     jmp         100029A8
  10002545: E9 5E 04 00 00     jmp         100029A8
  1000254A: E9 59 04 00 00     jmp         100029A8
  1000254F: E9 54 04 00 00     jmp         100029A8
  10002554: E9 4F 04 00 00     jmp         100029A8
  10002559: E9 4A 04 00 00     jmp         100029A8
  1000255E: E9 45 04 00 00     jmp         100029A8
  10002563: E9 40 04 00 00     jmp         100029A8
  10002568: E9 3B 04 00 00     jmp         100029A8
  1000256D: E9 36 04 00 00     jmp         100029A8
  10002572: E9 31 04 00 00     jmp         100029A8
  10002577: E9 2C 04 00 00     jmp         100029A8
  1000257C: E9 27 04 00 00     jmp         100029A8
  10002581: E9 22 04 00 00     jmp         100029A8
  10002586: E9 1D 04 00 00     jmp         100029A8
  1000258B: E9 62 01 00 00     jmp         100026F2
  10002590: E9 5D 01 00 00     jmp         100026F2
  10002595: E9 58 01 00 00     jmp         100026F2
  1000259A: E9 53 01 00 00     jmp         100026F2
  1000259F: E9 4F 01 00 00     jmp         100026F3
  100025A4: E9 72 01 00 00     jmp         1000271B
  100025A9: E9 78 01 00 00     jmp         10002726
  100025AE: E9 3F 01 00 00     jmp         100026F2
  100025B3: E9 3A 01 00 00     jmp         100026F2
  100025B8: E9 35 01 00 00     jmp         100026F2
  100025BD: E9 30 01 00 00     jmp         100026F2
  100025C2: E9 2B 01 00 00     jmp         100026F2
  100025C7: E9 27 01 00 00     jmp         100026F3
  100025CC: E9 21 01 00 00     jmp         100026F2
  100025D1: E9 1C 01 00 00     jmp         100026F2
  100025D6: E9 17 01 00 00     jmp         100026F2
  100025DB: E9 12 01 00 00     jmp         100026F2
  100025E0: E9 0D 01 00 00     jmp         100026F2
  100025E5: E9 08 01 00 00     jmp         100026F2
  100025EA: E9 03 01 00 00     jmp         100026F2
  100025EF: E9 FF 00 00 00     jmp         100026F3
  100025F4: E9 F9 00 00 00     jmp         100026F2
  100025F9: E9 F4 00 00 00     jmp         100026F2
  100025FE: E9 EF 00 00 00     jmp         100026F2
  10002603: E9 EA 00 00 00     jmp         100026F2
  10002608: E9 E5 00 00 00     jmp         100026F2
  1000260D: E9 E0 00 00 00     jmp         100026F2
  10002612: E9 DB 00 00 00     jmp         100026F2
  10002617: E9 D6 00 00 00     jmp         100026F2
  1000261C: E9 D1 00 00 00     jmp         100026F2
  10002621: E9 CC 00 00 00     jmp         100026F2
  10002626: E9 C7 00 00 00     jmp         100026F2
  1000262B: 5E                 pop         esi
  1000262C: FF 75 2F           push        dword ptr [ebp+2Fh]
  1000262F: 8F 45 23           pop         dword ptr [ebp+23h]
  10002632: C6 45 22 00        mov         byte ptr [ebp+22h],0
  10002636: C7 45 02 20 00 00  mov         dword ptr [ebp+2],20h
            00
  1000263D: C7 45 06 20 00 00  mov         dword ptr [ebp+6],20h
            00
  10002644: 83 7D 33 40        cmp         dword ptr [ebp+33h],40h
  10002648: 75 07              jne         10002651
  1000264A: C7 45 06 40 00 00  mov         dword ptr [ebp+6],40h
            00
  10002651: 8B 45 23           mov         eax,dword ptr [ebp+23h]
  10002654: 0F B6 08           movzx       ecx,byte ptr [eax]
  10002657: 8B C1              mov         eax,ecx
  10002659: B9 05 00 00 00     mov         ecx,5
  1000265E: F7 E1              mul         eax,ecx
  10002660: 03 C6              add         eax,esi
  10002662: FF D0              call        eax
  10002664: 83 F8 FF           cmp         eax,0FFFFFFFFh
  10002667: 74 06              je          1000266F
  10002669: 8B 45 23           mov         eax,dword ptr [ebp+23h]
  1000266C: 2B 45 2F           sub         eax,dword ptr [ebp+2Fh]
  1000266F: 5F                 pop         edi
  10002670: 5E                 pop         esi
  10002671: 5A                 pop         edx
  10002672: 59                 pop         ecx
  10002673: 83 C4 27           add         esp,27h
  10002676: 5D                 pop         ebp
  10002677: C2 08 00           ret         8
  1000267A: C7 45 1A 00 00 00  mov         dword ptr [ebp+1Ah],0
            00
  10002681: 8B 45 23           mov         eax,dword ptr [ebp+23h]
  10002684: 0F B6 40 01        movzx       eax,byte ptr [eax+1]
  10002688: 25 C7 00 00 00     and         eax,0C7h
  1000268D: B9 40 00 00 00     mov         ecx,40h
  10002692: 33 D2              xor         edx,edx
  10002694: F7 F1              div         eax,ecx
  10002696: 89 45 0A           mov         dword ptr [ebp+0Ah],eax
  10002699: 83 F8 01           cmp         eax,1
  1000269C: 75 04              jne         100026A2
  1000269E: 83 45 1A 01        add         dword ptr [ebp+1Ah],1
  100026A2: 83 F8 02           cmp         eax,2
  100026A5: 75 04              jne         100026AB
  100026A7: 83 45 1A 04        add         dword ptr [ebp+1Ah],4
  100026AB: 89 55 0E           mov         dword ptr [ebp+0Eh],edx
  100026AE: C1 E0 05           shl         eax,5
  100026B1: B9 04 00 00 00     mov         ecx,4
  100026B6: 8B FA              mov         edi,edx
  100026B8: BA 00 00 00 00     mov         edx,0
  100026BD: F7 F1              div         eax,ecx
  100026BF: BA 05 00 00 00     mov         edx,5
  100026C4: F7 E2              mul         eax,edx
  100026C6: 89 45 1E           mov         dword ptr [ebp+1Eh],eax
  100026C9: 8B C7              mov         eax,edi
  100026CB: BA 05 00 00 00     mov         edx,5
  100026D0: F7 E2              mul         eax,edx
  100026D2: 8B 55 1E           mov         edx,dword ptr [ebp+1Eh]
  100026D5: 03 C2              add         eax,edx
  100026D7: 03 C6              add         eax,esi
  100026D9: 05 00 14 00 00     add         eax,1400h
  100026DE: FF D0              call        eax
  100026E0: C3                 ret
  100026E1: 8B 45 23           mov         eax,dword ptr [ebp+23h]
  100026E4: 0F B6 40 01        movzx       eax,byte ptr [eax+1]
  100026E8: 83 E0 38           and         eax,38h
  100026EB: C1 E8 03           shr         eax,3
  100026EE: 89 45 16           mov         dword ptr [ebp+16h],eax
  100026F1: C3                 ret
  100026F2: C3                 ret
  100026F3: 83 7D 06 20        cmp         dword ptr [ebp+6],20h
  100026F7: 7C 21              jl          1000271A
  100026F9: 83 45 1A 01        add         dword ptr [ebp+1Ah],1
  100026FD: 8B 45 23           mov         eax,dword ptr [ebp+23h]
  10002700: 0F B6 40 02        movzx       eax,byte ptr [eax+2]
  10002704: 83 E0 07           and         eax,7
  10002707: 89 45 12           mov         dword ptr [ebp+12h],eax
  1000270A: 83 7D 12 05        cmp         dword ptr [ebp+12h],5
  1000270E: 75 0A              jne         1000271A
  10002710: 83 7D 0A 00        cmp         dword ptr [ebp+0Ah],0
  10002714: 75 04              jne         1000271A
  10002716: 83 45 1A 04        add         dword ptr [ebp+1Ah],4
  1000271A: C3                 ret
  1000271B: 83 7D 06 20        cmp         dword ptr [ebp+6],20h
  1000271F: 7C 04              jl          10002725
  10002721: 83 45 1A 04        add         dword ptr [ebp+1Ah],4
  10002725: C3                 ret
  10002726: 83 7D 06 10        cmp         dword ptr [ebp+6],10h
  1000272A: 75 04              jne         10002730
  1000272C: 83 45 1A 02        add         dword ptr [ebp+1Ah],2
  10002730: C3                 ret
  10002731: E8 44 FF FF FF     call        1000267A
  10002736: 8B 45 1A           mov         eax,dword ptr [ebp+1Ah]
  10002739: 01 45 23           add         dword ptr [ebp+23h],eax
  1000273C: 83 45 23 02        add         dword ptr [ebp+23h],2
  10002740: C3                 ret
  10002741: FF 45 23           inc         dword ptr [ebp+23h]
  10002744: C3                 ret
  10002745: 83 45 23 02        add         dword ptr [ebp+23h],2
  10002749: C3                 ret
  1000274A: 83 7D 02 10        cmp         dword ptr [ebp+2],10h
  1000274E: 75 06              jne         10002756
  10002750: E8 DC FF FF FF     call        10002731
  10002755: C3                 ret
  10002756: E8 4D 02 00 00     call        100029A8
  1000275B: C3                 ret
  1000275C: 83 7D 02 10        cmp         dword ptr [ebp+2],10h
  10002760: 75 09              jne         1000276B
  10002762: E8 CA FF FF FF     call        10002731
  10002767: FF 45 23           inc         dword ptr [ebp+23h]
  1000276A: C3                 ret
  1000276B: E8 38 02 00 00     call        100029A8
  10002770: C3                 ret
  10002771: 83 7D 33 40        cmp         dword ptr [ebp+33h],40h
  10002775: 75 06              jne         1000277D
  10002777: E8 2C 02 00 00     call        100029A8
  1000277C: C3                 ret
  1000277D: FF 45 23           inc         dword ptr [ebp+23h]
  10002780: C3                 ret
  10002781: 83 7D 02 20        cmp         dword ptr [ebp+2],20h
  10002785: 7C 05              jl          1000278C
  10002787: 83 45 23 05        add         dword ptr [ebp+23h],5
  1000278B: C3                 ret
  1000278C: 83 45 23 03        add         dword ptr [ebp+23h],3
  10002790: C3                 ret
  10002791: 83 7D 02 40        cmp         dword ptr [ebp+2],40h
  10002795: 75 05              jne         1000279C
  10002797: 83 45 23 09        add         dword ptr [ebp+23h],9
  1000279B: C3                 ret
  1000279C: 83 7D 02 20        cmp         dword ptr [ebp+2],20h
  100027A0: 75 05              jne         100027A7
  100027A2: 83 45 23 05        add         dword ptr [ebp+23h],5
  100027A6: C3                 ret
  100027A7: 83 45 23 03        add         dword ptr [ebp+23h],3
  100027AB: C3                 ret
  100027AC: E8 80 FF FF FF     call        10002731
  100027B1: FF 45 23           inc         dword ptr [ebp+23h]
  100027B4: C3                 ret
  100027B5: 83 7D 33 40        cmp         dword ptr [ebp+33h],40h
  100027B9: 75 25              jne         100027E0
  100027BB: C7 45 02 40 00 00  mov         dword ptr [ebp+2],40h
            00
  100027C2: FF 45 23           inc         dword ptr [ebp+23h]
  100027C5: 8B 45 23           mov         eax,dword ptr [ebp+23h]
  100027C8: 0F B6 08           movzx       ecx,byte ptr [eax]
  100027CB: 8B C1              mov         eax,ecx
  100027CD: B9 05 00 00 00     mov         ecx,5
  100027D2: F7 E1              mul         eax,ecx
  100027D4: 03 C6              add         eax,esi
  100027D6: FF D0              call        eax
  100027D8: C7 45 02 20 00 00  mov         dword ptr [ebp+2],20h
            00
  100027DF: C3                 ret
  100027E0: FF 45 23           inc         dword ptr [ebp+23h]
  100027E3: C3                 ret
  100027E4: 83 7D 33 40        cmp         dword ptr [ebp+33h],40h
  100027E8: 75 26              jne         10002810
  100027EA: FF 45 23           inc         dword ptr [ebp+23h]
  100027ED: FE 45 22           inc         byte ptr [ebp+22h]
  100027F0: 80 7D 22 0F        cmp         byte ptr [ebp+22h],0Fh
  100027F4: 75 06              jne         100027FC
  100027F6: E8 AD 01 00 00     call        100029A8
  100027FB: C3                 ret
  100027FC: 8B 45 23           mov         eax,dword ptr [ebp+23h]
  100027FF: 0F B6 08           movzx       ecx,byte ptr [eax]
  10002802: 8B C1              mov         eax,ecx
  10002804: B9 05 00 00 00     mov         ecx,5
  10002809: F7 E1              mul         eax,ecx
  1000280B: 03 C6              add         eax,esi
  1000280D: FF D0              call        eax
  1000280F: C3                 ret
  10002810: 83 45 23 01        add         dword ptr [ebp+23h],1
  10002814: C3                 ret
  10002815: FF 45 23           inc         dword ptr [ebp+23h]
  10002818: FE 45 22           inc         byte ptr [ebp+22h]
  1000281B: 80 7D 22 0F        cmp         byte ptr [ebp+22h],0Fh
  1000281F: 75 06              jne         10002827
  10002821: E8 82 01 00 00     call        100029A8
  10002826: C3                 ret
  10002827: 8B 45 23           mov         eax,dword ptr [ebp+23h]
  1000282A: 0F B6 08           movzx       ecx,byte ptr [eax]
  1000282D: 8B C1              mov         eax,ecx
  1000282F: B9 05 00 00 00     mov         ecx,5
  10002834: F7 E1              mul         eax,ecx
  10002836: 03 C6              add         eax,esi
  10002838: FF D0              call        eax
  1000283A: C3                 ret
  1000283B: 83 7D 02 20        cmp         dword ptr [ebp+2],20h
  1000283F: 7C 0A              jl          1000284B
  10002841: E8 EB FE FF FF     call        10002731
  10002846: 83 45 23 04        add         dword ptr [ebp+23h],4
  1000284A: C3                 ret
  1000284B: E8 E1 FE FF FF     call        10002731
  10002850: 83 45 23 02        add         dword ptr [ebp+23h],2
  10002854: C3                 ret
  10002855: 83 7D 33 40        cmp         dword ptr [ebp+33h],40h
  10002859: 75 06              jne         10002861
  1000285B: E8 48 01 00 00     call        100029A8
  10002860: C3                 ret
  10002861: 83 45 23 02        add         dword ptr [ebp+23h],2
  10002865: C3                 ret
  10002866: 83 45 23 04        add         dword ptr [ebp+23h],4
  1000286A: C3                 ret
  1000286B: 83 45 23 05        add         dword ptr [ebp+23h],5
  1000286F: C3                 ret
  10002870: 83 7D 33 40        cmp         dword ptr [ebp+33h],40h
  10002874: 75 06              jne         1000287C
  10002876: E8 2D 01 00 00     call        100029A8
  1000287B: C3                 ret
  1000287C: E8 B0 FE FF FF     call        10002731
  10002881: C3                 ret
  10002882: E8 F3 FD FF FF     call        1000267A
  10002887: 83 7D 0A 03        cmp         dword ptr [ebp+0Ah],3
  1000288B: 75 06              jne         10002893
  1000288D: E8 9F FE FF FF     call        10002731
  10002892: C3                 ret
  10002893: E8 10 01 00 00     call        100029A8
  10002898: C3                 ret
  10002899: 83 45 23 03        add         dword ptr [ebp+23h],3
  1000289D: C3                 ret
  1000289E: 83 7D 06 40        cmp         dword ptr [ebp+6],40h
  100028A2: 75 05              jne         100028A9
  100028A4: 83 45 23 09        add         dword ptr [ebp+23h],9
  100028A8: C3                 ret
  100028A9: 83 45 23 05        add         dword ptr [ebp+23h],5
  100028AD: C3                 ret
  100028AE: 83 7D 06 10        cmp         dword ptr [ebp+6],10h
  100028B2: 75 05              jne         100028B9
  100028B4: 83 45 23 03        add         dword ptr [ebp+23h],3
  100028B8: C3                 ret
  100028B9: 83 7D 06 20        cmp         dword ptr [ebp+6],20h
  100028BD: 75 05              jne         100028C4
  100028BF: 83 45 23 05        add         dword ptr [ebp+23h],5
  100028C3: C3                 ret
  100028C4: 83 45 23 09        add         dword ptr [ebp+23h],9
  100028C8: C3                 ret
  100028C9: 80 7D 00 01        cmp         byte ptr [ebp],1
  100028CD: 75 06              jne         100028D5
  100028CF: E8 5D FE FF FF     call        10002731
  100028D4: C3                 ret
  100028D5: E8 CE 00 00 00     call        100029A8
  100028DA: C3                 ret
  100028DB: 80 7D 00 01        cmp         byte ptr [ebp],1
  100028DF: 75 06              jne         100028E7
  100028E1: E8 4B FE FF FF     call        10002731
  100028E6: C3                 ret
  100028E7: 80 7D 01 01        cmp         byte ptr [ebp+1],1
  100028EB: 75 06              jne         100028F3
  100028ED: E8 3F FE FF FF     call        10002731
  100028F2: C3                 ret
  100028F3: 83 7D 02 10        cmp         dword ptr [ebp+2],10h
  100028F7: 75 06              jne         100028FF
  100028F9: E8 33 FE FF FF     call        10002731
  100028FE: C3                 ret
  100028FF: E8 A4 00 00 00     call        100029A8
  10002904: C3                 ret
  10002905: 83 7D 33 40        cmp         dword ptr [ebp+33h],40h
  10002909: 75 06              jne         10002911
  1000290B: E8 98 00 00 00     call        100029A8
  10002910: C3                 ret
  10002911: 83 7D 02 20        cmp         dword ptr [ebp+2],20h
  10002915: 75 05              jne         1000291C
  10002917: 83 45 23 07        add         dword ptr [ebp+23h],7
  1000291B: C3                 ret
  1000291C: 83 45 23 05        add         dword ptr [ebp+23h],5
  10002920: C3                 ret
  10002921: C3                 ret
  10002922: 83 7D 02 10        cmp         dword ptr [ebp+2],10h
  10002926: 74 10              je          10002938
  10002928: E8 4D FD FF FF     call        1000267A
  1000292D: 8B 45 1A           mov         eax,dword ptr [ebp+1Ah]
  10002930: 01 45 23           add         dword ptr [ebp+23h],eax
  10002933: 83 45 23 06        add         dword ptr [ebp+23h],6
  10002937: C3                 ret
  10002938: E8 3D FD FF FF     call        1000267A
  1000293D: 8B 45 1A           mov         eax,dword ptr [ebp+1Ah]
  10002940: 01 45 23           add         dword ptr [ebp+23h],eax
  10002943: 83 45 23 04        add         dword ptr [ebp+23h],4
  10002947: C3                 ret
  10002948: 83 7D 33 40        cmp         dword ptr [ebp+33h],40h
  1000294C: 75 06              jne         10002954
  1000294E: E8 55 00 00 00     call        100029A8
  10002953: C3                 ret
  10002954: 83 7D 02 20        cmp         dword ptr [ebp+2],20h
  10002958: 75 05              jne         1000295F
  1000295A: 83 45 23 07        add         dword ptr [ebp+23h],7
  1000295E: C3                 ret
  1000295F: 83 45 23 05        add         dword ptr [ebp+23h],5
  10002963: C3                 ret
  10002964: E8 78 FD FF FF     call        100026E1
  10002969: 83 7D 16 00        cmp         dword ptr [ebp+16h],0
  1000296D: 75 06              jne         10002975
  1000296F: E8 BD FD FF FF     call        10002731
  10002974: C3                 ret
  10002975: E8 2E 00 00 00     call        100029A8
  1000297A: C3                 ret
  1000297B: 83 7D 33 40        cmp         dword ptr [ebp+33h],40h
  1000297F: 75 05              jne         10002986
  10002981: 83 45 23 05        add         dword ptr [ebp+23h],5
  10002985: C3                 ret
  10002986: 83 7D 02 20        cmp         dword ptr [ebp+2],20h
  1000298A: 75 05              jne         10002991
  1000298C: 83 45 23 05        add         dword ptr [ebp+23h],5
  10002990: C3                 ret
  10002991: 83 45 23 03        add         dword ptr [ebp+23h],3
  10002995: C3                 ret
  10002996: 80 7D 00 01        cmp         byte ptr [ebp],1
  1000299A: 75 06              jne         100029A2
  1000299C: E8 90 FD FF FF     call        10002731
  100029A1: C3                 ret
  100029A2: E8 01 00 00 00     call        100029A8
  100029A7: C3                 ret
  100029A8: B8 FF FF FF FF     mov         eax,0FFFFFFFFh
  100029AD: C3                 ret
  100029AE: 83 7D 33 40        cmp         dword ptr [ebp+33h],40h
  100029B2: 75 06              jne         100029BA
  100029B4: E8 EF FF FF FF     call        100029A8
  100029B9: C3                 ret
  100029BA: E8 72 FD FF FF     call        10002731
  100029BF: 83 45 23 01        add         dword ptr [ebp+23h],1
  100029C3: C3                 ret
  100029C4: 83 7D 02 20        cmp         dword ptr [ebp+2],20h
  100029C8: 7C 0A              jl          100029D4
  100029CA: E8 62 FD FF FF     call        10002731
  100029CF: 83 45 23 04        add         dword ptr [ebp+23h],4
  100029D3: C3                 ret
  100029D4: E8 58 FD FF FF     call        10002731
  100029D9: 83 45 23 02        add         dword ptr [ebp+23h],2
  100029DD: C3                 ret
  100029DE: E8 97 FC FF FF     call        1000267A
  100029E3: E8 F9 FC FF FF     call        100026E1
  100029E8: 83 7D 16 00        cmp         dword ptr [ebp+16h],0
  100029EC: 75 0B              jne         100029F9
  100029EE: 8B 45 1A           mov         eax,dword ptr [ebp+1Ah]
  100029F1: 01 45 23           add         dword ptr [ebp+23h],eax
  100029F4: 83 45 23 03        add         dword ptr [ebp+23h],3
  100029F8: C3                 ret
  100029F9: 83 7D 16 01        cmp         dword ptr [ebp+16h],1
  100029FD: 75 06              jne         10002A05
  100029FF: E8 A4 FF FF FF     call        100029A8
  10002A04: C3                 ret
  10002A05: 8B 45 1A           mov         eax,dword ptr [ebp+1Ah]
  10002A08: 01 45 23           add         dword ptr [ebp+23h],eax
  10002A0B: 83 45 23 02        add         dword ptr [ebp+23h],2
  10002A0F: C3                 ret
  10002A10: 83 7D 02 20        cmp         dword ptr [ebp+2],20h
  10002A14: 7C 32              jl          10002A48
  10002A16: E8 5F FC FF FF     call        1000267A
  10002A1B: E8 C1 FC FF FF     call        100026E1
  10002A20: 83 7D 16 00        cmp         dword ptr [ebp+16h],0
  10002A24: 75 0B              jne         10002A31
  10002A26: 8B 45 1A           mov         eax,dword ptr [ebp+1Ah]
  10002A29: 01 45 23           add         dword ptr [ebp+23h],eax
  10002A2C: 83 45 23 06        add         dword ptr [ebp+23h],6
  10002A30: C3                 ret
  10002A31: 83 7D 16 01        cmp         dword ptr [ebp+16h],1
  10002A35: 75 06              jne         10002A3D
  10002A37: E8 6C FF FF FF     call        100029A8
  10002A3C: C3                 ret
  10002A3D: 8B 45 1A           mov         eax,dword ptr [ebp+1Ah]
  10002A40: 01 45 23           add         dword ptr [ebp+23h],eax
  10002A43: 83 45 23 02        add         dword ptr [ebp+23h],2
  10002A47: C3                 ret
  10002A48: E8 2D FC FF FF     call        1000267A
  10002A4D: E8 8F FC FF FF     call        100026E1
  10002A52: 83 7D 16 00        cmp         dword ptr [ebp+16h],0
  10002A56: 75 0B              jne         10002A63
  10002A58: 8B 45 1A           mov         eax,dword ptr [ebp+1Ah]
  10002A5B: 01 45 23           add         dword ptr [ebp+23h],eax
  10002A5E: 83 45 23 04        add         dword ptr [ebp+23h],4
  10002A62: C3                 ret
  10002A63: 83 7D 16 01        cmp         dword ptr [ebp+16h],1
  10002A67: 75 06              jne         10002A6F
  10002A69: E8 3A FF FF FF     call        100029A8
  10002A6E: C3                 ret
  10002A6F: 8B 45 1A           mov         eax,dword ptr [ebp+1Ah]
  10002A72: 01 45 23           add         dword ptr [ebp+23h],eax
  10002A75: 83 45 23 02        add         dword ptr [ebp+23h],2
  10002A79: C3                 ret
  10002A7A: E8 FB FB FF FF     call        1000267A
  10002A7F: E8 5D FC FF FF     call        100026E1
  10002A84: 83 7D 16 01        cmp         dword ptr [ebp+16h],1
  10002A88: 7E 06              jle         10002A90
  10002A8A: E8 19 FF FF FF     call        100029A8
  10002A8F: C3                 ret
  10002A90: 8B 45 1A           mov         eax,dword ptr [ebp+1Ah]
  10002A93: 01 45 23           add         dword ptr [ebp+23h],eax
  10002A96: 83 45 23 02        add         dword ptr [ebp+23h],2
  10002A9A: C3                 ret
  10002A9B: E8 41 FC FF FF     call        100026E1
  10002AA0: 83 7D 16 06        cmp         dword ptr [ebp+16h],6
  10002AA4: 7E 06              jle         10002AAC
  10002AA6: E8 FD FE FF FF     call        100029A8
  10002AAB: C3                 ret
  10002AAC: E8 C9 FB FF FF     call        1000267A
  10002AB1: 8B 45 1A           mov         eax,dword ptr [ebp+1Ah]
  10002AB4: 01 45 23           add         dword ptr [ebp+23h],eax
  10002AB7: 83 45 23 02        add         dword ptr [ebp+23h],2
  10002ABB: C3                 ret
  10002ABC: E8 B9 FB FF FF     call        1000267A
  10002AC1: E8 1B FC FF FF     call        100026E1
  10002AC6: 83 7D 16 05        cmp         dword ptr [ebp+16h],5
  10002ACA: 7E 06              jle         10002AD2
  10002ACC: E8 D7 FE FF FF     call        100029A8
  10002AD1: C3                 ret
  10002AD2: 8B 45 1A           mov         eax,dword ptr [ebp+1Ah]
  10002AD5: 01 45 23           add         dword ptr [ebp+23h],eax
  10002AD8: 83 45 23 02        add         dword ptr [ebp+23h],2
  10002ADC: C3                 ret
  10002ADD: E8 98 FB FF FF     call        1000267A
  10002AE2: E8 FA FB FF FF     call        100026E1
  10002AE7: 83 7D 16 00        cmp         dword ptr [ebp+16h],0
  10002AEB: 75 1A              jne         10002B07
  10002AED: 83 7D 0A 03        cmp         dword ptr [ebp+0Ah],3
  10002AF1: 0F 85 A4 00 00 00  jne         10002B9B
  10002AF7: 83 7D 0E 04        cmp         dword ptr [ebp+0Eh],4
  10002AFB: 0F 8E 9A 00 00 00  jle         10002B9B
  10002B01: E8 A2 FE FF FF     call        100029A8
  10002B06: C3                 ret
  10002B07: 83 7D 16 01        cmp         dword ptr [ebp+16h],1
  10002B0B: 75 16              jne         10002B23
  10002B0D: 83 7D 0A 03        cmp         dword ptr [ebp+0Ah],3
  10002B11: 0F 85 84 00 00 00  jne         10002B9B
  10002B17: 83 7D 0E 01        cmp         dword ptr [ebp+0Eh],1
  10002B1B: 7E 7E              jle         10002B9B
  10002B1D: E8 86 FE FF FF     call        100029A8
  10002B22: C3                 ret
  10002B23: 83 7D 16 02        cmp         dword ptr [ebp+16h],2
  10002B27: 75 0C              jne         10002B35
  10002B29: 83 7D 0A 03        cmp         dword ptr [ebp+0Ah],3
  10002B2D: 75 6C              jne         10002B9B
  10002B2F: E8 74 FE FF FF     call        100029A8
  10002B34: C3                 ret
  10002B35: 83 7D 16 03        cmp         dword ptr [ebp+16h],3
  10002B39: 75 0C              jne         10002B47
  10002B3B: 83 7D 0A 03        cmp         dword ptr [ebp+0Ah],3
  10002B3F: 75 5A              jne         10002B9B
  10002B41: E8 62 FE FF FF     call        100029A8
  10002B46: C3                 ret
  10002B47: 83 7D 16 04        cmp         dword ptr [ebp+16h],4
  10002B4B: 75 0C              jne         10002B59
  10002B4D: 83 7D 0A 03        cmp         dword ptr [ebp+0Ah],3
  10002B51: 75 48              jne         10002B9B
  10002B53: E8 50 FE FF FF     call        100029A8
  10002B58: C3                 ret
  10002B59: 83 7D 16 05        cmp         dword ptr [ebp+16h],5
  10002B5D: 75 06              jne         10002B65
  10002B5F: E8 44 FE FF FF     call        100029A8
  10002B64: C3                 ret
  10002B65: 83 7D 16 06        cmp         dword ptr [ebp+16h],6
  10002B69: 75 0C              jne         10002B77
  10002B6B: 83 7D 0A 03        cmp         dword ptr [ebp+0Ah],3
  10002B6F: 75 2A              jne         10002B9B
  10002B71: E8 32 FE FF FF     call        100029A8
  10002B76: C3                 ret
  10002B77: 83 7D 16 07        cmp         dword ptr [ebp+16h],7
  10002B7B: 75 1E              jne         10002B9B
  10002B7D: 83 7D 0A 03        cmp         dword ptr [ebp+0Ah],3
  10002B81: 75 18              jne         10002B9B
  10002B83: 83 7D 33 40        cmp         dword ptr [ebp+33h],40h
  10002B87: 75 0C              jne         10002B95
  10002B89: 83 7D 0E 00        cmp         dword ptr [ebp+0Eh],0
  10002B8D: 74 0C              je          10002B9B
  10002B8F: E8 14 FE FF FF     call        100029A8
  10002B94: C3                 ret
  10002B95: E8 0E FE FF FF     call        100029A8
  10002B9A: C3                 ret
  10002B9B: 8B 45 1A           mov         eax,dword ptr [ebp+1Ah]
  10002B9E: 01 45 23           add         dword ptr [ebp+23h],eax
  10002BA1: 83 45 23 02        add         dword ptr [ebp+23h],2
  10002BA5: C3                 ret
  10002BA6: E8 CF FA FF FF     call        1000267A
  10002BAB: E8 31 FB FF FF     call        100026E1
  10002BB0: 83 7D 16 04        cmp         dword ptr [ebp+16h],4
  10002BB4: 7D 06              jge         10002BBC
  10002BB6: E8 ED FD FF FF     call        100029A8
  10002BBB: C3                 ret
  10002BBC: 8B 45 1A           mov         eax,dword ptr [ebp+1Ah]
  10002BBF: 01 45 23           add         dword ptr [ebp+23h],eax
  10002BC2: 83 45 23 03        add         dword ptr [ebp+23h],3
  10002BC6: C3                 ret
  10002BC7: E8 AE FA FF FF     call        1000267A
  10002BCC: E8 10 FB FF FF     call        100026E1
  10002BD1: 83 7D 16 00        cmp         dword ptr [ebp+16h],0
  10002BD5: 75 06              jne         10002BDD
  10002BD7: E8 CC FD FF FF     call        100029A8
  10002BDC: C3                 ret
  10002BDD: 83 7D 16 02        cmp         dword ptr [ebp+16h],2
  10002BE1: 75 06              jne         10002BE9
  10002BE3: E8 C0 FD FF FF     call        100029A8
  10002BE8: C3                 ret
  10002BE9: 83 7D 16 03        cmp         dword ptr [ebp+16h],3
  10002BED: 75 06              jne         10002BF5
  10002BEF: E8 B4 FD FF FF     call        100029A8
  10002BF4: C3                 ret
  10002BF5: 83 7D 16 04        cmp         dword ptr [ebp+16h],4
  10002BF9: 75 06              jne         10002C01
  10002BFB: E8 A8 FD FF FF     call        100029A8
  10002C00: C3                 ret
  10002C01: 83 7D 16 05        cmp         dword ptr [ebp+16h],5
  10002C05: 75 06              jne         10002C0D
  10002C07: E8 9C FD FF FF     call        100029A8
  10002C0C: C3                 ret
  10002C0D: 83 7D 16 07        cmp         dword ptr [ebp+16h],7
  10002C11: 7E 06              jle         10002C19
  10002C13: E8 90 FD FF FF     call        100029A8
  10002C18: C3                 ret
  10002C19: 8B 45 1A           mov         eax,dword ptr [ebp+1Ah]
  10002C1C: 01 45 23           add         dword ptr [ebp+23h],eax
  10002C1F: 83 45 23 02        add         dword ptr [ebp+23h],2
  10002C23: C3                 ret
  10002C24: E8 B8 FA FF FF     call        100026E1
  10002C29: 83 7D 16 00        cmp         dword ptr [ebp+16h],0
  10002C2D: 75 06              jne         10002C35
  10002C2F: E8 74 FD FF FF     call        100029A8
  10002C34: C3                 ret
  10002C35: 83 7D 16 01        cmp         dword ptr [ebp+16h],1
  10002C39: 75 06              jne         10002C41
  10002C3B: E8 68 FD FF FF     call        100029A8
  10002C40: C3                 ret
  10002C41: 83 7D 16 02        cmp         dword ptr [ebp+16h],2
  10002C45: 75 11              jne         10002C58
  10002C47: E8 2E FA FF FF     call        1000267A
  10002C4C: 83 7D 0A 03        cmp         dword ptr [ebp+0Ah],3
  10002C50: 74 52              je          10002CA4
  10002C52: E8 51 FD FF FF     call        100029A8
  10002C57: C3                 ret
  10002C58: 83 7D 16 03        cmp         dword ptr [ebp+16h],3
  10002C5C: 75 06              jne         10002C64
  10002C5E: E8 45 FD FF FF     call        100029A8
  10002C63: C3                 ret
  10002C64: 83 7D 16 04        cmp         dword ptr [ebp+16h],4
  10002C68: 75 11              jne         10002C7B
  10002C6A: E8 0B FA FF FF     call        1000267A
  10002C6F: 83 7D 0A 03        cmp         dword ptr [ebp+0Ah],3
  10002C73: 74 2F              je          10002CA4
  10002C75: E8 2E FD FF FF     call        100029A8
  10002C7A: C3                 ret
  10002C7B: 83 7D 16 05        cmp         dword ptr [ebp+16h],5
  10002C7F: 75 06              jne         10002C87
  10002C81: E8 22 FD FF FF     call        100029A8
  10002C86: C3                 ret
  10002C87: 83 7D 16 06        cmp         dword ptr [ebp+16h],6
  10002C8B: 75 11              jne         10002C9E
  10002C8D: E8 E8 F9 FF FF     call        1000267A
  10002C92: 83 7D 0A 03        cmp         dword ptr [ebp+0Ah],3
  10002C96: 74 0C              je          10002CA4
  10002C98: E8 0B FD FF FF     call        100029A8
  10002C9D: C3                 ret
  10002C9E: E8 05 FD FF FF     call        100029A8
  10002CA3: C3                 ret
  10002CA4: 8B 45 1A           mov         eax,dword ptr [ebp+1Ah]
  10002CA7: 01 45 23           add         dword ptr [ebp+23h],eax
  10002CAA: 83 45 23 03        add         dword ptr [ebp+23h],3
  10002CAE: C3                 ret
  10002CAF: E8 2D FA FF FF     call        100026E1
  10002CB4: 83 7D 16 00        cmp         dword ptr [ebp+16h],0
  10002CB8: 75 06              jne         10002CC0
  10002CBA: E8 E9 FC FF FF     call        100029A8
  10002CBF: C3                 ret
  10002CC0: 83 7D 16 01        cmp         dword ptr [ebp+16h],1
  10002CC4: 75 06              jne         10002CCC
  10002CC6: E8 DD FC FF FF     call        100029A8
  10002CCB: C3                 ret
  10002CCC: 83 7D 16 02        cmp         dword ptr [ebp+16h],2
  10002CD0: 75 11              jne         10002CE3
  10002CD2: E8 A3 F9 FF FF     call        1000267A
  10002CD7: 83 7D 0A 03        cmp         dword ptr [ebp+0Ah],3
  10002CDB: 74 52              je          10002D2F
  10002CDD: E8 C6 FC FF FF     call        100029A8
  10002CE2: C3                 ret
  10002CE3: 83 7D 16 03        cmp         dword ptr [ebp+16h],3
  10002CE7: 75 06              jne         10002CEF
  10002CE9: E8 BA FC FF FF     call        100029A8
  10002CEE: C3                 ret
  10002CEF: 83 7D 16 04        cmp         dword ptr [ebp+16h],4
  10002CF3: 75 11              jne         10002D06
  10002CF5: E8 80 F9 FF FF     call        1000267A
  10002CFA: 83 7D 0A 03        cmp         dword ptr [ebp+0Ah],3
  10002CFE: 74 2F              je          10002D2F
  10002D00: E8 A3 FC FF FF     call        100029A8
  10002D05: C3                 ret
  10002D06: 83 7D 16 05        cmp         dword ptr [ebp+16h],5
  10002D0A: 75 06              jne         10002D12
  10002D0C: E8 97 FC FF FF     call        100029A8
  10002D11: C3                 ret
  10002D12: 83 7D 16 06        cmp         dword ptr [ebp+16h],6
  10002D16: 75 11              jne         10002D29
  10002D18: E8 5D F9 FF FF     call        1000267A
  10002D1D: 83 7D 0A 03        cmp         dword ptr [ebp+0Ah],3
  10002D21: 74 0C              je          10002D2F
  10002D23: E8 80 FC FF FF     call        100029A8
  10002D28: C3                 ret
  10002D29: E8 7A FC FF FF     call        100029A8
  10002D2E: C3                 ret
  10002D2F: 8B 45 1A           mov         eax,dword ptr [ebp+1Ah]
  10002D32: 01 45 23           add         dword ptr [ebp+23h],eax
  10002D35: 83 45 23 03        add         dword ptr [ebp+23h],3
  10002D39: C3                 ret
  10002D3A: E8 A2 F9 FF FF     call        100026E1
  10002D3F: 83 7D 16 00        cmp         dword ptr [ebp+16h],0
  10002D43: 75 06              jne         10002D4B
  10002D45: E8 5E FC FF FF     call        100029A8
  10002D4A: C3                 ret
  10002D4B: 83 7D 16 01        cmp         dword ptr [ebp+16h],1
  10002D4F: 75 06              jne         10002D57
  10002D51: E8 52 FC FF FF     call        100029A8
  10002D56: C3                 ret
  10002D57: 83 7D 16 02        cmp         dword ptr [ebp+16h],2
  10002D5B: 75 11              jne         10002D6E
  10002D5D: E8 18 F9 FF FF     call        1000267A
  10002D62: 83 7D 0A 03        cmp         dword ptr [ebp+0Ah],3
  10002D66: 74 7B              je          10002DE3
  10002D68: E8 3B FC FF FF     call        100029A8
  10002D6D: C3                 ret
  10002D6E: 83 7D 16 03        cmp         dword ptr [ebp+16h],3
  10002D72: 75 1D              jne         10002D91
  10002D74: 83 7D 02 10        cmp         dword ptr [ebp+2],10h
  10002D78: 75 11              jne         10002D8B
  10002D7A: E8 FB F8 FF FF     call        1000267A
  10002D7F: 83 7D 0A 03        cmp         dword ptr [ebp+0Ah],3
  10002D83: 74 5E              je          10002DE3
  10002D85: E8 1E FC FF FF     call        100029A8
  10002D8A: C3                 ret
  10002D8B: E8 18 FC FF FF     call        100029A8
  10002D90: C3                 ret
  10002D91: 83 7D 16 04        cmp         dword ptr [ebp+16h],4
  10002D95: 75 06              jne         10002D9D
  10002D97: E8 0C FC FF FF     call        100029A8
  10002D9C: C3                 ret
  10002D9D: 83 7D 16 05        cmp         dword ptr [ebp+16h],5
  10002DA1: 75 06              jne         10002DA9
  10002DA3: E8 00 FC FF FF     call        100029A8
  10002DA8: C3                 ret
  10002DA9: 83 7D 16 06        cmp         dword ptr [ebp+16h],6
  10002DAD: 75 11              jne         10002DC0
  10002DAF: E8 C6 F8 FF FF     call        1000267A
  10002DB4: 83 7D 0A 03        cmp         dword ptr [ebp+0Ah],3
  10002DB8: 74 29              je          10002DE3
  10002DBA: E8 E9 FB FF FF     call        100029A8
  10002DBF: C3                 ret
  10002DC0: 83 7D 16 07        cmp         dword ptr [ebp+16h],7
  10002DC4: 75 17              jne         10002DDD
  10002DC6: 83 7D 02 10        cmp         dword ptr [ebp+2],10h
  10002DCA: 75 11              jne         10002DDD
  10002DCC: E8 A9 F8 FF FF     call        1000267A
  10002DD1: 83 7D 0A 03        cmp         dword ptr [ebp+0Ah],3
  10002DD5: 74 0C              je          10002DE3
  10002DD7: E8 CC FB FF FF     call        100029A8
  10002DDC: C3                 ret
  10002DDD: E8 C6 FB FF FF     call        100029A8
  10002DE2: C3                 ret
  10002DE3: 8B 45 1A           mov         eax,dword ptr [ebp+1Ah]
  10002DE6: 01 45 23           add         dword ptr [ebp+23h],eax
  10002DE9: 83 45 23 03        add         dword ptr [ebp+23h],3
  10002DED: C3                 ret
  10002DEE: E8 EE F8 FF FF     call        100026E1
  10002DF3: 83 7D 16 00        cmp         dword ptr [ebp+16h],0
  10002DF7: 75 15              jne         10002E0E
  10002DF9: E8 7C F8 FF FF     call        1000267A
  10002DFE: 83 7D 0A 03        cmp         dword ptr [ebp+0Ah],3
  10002E02: 0F 85 9C 00 00 00  jne         10002EA4
  10002E08: E8 9B FB FF FF     call        100029A8
  10002E0D: C3                 ret
  10002E0E: 83 7D 16 01        cmp         dword ptr [ebp+16h],1
  10002E12: 75 15              jne         10002E29
  10002E14: E8 61 F8 FF FF     call        1000267A
  10002E19: 83 7D 0A 03        cmp         dword ptr [ebp+0Ah],3
  10002E1D: 0F 85 81 00 00 00  jne         10002EA4
  10002E23: E8 80 FB FF FF     call        100029A8
  10002E28: C3                 ret
  10002E29: 83 7D 16 02        cmp         dword ptr [ebp+16h],2
  10002E2D: 75 11              jne         10002E40
  10002E2F: E8 46 F8 FF FF     call        1000267A
  10002E34: 83 7D 0A 03        cmp         dword ptr [ebp+0Ah],3
  10002E38: 75 6A              jne         10002EA4
  10002E3A: E8 69 FB FF FF     call        100029A8
  10002E3F: C3                 ret
  10002E40: 83 7D 16 03        cmp         dword ptr [ebp+16h],3
  10002E44: 75 11              jne         10002E57
  10002E46: E8 2F F8 FF FF     call        1000267A
  10002E4B: 83 7D 0A 03        cmp         dword ptr [ebp+0Ah],3
  10002E4F: 75 53              jne         10002EA4
  10002E51: E8 52 FB FF FF     call        100029A8
  10002E56: C3                 ret
  10002E57: 83 7D 16 04        cmp         dword ptr [ebp+16h],4
  10002E5B: 75 06              jne         10002E63
  10002E5D: E8 46 FB FF FF     call        100029A8
  10002E62: C3                 ret
  10002E63: 83 7D 16 05        cmp         dword ptr [ebp+16h],5
  10002E67: 75 11              jne         10002E7A
  10002E69: E8 0C F8 FF FF     call        1000267A
  10002E6E: 83 7D 0A 03        cmp         dword ptr [ebp+0Ah],3
  10002E72: 75 30              jne         10002EA4
  10002E74: E8 2F FB FF FF     call        100029A8
  10002E79: C3                 ret
  10002E7A: 83 7D 16 06        cmp         dword ptr [ebp+16h],6
  10002E7E: 75 11              jne         10002E91
  10002E80: E8 F5 F7 FF FF     call        1000267A
  10002E85: 83 7D 0A 03        cmp         dword ptr [ebp+0Ah],3
  10002E89: 75 19              jne         10002EA4
  10002E8B: E8 18 FB FF FF     call        100029A8
  10002E90: C3                 ret
  10002E91: 83 7D 16 07        cmp         dword ptr [ebp+16h],7
  10002E95: 7F 07              jg          10002E9E
  10002E97: E8 DE F7 FF FF     call        1000267A
  10002E9C: EB 06              jmp         10002EA4
  10002E9E: E8 05 FB FF FF     call        100029A8
  10002EA3: C3                 ret
  10002EA4: 8B 45 1A           mov         eax,dword ptr [ebp+1Ah]
  10002EA7: 01 45 23           add         dword ptr [ebp+23h],eax
  10002EAA: 83 45 23 02        add         dword ptr [ebp+23h],2
  10002EAE: C3                 ret
  10002EAF: E8 2D F8 FF FF     call        100026E1
  10002EB4: 83 7D 16 00        cmp         dword ptr [ebp+16h],0
  10002EB8: 75 11              jne         10002ECB
  10002EBA: E8 BB F7 FF FF     call        1000267A
  10002EBF: 83 7D 0A 03        cmp         dword ptr [ebp+0Ah],3
  10002EC3: 75 51              jne         10002F16
  10002EC5: E8 DE FA FF FF     call        100029A8
  10002ECA: C3                 ret
  10002ECB: 83 7D 16 01        cmp         dword ptr [ebp+16h],1
  10002ECF: 75 11              jne         10002EE2
  10002ED1: E8 A4 F7 FF FF     call        1000267A
  10002ED6: 83 7D 0A 03        cmp         dword ptr [ebp+0Ah],3
  10002EDA: 75 3A              jne         10002F16
  10002EDC: E8 C7 FA FF FF     call        100029A8
  10002EE1: C3                 ret
  10002EE2: 83 7D 16 02        cmp         dword ptr [ebp+16h],2
  10002EE6: 75 11              jne         10002EF9
  10002EE8: E8 8D F7 FF FF     call        1000267A
  10002EED: 83 7D 0A 03        cmp         dword ptr [ebp+0Ah],3
  10002EF1: 75 23              jne         10002F16
  10002EF3: E8 B0 FA FF FF     call        100029A8
  10002EF8: C3                 ret
  10002EF9: 83 7D 16 03        cmp         dword ptr [ebp+16h],3
  10002EFD: 75 11              jne         10002F10
  10002EFF: E8 76 F7 FF FF     call        1000267A
  10002F04: 83 7D 0A 03        cmp         dword ptr [ebp+0Ah],3
  10002F08: 75 0C              jne         10002F16
  10002F0A: E8 99 FA FF FF     call        100029A8
  10002F0F: C3                 ret
  10002F10: E8 93 FA FF FF     call        100029A8
  10002F15: C3                 ret
  10002F16: 8B 45 1A           mov         eax,dword ptr [ebp+1Ah]
  10002F19: 01 45 23           add         dword ptr [ebp+23h],eax
  10002F1C: 83 45 23 02        add         dword ptr [ebp+23h],2
  10002F20: C3                 ret
  10002F21: FF 45 23           inc         dword ptr [ebp+23h]
  10002F24: C7 45 02 10 00 00  mov         dword ptr [ebp+2],10h
            00
  10002F2B: FE 45 22           inc         byte ptr [ebp+22h]
  10002F2E: 80 7D 22 0F        cmp         byte ptr [ebp+22h],0Fh
  10002F32: 75 06              jne         10002F3A
  10002F34: E8 6F FA FF FF     call        100029A8
  10002F39: C3                 ret
  10002F3A: 8B 45 23           mov         eax,dword ptr [ebp+23h]
  10002F3D: 0F B6 08           movzx       ecx,byte ptr [eax]
  10002F40: 8B C1              mov         eax,ecx
  10002F42: B9 05 00 00 00     mov         ecx,5
  10002F47: F7 E1              mul         eax,ecx
  10002F49: 03 C6              add         eax,esi
  10002F4B: FF D0              call        eax
  10002F4D: C7 45 02 20 00 00  mov         dword ptr [ebp+2],20h
            00
  10002F54: C3                 ret
  10002F55: FF 45 23           inc         dword ptr [ebp+23h]
  10002F58: FE 45 22           inc         byte ptr [ebp+22h]
  10002F5B: 80 7D 22 0F        cmp         byte ptr [ebp+22h],0Fh
  10002F5F: 75 06              jne         10002F67
  10002F61: E8 42 FA FF FF     call        100029A8
  10002F66: C3                 ret
  10002F67: 8B 4D 06           mov         ecx,dword ptr [ebp+6]
  10002F6A: D1 E9              shr         ecx,1
  10002F6C: 89 5D 06           mov         dword ptr [ebp+6],ebx
  10002F6F: 8B 45 23           mov         eax,dword ptr [ebp+23h]
  10002F72: 0F B6 08           movzx       ecx,byte ptr [eax]
  10002F75: 8B C1              mov         eax,ecx
  10002F77: B9 05 00 00 00     mov         ecx,5
  10002F7C: F7 E1              mul         eax,ecx
  10002F7E: 03 C6              add         eax,esi
  10002F80: FF D0              call        eax
  10002F82: 8B 5D 06           mov         ebx,dword ptr [ebp+6]
  10002F85: D1 E1              shl         ecx,1
  10002F87: 89 4D 06           mov         dword ptr [ebp+6],ecx
  10002F8A: C3                 ret
  10002F8B: FF 45 23           inc         dword ptr [ebp+23h]
  10002F8E: FE 45 22           inc         byte ptr [ebp+22h]
  10002F91: 80 7D 22 0F        cmp         byte ptr [ebp+22h],0Fh
  10002F95: 75 06              jne         10002F9D
  10002F97: E8 0C FA FF FF     call        100029A8
  10002F9C: C3                 ret
  10002F9D: 8B 45 23           mov         eax,dword ptr [ebp+23h]
  10002FA0: 0F B6 00           movzx       eax,byte ptr [eax]
  10002FA3: 3C A4              cmp         al,0A4h
  10002FA5: 74 12              je          10002FB9
  10002FA7: 3C A7              cmp         al,0A7h
  10002FA9: 74 0E              je          10002FB9
  10002FAB: 3C AE              cmp         al,0AEh
  10002FAD: 74 0A              je          10002FB9
  10002FAF: 3C AF              cmp         al,0AFh
  10002FB1: 74 06              je          10002FB9
  10002FB3: 3C 0F              cmp         al,0Fh
  10002FB5: 74 02              je          10002FB9
  10002FB7: EB 04              jmp         10002FBD
  10002FB9: C6 45 00 01        mov         byte ptr [ebp],1
  10002FBD: 8B 45 23           mov         eax,dword ptr [ebp+23h]
  10002FC0: 0F B6 08           movzx       ecx,byte ptr [eax]
  10002FC3: 8B C1              mov         eax,ecx
  10002FC5: B9 05 00 00 00     mov         ecx,5
  10002FCA: F7 E1              mul         eax,ecx
  10002FCC: 03 C6              add         eax,esi
  10002FCE: FF D0              call        eax
  10002FD0: C6 45 00 00        mov         byte ptr [ebp],0
  10002FD4: C3                 ret
  10002FD5: FF 45 23           inc         dword ptr [ebp+23h]
  10002FD8: FE 45 22           inc         byte ptr [ebp+22h]
  10002FDB: 80 7D 22 0F        cmp         byte ptr [ebp+22h],0Fh
  10002FDF: 75 06              jne         10002FE7
  10002FE1: E8 C2 F9 FF FF     call        100029A8
  10002FE6: C3                 ret
  10002FE7: 8B 45 23           mov         eax,dword ptr [ebp+23h]
  10002FEA: 0F B6 00           movzx       eax,byte ptr [eax]
  10002FED: 3C 90              cmp         al,90h
  10002FEF: 74 3E              je          1000302F
  10002FF1: 3C A4              cmp         al,0A4h
  10002FF3: 74 3A              je          1000302F
  10002FF5: 3C A5              cmp         al,0A5h
  10002FF7: 74 36              je          1000302F
  10002FF9: 3C A6              cmp         al,0A6h
  10002FFB: 74 32              je          1000302F
  10002FFD: 3C A7              cmp         al,0A7h
  10002FFF: 74 2E              je          1000302F
  10003001: 3C AA              cmp         al,0AAh
  10003003: 74 2A              je          1000302F
  10003005: 3C AB              cmp         al,0ABh
  10003007: 74 26              je          1000302F
  10003009: 3C AC              cmp         al,0ACh
  1000300B: 74 22              je          1000302F
  1000300D: 3C AD              cmp         al,0ADh
  1000300F: 74 1E              je          1000302F
  10003011: 3C AE              cmp         al,0AEh
  10003013: 74 1A              je          1000302F
  10003015: 3C AF              cmp         al,0AFh
  10003017: 74 16              je          1000302F
  10003019: 3C 6C              cmp         al,6Ch
  1000301B: 74 12              je          1000302F
  1000301D: 3C 6D              cmp         al,6Dh
  1000301F: 74 0E              je          1000302F
  10003021: 3C 6E              cmp         al,6Eh
  10003023: 74 0A              je          1000302F
  10003025: 3C 6F              cmp         al,6Fh
  10003027: 74 06              je          1000302F
  10003029: 3C 0F              cmp         al,0Fh
  1000302B: 74 02              je          1000302F
  1000302D: EB 04              jmp         10003033
  1000302F: C6 45 01 01        mov         byte ptr [ebp+1],1
  10003033: 8B 45 23           mov         eax,dword ptr [ebp+23h]
  10003036: 0F B6 08           movzx       ecx,byte ptr [eax]
  10003039: 8B C1              mov         eax,ecx
  1000303B: B9 05 00 00 00     mov         ecx,5
  10003040: F7 E1              mul         eax,ecx
  10003042: 03 C6              add         eax,esi
  10003044: FF D0              call        eax
  10003046: C6 45 01 00        mov         byte ptr [ebp+1],0
  1000304A: C3                 ret
  1000304B: FF 45 23           inc         dword ptr [ebp+23h]
  1000304E: FE 45 22           inc         byte ptr [ebp+22h]
  10003051: 80 7D 22 0F        cmp         byte ptr [ebp+22h],0Fh
  10003055: 75 06              jne         1000305D
  10003057: E8 4C F9 FF FF     call        100029A8
  1000305C: C3                 ret
  1000305D: 8B 45 23           mov         eax,dword ptr [ebp+23h]
  10003060: 0F B6 08           movzx       ecx,byte ptr [eax]
  10003063: 8B C1              mov         eax,ecx
  10003065: B9 05 00 00 00     mov         ecx,5
  1000306A: F7 E1              mul         eax,ecx
  1000306C: 03 C6              add         eax,esi
  1000306E: 05 00 05 00 00     add         eax,500h
  10003073: FF D0              call        eax
  10003075: C3                 ret
  10003076: FF 45 23           inc         dword ptr [ebp+23h]
  10003079: FE 45 22           inc         byte ptr [ebp+22h]
  1000307C: 80 7D 22 0F        cmp         byte ptr [ebp+22h],0Fh
  10003080: 75 06              jne         10003088
  10003082: E8 21 F9 FF FF     call        100029A8
  10003087: C3                 ret
  10003088: 8B 45 23           mov         eax,dword ptr [ebp+23h]
  1000308B: 0F B6 08           movzx       ecx,byte ptr [eax]
  1000308E: 8B C1              mov         eax,ecx
  10003090: B9 05 00 00 00     mov         ecx,5
  10003095: F7 E1              mul         eax,ecx
  10003097: 03 C6              add         eax,esi
  10003099: 05 00 0A 00 00     add         eax,0A00h
  1000309E: FF D0              call        eax
  100030A0: C3                 ret
  100030A1: FF 45 23           inc         dword ptr [ebp+23h]
  100030A4: FE 45 22           inc         byte ptr [ebp+22h]
  100030A7: 80 7D 22 0F        cmp         byte ptr [ebp+22h],0Fh
  100030AB: 75 06              jne         100030B3
  100030AD: E8 F6 F8 FF FF     call        100029A8
  100030B2: C3                 ret
  100030B3: 8B 45 23           mov         eax,dword ptr [ebp+23h]
  100030B6: 0F B6 08           movzx       ecx,byte ptr [eax]
  100030B9: 8B C1              mov         eax,ecx
  100030BB: B9 05 00 00 00     mov         ecx,5
  100030C0: F7 E1              mul         eax,ecx
  100030C2: 03 C6              add         eax,esi
  100030C4: 05 00 0F 00 00     add         eax,0F00h
  100030C9: FF D0              call        eax
  100030CB: C3                 ret
  100030CC: C7 45 1A 00 00 00  mov         dword ptr [ebp+1Ah],0
            00
  100030D3: 8B 45 23           mov         eax,dword ptr [ebp+23h]
  100030D6: 0F B6 40 01        movzx       eax,byte ptr [eax+1]
  100030DA: 3D BF 00 00 00     cmp         eax,0BFh
  100030DF: 7F 11              jg          100030F2
  100030E1: E8 FB F5 FF FF     call        100026E1
  100030E6: 83 7D 16 07        cmp         dword ptr [ebp+16h],7
  100030EA: 7E 06              jle         100030F2
  100030EC: E8 B7 F8 FF FF     call        100029A8
  100030F1: C3                 ret
  100030F2: E8 83 F5 FF FF     call        1000267A
  100030F7: 8B 45 1A           mov         eax,dword ptr [ebp+1Ah]
  100030FA: 01 45 23           add         dword ptr [ebp+23h],eax
  100030FD: 83 45 23 02        add         dword ptr [ebp+23h],2
  10003101: C3                 ret
  10003102: C7 45 1A 00 00 00  mov         dword ptr [ebp+1Ah],0
            00
  10003109: 8B 45 23           mov         eax,dword ptr [ebp+23h]
  1000310C: 0F B6 40 01        movzx       eax,byte ptr [eax+1]
  10003110: 3D BF 00 00 00     cmp         eax,0BFh
  10003115: 7F 17              jg          1000312E
  10003117: E8 C5 F5 FF FF     call        100026E1
  1000311C: 83 7D 16 01        cmp         dword ptr [ebp+16h],1
  10003120: 75 69              jne         1000318B
  10003122: 83 7D 16 07        cmp         dword ptr [ebp+16h],7
  10003126: 7E 63              jle         1000318B
  10003128: E8 7B F8 FF FF     call        100029A8
  1000312D: C3                 ret
  1000312E: 3D C0 00 00 00     cmp         eax,0C0h
  10003133: 7C 56              jl          1000318B
  10003135: 8B D0              mov         edx,eax
  10003137: C1 EA 04           shr         edx,4
  1000313A: 8B C8              mov         ecx,eax
  1000313C: 83 E1 0F           and         ecx,0Fh
  1000313F: 83 FA 0D           cmp         edx,0Dh
  10003142: 75 0B              jne         1000314F
  10003144: 83 F9 00           cmp         ecx,0
  10003147: 74 42              je          1000318B
  10003149: E8 5A F8 FF FF     call        100029A8
  1000314E: C3                 ret
  1000314F: 83 FA 0E           cmp         edx,0Eh
  10003152: 75 37              jne         1000318B
  10003154: 83 F9 02           cmp         ecx,2
  10003157: 75 06              jne         1000315F
  10003159: E8 4A F8 FF FF     call        100029A8
  1000315E: C3                 ret
  1000315F: 83 F9 03           cmp         ecx,3
  10003162: 75 06              jne         1000316A
  10003164: E8 3F F8 FF FF     call        100029A8
  10003169: C3                 ret
  1000316A: 83 F9 06           cmp         ecx,6
  1000316D: 75 06              jne         10003175
  1000316F: E8 34 F8 FF FF     call        100029A8
  10003174: C3                 ret
  10003175: 83 F9 07           cmp         ecx,7
  10003178: 75 06              jne         10003180
  1000317A: E8 29 F8 FF FF     call        100029A8
  1000317F: C3                 ret
  10003180: 83 F9 0F           cmp         ecx,0Fh
  10003183: 75 06              jne         1000318B
  10003185: E8 1E F8 FF FF     call        100029A8
  1000318A: C3                 ret
  1000318B: E8 EA F4 FF FF     call        1000267A
  10003190: 8B 45 1A           mov         eax,dword ptr [ebp+1Ah]
  10003193: 01 45 23           add         dword ptr [ebp+23h],eax
  10003196: 83 45 23 02        add         dword ptr [ebp+23h],2
  1000319A: C3                 ret
  1000319B: C7 45 1A 00 00 00  mov         dword ptr [ebp+1Ah],0
            00
  100031A2: 8B 45 23           mov         eax,dword ptr [ebp+23h]
  100031A5: 0F B6 40 01        movzx       eax,byte ptr [eax+1]
  100031A9: 3D BF 00 00 00     cmp         eax,0BFh
  100031AE: 7F 11              jg          100031C1
  100031B0: E8 2C F5 FF FF     call        100026E1
  100031B5: 83 7D 16 07        cmp         dword ptr [ebp+16h],7
  100031B9: 7E 32              jle         100031ED
  100031BB: E8 E8 F7 FF FF     call        100029A8
  100031C0: C3                 ret
  100031C1: 3D C0 00 00 00     cmp         eax,0C0h
  100031C6: 7C 25              jl          100031ED
  100031C8: 8B D0              mov         edx,eax
  100031CA: C1 EA 04           shr         edx,4
  100031CD: 8B C8              mov         ecx,eax
  100031CF: 83 E1 0F           and         ecx,0Fh
  100031D2: 83 FA 0E           cmp         edx,0Eh
  100031D5: 75 0B              jne         100031E2
  100031D7: 83 F9 09           cmp         ecx,9
  100031DA: 74 11              je          100031ED
  100031DC: E8 C7 F7 FF FF     call        100029A8
  100031E1: C3                 ret
  100031E2: 83 FA 0F           cmp         edx,0Fh
  100031E5: 75 06              jne         100031ED
  100031E7: E8 BC F7 FF FF     call        100029A8
  100031EC: C3                 ret
  100031ED: E8 88 F4 FF FF     call        1000267A
  100031F2: 8B 45 1A           mov         eax,dword ptr [ebp+1Ah]
  100031F5: 01 45 23           add         dword ptr [ebp+23h],eax
  100031F8: 83 45 23 02        add         dword ptr [ebp+23h],2
  100031FC: C3                 ret
  100031FD: C7 45 1A 00 00 00  mov         dword ptr [ebp+1Ah],0
            00
  10003204: 8B 45 23           mov         eax,dword ptr [ebp+23h]
  10003207: 0F B6 40 01        movzx       eax,byte ptr [eax+1]
  1000320B: 3D BF 00 00 00     cmp         eax,0BFh
  10003210: 7F 1F              jg          10003231
  10003212: E8 CA F4 FF FF     call        100026E1
  10003217: 83 7D 16 04        cmp         dword ptr [ebp+16h],4
  1000321B: 74 0E              je          1000322B
  1000321D: 83 7D 16 06        cmp         dword ptr [ebp+16h],6
  10003221: 74 08              je          1000322B
  10003223: 83 7D 16 07        cmp         dword ptr [ebp+16h],7
  10003227: 7F 02              jg          1000322B
  10003229: EB 41              jmp         1000326C
  1000322B: E8 78 F7 FF FF     call        100029A8
  10003230: C3                 ret
  10003231: 3D C0 00 00 00     cmp         eax,0C0h
  10003236: 7C 34              jl          1000326C
  10003238: 8B D0              mov         edx,eax
  1000323A: C1 EA 04           shr         edx,4
  1000323D: 8B C8              mov         ecx,eax
  1000323F: 83 E1 0F           and         ecx,0Fh
  10003242: 83 FA 0E           cmp         edx,0Eh
  10003245: 75 15              jne         1000325C
  10003247: 83 F9 08           cmp         ecx,8
  1000324A: 7D 20              jge         1000326C
  1000324C: 83 F9 03           cmp         ecx,3
  1000324F: 74 1B              je          1000326C
  10003251: 83 F9 02           cmp         ecx,2
  10003254: 74 16              je          1000326C
  10003256: E8 4D F7 FF FF     call        100029A8
  1000325B: C3                 ret
  1000325C: 83 FA 0F           cmp         edx,0Fh
  1000325F: 75 0B              jne         1000326C
  10003261: 83 F9 08           cmp         ecx,8
  10003264: 7C 06              jl          1000326C
  10003266: E8 3D F7 FF FF     call        100029A8
  1000326B: C3                 ret
  1000326C: E8 09 F4 FF FF     call        1000267A
  10003271: 8B 45 1A           mov         eax,dword ptr [ebp+1Ah]
  10003274: 01 45 23           add         dword ptr [ebp+23h],eax
  10003277: 83 45 23 02        add         dword ptr [ebp+23h],2
  1000327B: C3                 ret
  1000327C: C7 45 1A 00 00 00  mov         dword ptr [ebp+1Ah],0
            00
  10003283: 8B 45 23           mov         eax,dword ptr [ebp+23h]
  10003286: 0F B6 40 01        movzx       eax,byte ptr [eax+1]
  1000328A: 3D BF 00 00 00     cmp         eax,0BFh
  1000328F: 7F 11              jg          100032A2
  10003291: E8 4B F4 FF FF     call        100026E1
  10003296: 83 7D 16 07        cmp         dword ptr [ebp+16h],7
  1000329A: 7E 22              jle         100032BE
  1000329C: E8 07 F7 FF FF     call        100029A8
  100032A1: C3                 ret
  100032A2: 3D C0 00 00 00     cmp         eax,0C0h
  100032A7: 7C 15              jl          100032BE
  100032A9: 8B D0              mov         edx,eax
  100032AB: C1 EA 04           shr         edx,4
  100032AE: 8B C8              mov         ecx,eax
  100032B0: 83 E1 0F           and         ecx,0Fh
  100032B3: 83 FA 0D           cmp         edx,0Dh
  100032B6: 75 06              jne         100032BE
  100032B8: E8 EB F6 FF FF     call        100029A8
  100032BD: C3                 ret
  100032BE: E8 B7 F3 FF FF     call        1000267A
  100032C3: 8B 45 1A           mov         eax,dword ptr [ebp+1Ah]
  100032C6: 01 45 23           add         dword ptr [ebp+23h],eax
  100032C9: 83 45 23 02        add         dword ptr [ebp+23h],2
  100032CD: C3                 ret
  100032CE: C7 45 1A 00 00 00  mov         dword ptr [ebp+1Ah],0
            00
  100032D5: 8B 45 23           mov         eax,dword ptr [ebp+23h]
  100032D8: 0F B6 40 01        movzx       eax,byte ptr [eax+1]
  100032DC: 3D BF 00 00 00     cmp         eax,0BFh
  100032E1: 7F 19              jg          100032FC
  100032E3: E8 F9 F3 FF FF     call        100026E1
  100032E8: 83 7D 16 05        cmp         dword ptr [ebp+16h],5
  100032EC: 74 08              je          100032F6
  100032EE: 83 7D 16 07        cmp         dword ptr [ebp+16h],7
  100032F2: 7F 02              jg          100032F6
  100032F4: EB 32              jmp         10003328
  100032F6: E8 AD F6 FF FF     call        100029A8
  100032FB: C3                 ret
  100032FC: 3D C0 00 00 00     cmp         eax,0C0h
  10003301: 7C 25              jl          10003328
  10003303: 8B D0              mov         edx,eax
  10003305: C1 EA 04           shr         edx,4
  10003308: 8B C8              mov         ecx,eax
  1000330A: 83 E1 0F           and         ecx,0Fh
  1000330D: 83 FA 0C           cmp         edx,0Ch
  10003310: 75 0B              jne         1000331D
  10003312: 83 F9 08           cmp         ecx,8
  10003315: 7C 11              jl          10003328
  10003317: E8 8C F6 FF FF     call        100029A8
  1000331C: C3                 ret
  1000331D: 83 FA 0F           cmp         edx,0Fh
  10003320: 75 06              jne         10003328
  10003322: E8 81 F6 FF FF     call        100029A8
  10003327: C3                 ret
  10003328: E8 4D F3 FF FF     call        1000267A
  1000332D: 8B 45 1A           mov         eax,dword ptr [ebp+1Ah]
  10003330: 01 45 23           add         dword ptr [ebp+23h],eax
  10003333: 83 45 23 02        add         dword ptr [ebp+23h],2
  10003337: C3                 ret
  10003338: C7 45 1A 00 00 00  mov         dword ptr [ebp+1Ah],0
            00
  1000333F: 8B 45 23           mov         eax,dword ptr [ebp+23h]
  10003342: 0F B6 40 01        movzx       eax,byte ptr [eax+1]
  10003346: 3D BF 00 00 00     cmp         eax,0BFh
  1000334B: 7F 11              jg          1000335E
  1000334D: E8 8F F3 FF FF     call        100026E1
  10003352: 83 7D 16 07        cmp         dword ptr [ebp+16h],7
  10003356: 7E 27              jle         1000337F
  10003358: E8 4B F6 FF FF     call        100029A8
  1000335D: C3                 ret
  1000335E: 3D C0 00 00 00     cmp         eax,0C0h
  10003363: 7C 1A              jl          1000337F
  10003365: 8B D0              mov         edx,eax
  10003367: C1 EA 04           shr         edx,4
  1000336A: 8B C8              mov         ecx,eax
  1000336C: 83 E1 0F           and         ecx,0Fh
  1000336F: 83 FA 0D           cmp         edx,0Dh
  10003372: 75 0B              jne         1000337F
  10003374: 83 F9 09           cmp         ecx,9
  10003377: 74 06              je          1000337F
  10003379: E8 2A F6 FF FF     call        100029A8
  1000337E: C3                 ret
  1000337F: E8 F6 F2 FF FF     call        1000267A
  10003384: 8B 45 1A           mov         eax,dword ptr [ebp+1Ah]
  10003387: 01 45 23           add         dword ptr [ebp+23h],eax
  1000338A: 83 45 23 02        add         dword ptr [ebp+23h],2
  1000338E: C3                 ret
  1000338F: C7 45 1A 00 00 00  mov         dword ptr [ebp+1Ah],0
            00
  10003396: 8B 45 23           mov         eax,dword ptr [ebp+23h]
  10003399: 0F B6 40 01        movzx       eax,byte ptr [eax+1]
  1000339D: 3D BF 00 00 00     cmp         eax,0BFh
  100033A2: 7F 11              jg          100033B5
  100033A4: E8 38 F3 FF FF     call        100026E1
  100033A9: 83 7D 16 07        cmp         dword ptr [ebp+16h],7
  100033AD: 7E 52              jle         10003401
  100033AF: E8 F4 F5 FF FF     call        100029A8
  100033B4: C3                 ret
  100033B5: 3D C0 00 00 00     cmp         eax,0C0h
  100033BA: 7C 45              jl          10003401
  100033BC: 8B D0              mov         edx,eax
  100033BE: C1 EA 04           shr         edx,4
  100033C1: 8B C8              mov         ecx,eax
  100033C3: 83 E1 0F           and         ecx,0Fh
  100033C6: 83 FA 0C           cmp         edx,0Ch
  100033C9: 75 06              jne         100033D1
  100033CB: E8 D8 F5 FF FF     call        100029A8
  100033D0: C3                 ret
  100033D1: 83 FA 0D           cmp         edx,0Dh
  100033D4: 75 06              jne         100033DC
  100033D6: E8 CD F5 FF FF     call        100029A8
  100033DB: C3                 ret
  100033DC: 83 FA 0E           cmp         edx,0Eh
  100033DF: 75 10              jne         100033F1
  100033E1: 83 F9 00           cmp         ecx,0
  100033E4: 74 1B              je          10003401
  100033E6: 83 F9 08           cmp         ecx,8
  100033E9: 7D 16              jge         10003401
  100033EB: E8 B8 F5 FF FF     call        100029A8
  100033F0: C3                 ret
  100033F1: 83 FA 0F           cmp         edx,0Fh
  100033F4: 75 0B              jne         10003401
  100033F6: 83 F9 08           cmp         ecx,8
  100033F9: 7C 06              jl          10003401
  100033FB: E8 A8 F5 FF FF     call        100029A8
  10003400: C3                 ret
  10003401: E8 74 F2 FF FF     call        1000267A
  10003406: 8B 45 1A           mov         eax,dword ptr [ebp+1Ah]
  10003409: 01 45 23           add         dword ptr [ebp+23h],eax
  1000340C: 83 45 23 02        add         dword ptr [ebp+23h],2
  10003410: C3                 ret
  10003411: CC                 int         3
  10003412: CC                 int         3
  10003413: CC                 int         3
  10003414: CC                 int         3
  10003415: CC                 int         3
  10003416: CC                 int         3
  10003417: CC                 int         3
  10003418: CC                 int         3
  10003419: CC                 int         3
  1000341A: CC                 int         3
  1000341B: CC                 int         3
  1000341C: CC                 int         3
  1000341D: CC                 int         3
  1000341E: CC                 int         3
  1000341F: CC                 int         3
  10003420: 55                 push        ebp
  10003421: 8B EC              mov         ebp,esp
  10003423: 81 EC 28 01 00 00  sub         esp,128h
  10003429: A1 04 D0 00 10     mov         eax,dword ptr ds:[1000D004h]
  1000342E: 89 45 F8           mov         dword ptr [ebp-8],eax
  10003431: 57                 push        edi
  10003432: C7 85 E0 FE FF FF  mov         dword ptr [ebp+FFFFFEE0h],0
            00 00 00 00
  1000343C: B9 44 00 00 00     mov         ecx,44h
  10003441: 33 C0              xor         eax,eax
  10003443: 8D BD E4 FE FF FF  lea         edi,[ebp+FFFFFEE4h]
  10003449: F3 AB              rep stos    dword ptr es:[edi]
  1000344B: C7 85 DC FE FF FF  mov         dword ptr [ebp+FFFFFEDCh],0
            00 00 00 00
  10003455: 83 3D 28 D0 00 10  cmp         dword ptr ds:[1000D028h],0
            00
  1000345C: 0F 85 AB 01 00 00  jne         1000360D
  10003462: C7 85 E0 FE FF FF  mov         dword ptr [ebp+FFFFFEE0h],114h
            14 01 00 00
  1000346C: 8D 85 E0 FE FF FF  lea         eax,[ebp+FFFFFEE0h]
  10003472: 50                 push        eax
  10003473: FF 15 F0 90 00 10  call        dword ptr ds:[100090F0h]
  10003479: 85 C0              test        eax,eax
  1000347B: 0F 84 80 01 00 00  je          10003601
  10003481: 83 BD F0 FE FF FF  cmp         dword ptr [ebp+FFFFFEF0h],2
            02
  10003488: 74 0D              je          10003497
  1000348A: 83 BD F0 FE FF FF  cmp         dword ptr [ebp+FFFFFEF0h],1
            01
  10003491: 0F 85 5E 01 00 00  jne         100035F5
  10003497: 68 B0 91 00 10     push        100091B0h
  1000349C: FF 15 EC 90 00 10  call        dword ptr ds:[100090ECh]
  100034A2: 89 45 FC           mov         dword ptr [ebp-4],eax
  100034A5: 83 7D FC 00        cmp         dword ptr [ebp-4],0
  100034A9: 75 0F              jne         100034BA
  100034AB: C7 85 DC FE FF FF  mov         dword ptr [ebp+FFFFFEDCh],485h
            85 04 00 00
  100034B5: E9 53 01 00 00     jmp         1000360D
  100034BA: 83 BD F0 FE FF FF  cmp         dword ptr [ebp+FFFFFEF0h],2
            02
  100034C1: 75 2B              jne         100034EE
  100034C3: 68 9C 91 00 10     push        1000919Ch
  100034C8: FF 15 EC 90 00 10  call        dword ptr ds:[100090ECh]
  100034CE: 89 85 D8 FE FF FF  mov         dword ptr [ebp+FFFFFED8h],eax
  100034D4: 83 BD D8 FE FF FF  cmp         dword ptr [ebp+FFFFFED8h],0
            00
  100034DB: 75 0F              jne         100034EC
  100034DD: C7 85 DC FE FF FF  mov         dword ptr [ebp+FFFFFEDCh],485h
            85 04 00 00
  100034E7: E9 21 01 00 00     jmp         1000360D
  100034EC: EB 0A              jmp         100034F8
  100034EE: C7 85 D8 FE FF FF  mov         dword ptr [ebp+FFFFFED8h],0
            00 00 00 00
  100034F8: 68 84 91 00 10     push        10009184h
  100034FD: 8B 4D FC           mov         ecx,dword ptr [ebp-4]
  10003500: 51                 push        ecx
  10003501: FF 15 34 90 00 10  call        dword ptr ds:[10009034h]
  10003507: A3 1C D0 00 10     mov         dword ptr ds:[1000D01Ch],eax
  1000350C: 83 3D 1C D0 00 10  cmp         dword ptr ds:[1000D01Ch],0
            00
  10003513: 75 23              jne         10003538
  10003515: FF 15 2C 90 00 10  call        dword ptr ds:[1000902Ch]
  1000351B: 89 85 DC FE FF FF  mov         dword ptr [ebp+FFFFFEDCh],eax
  10003521: 83 BD DC FE FF FF  cmp         dword ptr [ebp+FFFFFEDCh],0
            00
  10003528: 74 0E              je          10003538
  1000352A: 83 BD DC FE FF FF  cmp         dword ptr [ebp+FFFFFEDCh],7Fh
            7F
  10003531: 74 05              je          10003538
  10003533: E9 D5 00 00 00     jmp         1000360D
  10003538: 83 BD D8 FE FF FF  cmp         dword ptr [ebp+FFFFFED8h],0
            00
  1000353F: 74 6E              je          100035AF
  10003541: 68 6C 91 00 10     push        1000916Ch
  10003546: 8B 95 D8 FE FF FF  mov         edx,dword ptr [ebp+FFFFFED8h]
  1000354C: 52                 push        edx
  1000354D: FF 15 34 90 00 10  call        dword ptr ds:[10009034h]
  10003553: A3 20 D0 00 10     mov         dword ptr ds:[1000D020h],eax
  10003558: 83 3D 20 D0 00 10  cmp         dword ptr ds:[1000D020h],0
            00
  1000355F: 75 0F              jne         10003570
  10003561: C7 85 DC FE FF FF  mov         dword ptr [ebp+FFFFFEDCh],32h
            32 00 00 00
  1000356B: E9 9D 00 00 00     jmp         1000360D
  10003570: 68 4C 91 00 10     push        1000914Ch
  10003575: 8B 45 FC           mov         eax,dword ptr [ebp-4]
  10003578: 50                 push        eax
  10003579: FF 15 34 90 00 10  call        dword ptr ds:[10009034h]
  1000357F: A3 24 D0 00 10     mov         dword ptr ds:[1000D024h],eax
  10003584: 83 3D 24 D0 00 10  cmp         dword ptr ds:[1000D024h],0
            00
  1000358B: 75 20              jne         100035AD
  1000358D: FF 15 2C 90 00 10  call        dword ptr ds:[1000902Ch]
  10003593: 89 85 DC FE FF FF  mov         dword ptr [ebp+FFFFFEDCh],eax
  10003599: 83 BD DC FE FF FF  cmp         dword ptr [ebp+FFFFFEDCh],0
            00
  100035A0: 74 0B              je          100035AD
  100035A2: 83 BD DC FE FF FF  cmp         dword ptr [ebp+FFFFFEDCh],7Fh
            7F
  100035A9: 74 02              je          100035AD
  100035AB: EB 60              jmp         1000360D
  100035AD: EB 0A              jmp         100035B9
  100035AF: C7 05 24 D0 00 10  mov         dword ptr ds:[1000D024h],10003730h
            30 37 00 10
  100035B9: 8B 8D F0 FE FF FF  mov         ecx,dword ptr [ebp+FFFFFEF0h]
  100035BF: 89 0D 10 D0 00 10  mov         dword ptr ds:[1000D010h],ecx
  100035C5: 8B 95 E4 FE FF FF  mov         edx,dword ptr [ebp+FFFFFEE4h]
  100035CB: 89 15 14 D0 00 10  mov         dword ptr ds:[1000D014h],edx
  100035D1: 8B 85 E8 FE FF FF  mov         eax,dword ptr [ebp+FFFFFEE8h]
  100035D7: A3 18 D0 00 10     mov         dword ptr ds:[1000D018h],eax
  100035DC: C7 85 DC FE FF FF  mov         dword ptr [ebp+FFFFFEDCh],0
            00 00 00 00
  100035E6: 6A 01              push        1
  100035E8: 68 28 D0 00 10     push        1000D028h
  100035ED: FF 15 E8 90 00 10  call        dword ptr ds:[100090E8h]
  100035F3: EB 0A              jmp         100035FF
  100035F5: C7 85 DC FE FF FF  mov         dword ptr [ebp+FFFFFEDCh],32h
            32 00 00 00
  100035FF: EB 0C              jmp         1000360D
  10003601: FF 15 2C 90 00 10  call        dword ptr ds:[1000902Ch]
  10003607: 89 85 DC FE FF FF  mov         dword ptr [ebp+FFFFFEDCh],eax
  1000360D: 83 BD DC FE FF FF  cmp         dword ptr [ebp+FFFFFEDCh],0
            00
  10003614: 74 11              je          10003627
  10003616: 8B 8D DC FE FF FF  mov         ecx,dword ptr [ebp+FFFFFEDCh]
  1000361C: 51                 push        ecx
  1000361D: FF 15 A8 90 00 10  call        dword ptr ds:[100090A8h]
  10003623: 33 C0              xor         eax,eax
  10003625: EB 05              jmp         1000362C
  10003627: B8 01 00 00 00     mov         eax,1
  1000362C: 8B 4D F8           mov         ecx,dword ptr [ebp-8]
  1000362F: E8 7F 01 00 00     call        100037B3
  10003634: 5F                 pop         edi
  10003635: 8B E5              mov         esp,ebp
  10003637: 5D                 pop         ebp
  10003638: C3                 ret
  10003639: CC                 int         3
  1000363A: CC                 int         3
  1000363B: CC                 int         3
  1000363C: CC                 int         3
  1000363D: CC                 int         3
  1000363E: CC                 int         3
  1000363F: CC                 int         3
  10003640: 55                 push        ebp
  10003641: 8B EC              mov         ebp,esp
  10003643: 51                 push        ecx
  10003644: 83 3D BC F6 00 10  cmp         dword ptr ds:[1000F6BCh],1
            01
  1000364B: 75 37              jne         10003684
  1000364D: A1 C0 F6 00 10     mov         eax,dword ptr ds:[1000F6C0h]
  10003652: 83 38 00           cmp         dword ptr [eax],0
  10003655: 75 0B              jne         10003662
  10003657: 8B 4D 08           mov         ecx,dword ptr [ebp+8]
  1000365A: C7 01 00 00 00 00  mov         dword ptr [ecx],0
  10003660: EB 18              jmp         1000367A
  10003662: FF 15 24 90 00 10  call        dword ptr ds:[10009024h]
  10003668: 8B 15 C0 F6 00 10  mov         edx,dword ptr ds:[1000F6C0h]
  1000366E: 33 C9              xor         ecx,ecx
  10003670: 39 02              cmp         dword ptr [edx],eax
  10003672: 0F 94 C1           sete        cl
  10003675: 8B 55 08           mov         edx,dword ptr [ebp+8]
  10003678: 89 0A              mov         dword ptr [edx],ecx
  1000367A: B8 01 00 00 00     mov         eax,1
  1000367F: E9 8B 00 00 00     jmp         1000370F
  10003684: 83 3D 28 D0 00 10  cmp         dword ptr ds:[1000D028h],1
            01
  1000368B: 74 0C              je          10003699
  1000368D: 6A 01              push        1
  1000368F: FF 15 A8 90 00 10  call        dword ptr ds:[100090A8h]
  10003695: 33 C0              xor         eax,eax
  10003697: EB 76              jmp         1000370F
  10003699: 83 3D 24 D0 00 10  cmp         dword ptr ds:[1000D024h],0
            00
  100036A0: 75 63              jne         10003705
  100036A2: 83 3D BC F6 00 10  cmp         dword ptr ds:[1000F6BCh],0
            00
  100036A9: 75 40              jne         100036EB
  100036AB: 83 3D 14 D0 00 10  cmp         dword ptr ds:[1000D014h],5
            05
  100036B2: 73 0C              jae         100036C0
  100036B4: C7 05 BC F6 00 10  mov         dword ptr ds:[1000F6BCh],2
            02 00 00 00
  100036BE: EB 29              jmp         100036E9
  100036C0: E8 5B 00 00 00     call        10003720
  100036C5: 8B 40 30           mov         eax,dword ptr [eax+30h]
  100036C8: 8B 88 A0 00 00 00  mov         ecx,dword ptr [eax+000000A0h]
  100036CE: 83 C1 0C           add         ecx,0Ch
  100036D1: 89 0D C0 F6 00 10  mov         dword ptr ds:[1000F6C0h],ecx
  100036D7: 6A 01              push        1
  100036D9: 68 BC F6 00 10     push        1000F6BCh
  100036DE: FF 15 E8 90 00 10  call        dword ptr ds:[100090E8h]
  100036E4: E9 64 FF FF FF     jmp         1000364D
  100036E9: EB 0E              jmp         100036F9
  100036EB: 83 3D BC F6 00 10  cmp         dword ptr ds:[1000F6BCh],1
            01
  100036F2: 75 05              jne         100036F9
  100036F4: E9 54 FF FF FF     jmp         1000364D
  100036F9: 6A 32              push        32h
  100036FB: FF 15 A8 90 00 10  call        dword ptr ds:[100090A8h]
  10003701: 33 C0              xor         eax,eax
  10003703: EB 0A              jmp         1000370F
  10003705: 8B 55 08           mov         edx,dword ptr [ebp+8]
  10003708: 52                 push        edx
  10003709: FF 15 24 D0 00 10  call        dword ptr ds:[1000D024h]
  1000370F: 8B E5              mov         esp,ebp
  10003711: 5D                 pop         ebp
  10003712: C2 04 00           ret         4
  10003715: CC                 int         3
  10003716: CC                 int         3
  10003717: CC                 int         3
  10003718: CC                 int         3
  10003719: CC                 int         3
  1000371A: CC                 int         3
  1000371B: CC                 int         3
  1000371C: CC                 int         3
  1000371D: CC                 int         3
  1000371E: CC                 int         3
  1000371F: CC                 int         3
  10003720: 55                 push        ebp
  10003721: 8B EC              mov         ebp,esp
  10003723: 64 A1 18 00 00 00  mov         eax,dword ptr fs:[00000018h]
  10003729: 5D                 pop         ebp
  1000372A: C3                 ret
  1000372B: CC                 int         3
  1000372C: CC                 int         3
  1000372D: CC                 int         3
  1000372E: CC                 int         3
  1000372F: CC                 int         3
  10003730: 55                 push        ebp
  10003731: 8B EC              mov         ebp,esp
  10003733: 8B 45 08           mov         eax,dword ptr [ebp+8]
  10003736: C7 00 00 00 00 00  mov         dword ptr [eax],0
  1000373C: B8 01 00 00 00     mov         eax,1
  10003741: 5D                 pop         ebp
  10003742: C2 04 00           ret         4
  10003745: 8B FF              mov         edi,edi
  10003747: 55                 push        ebp
  10003748: 8B EC              mov         ebp,esp
  1000374A: 83 EC 10           sub         esp,10h
  1000374D: A1 04 D0 00 10     mov         eax,dword ptr ds:[1000D004h]
  10003752: 85 C0              test        eax,eax
  10003754: 74 07              je          1000375D
  10003756: 3D 40 BB 00 00     cmp         eax,0BB40h
  1000375B: 75 4D              jne         100037AA
  1000375D: 56                 push        esi
  1000375E: 8D 45 F8           lea         eax,[ebp-8]
  10003761: 50                 push        eax
  10003762: FF 15 FC 90 00 10  call        dword ptr ds:[100090FCh]
  10003768: 8B 75 FC           mov         esi,dword ptr [ebp-4]
  1000376B: 33 75 F8           xor         esi,dword ptr [ebp-8]
  1000376E: FF 15 B4 90 00 10  call        dword ptr ds:[100090B4h]
  10003774: 33 F0              xor         esi,eax
  10003776: FF 15 24 90 00 10  call        dword ptr ds:[10009024h]
  1000377C: 33 F0              xor         esi,eax
  1000377E: FF 15 F8 90 00 10  call        dword ptr ds:[100090F8h]
  10003784: 33 F0              xor         esi,eax
  10003786: 8D 45 F0           lea         eax,[ebp-10h]
  10003789: 50                 push        eax
  1000378A: FF 15 F4 90 00 10  call        dword ptr ds:[100090F4h]
  10003790: 8B 45 F4           mov         eax,dword ptr [ebp-0Ch]
  10003793: 33 45 F0           xor         eax,dword ptr [ebp-10h]
  10003796: 33 C6              xor         eax,esi
  10003798: 25 FF FF 00 00     and         eax,0FFFFh
  1000379D: 5E                 pop         esi
  1000379E: 75 05              jne         100037A5
  100037A0: B8 40 BB 00 00     mov         eax,0BB40h
  100037A5: A3 04 D0 00 10     mov         dword ptr ds:[1000D004h],eax
  100037AA: F7 D0              not         eax
  100037AC: A3 00 D0 00 10     mov         dword ptr ds:[1000D000h],eax
  100037B1: C9                 leave
  100037B2: C3                 ret
  100037B3: 3B 0D 04 D0 00 10  cmp         ecx,dword ptr ds:[1000D004h]
  100037B9: 75 09              jne         100037C4
  100037BB: F7 C1 00 00 FF FF  test        ecx,0FFFF0000h
  100037C1: 75 01              jne         100037C4
  100037C3: C3                 ret
  100037C4: E9 00 00 00 00     jmp         100037C9
  100037C9: 8B FF              mov         edi,edi
  100037CB: 55                 push        ebp
  100037CC: 8B EC              mov         ebp,esp
  100037CE: 81 EC 20 03 00 00  sub         esp,320h
  100037D4: 57                 push        edi
  100037D5: A3 30 D1 00 10     mov         dword ptr ds:[1000D130h],eax
  100037DA: 89 0D 2C D1 00 10  mov         dword ptr ds:[1000D12Ch],ecx
  100037E0: 89 15 28 D1 00 10  mov         dword ptr ds:[1000D128h],edx
  100037E6: 89 1D 24 D1 00 10  mov         dword ptr ds:[1000D124h],ebx
  100037EC: 89 35 20 D1 00 10  mov         dword ptr ds:[1000D120h],esi
  100037F2: 89 3D 1C D1 00 10  mov         dword ptr ds:[1000D11Ch],edi
  100037F8: 66 8C 15 48 D1 00  mov         word ptr ds:[1000D148h],ss
            10
  100037FF: 66 8C 0D 3C D1 00  mov         word ptr ds:[1000D13Ch],cs
            10
  10003806: 66 8C 1D 18 D1 00  mov         word ptr ds:[1000D118h],ds
            10
  1000380D: 66 8C 05 14 D1 00  mov         word ptr ds:[1000D114h],es
            10
  10003814: 66 8C 25 10 D1 00  mov         word ptr ds:[1000D110h],fs
            10
  1000381B: 66 8C 2D 0C D1 00  mov         word ptr ds:[1000D10Ch],gs
            10
  10003822: 9C                 pushfd
  10003823: 8F 05 40 D1 00 10  pop         dword ptr ds:[1000D140h]
  10003829: 8B 45 04           mov         eax,dword ptr [ebp+4]
  1000382C: 8D 4D 04           lea         ecx,[ebp+4]
  1000382F: 83 C1 04           add         ecx,4
  10003832: 89 0D 44 D1 00 10  mov         dword ptr ds:[1000D144h],ecx
  10003838: A3 38 D1 00 10     mov         dword ptr ds:[1000D138h],eax
  1000383D: C7 05 80 D0 00 10  mov         dword ptr ds:[1000D080h],10001h
            01 00 01 00
  10003847: 8D 4D 04           lea         ecx,[ebp+4]
  1000384A: 8B 49 FC           mov         ecx,dword ptr [ecx-4]
  1000384D: A3 3C D0 00 10     mov         dword ptr ds:[1000D03Ch],eax
  10003852: A1 04 D0 00 10     mov         eax,dword ptr ds:[1000D004h]
  10003857: 89 45 FC           mov         dword ptr [ebp-4],eax
  1000385A: A1 00 D0 00 10     mov         eax,dword ptr ds:[1000D000h]
  1000385F: 33 FF              xor         edi,edi
  10003861: 47                 inc         edi
  10003862: 89 45 FC           mov         dword ptr [ebp-4],eax
  10003865: 6A 00              push        0
  10003867: 89 0D 34 D1 00 10  mov         dword ptr ds:[1000D134h],ecx
  1000386D: C7 05 30 D0 00 10  mov         dword ptr ds:[1000D030h],0C0000409h
            09 04 00 C0
  10003877: 89 3D 34 D0 00 10  mov         dword ptr ds:[1000D034h],edi
  1000387D: FF 15 04 91 00 10  call        dword ptr ds:[10009104h]
  10003883: 68 CC 91 00 10     push        100091CCh
  10003888: FF 15 00 91 00 10  call        dword ptr ds:[10009100h]
  1000388E: 68 09 04 00 C0     push        0C0000409h
  10003893: 89 BD E0 FC FF FF  mov         dword ptr [ebp+FFFFFCE0h],edi
  10003899: FF 15 30 90 00 10  call        dword ptr ds:[10009030h]
  1000389F: 50                 push        eax
  100038A0: FF 15 A4 90 00 10  call        dword ptr ds:[100090A4h]
  100038A6: 5F                 pop         edi
  100038A7: C9                 leave
  100038A8: C3                 ret
  100038A9: CC                 int         3
  100038AA: FF 25 24 91 00 10  jmp         dword ptr ds:[10009124h]
  100038B0: FF 25 20 91 00 10  jmp         dword ptr ds:[10009120h]
  100038B6: FF 25 68 90 00 10  jmp         dword ptr ds:[10009068h]
  100038BC: FF 25 70 90 00 10  jmp         dword ptr ds:[10009070h]
  100038C2: FF 25 80 90 00 10  jmp         dword ptr ds:[10009080h]
  100038C8: CC                 int         3
  100038C9: CC                 int         3
  100038CA: CC                 int         3
  100038CB: CC                 int         3
  100038CC: CC                 int         3
  100038CD: CC                 int         3
  100038CE: CC                 int         3
  100038CF: CC                 int         3
  100038D0: 56                 push        esi
  100038D1: 8B 74 24 08        mov         esi,dword ptr [esp+8]
  100038D5: 33 C9              xor         ecx,ecx
  100038D7: 8D 57 1E           lea         edx,[edi+1Eh]
  100038DA: 8D 9B 00 00 00 00  lea         ebx,[ebx+00000000h]
  100038E0: 83 F9 20           cmp         ecx,20h
  100038E3: 73 12              jae         100038F7
  100038E5: 8B C6              mov         eax,esi
  100038E7: D3 F8              sar         eax,cl
  100038E9: 83 E0 0F           and         eax,0Fh
  100038EC: 66 3D 0A 00        cmp         ax,0Ah
  100038F0: 73 0E              jae         10003900
  100038F2: 83 C0 30           add         eax,30h
  100038F5: EB 0C              jmp         10003903
  100038F7: 33 C0              xor         eax,eax
  100038F9: B8 30 00 00 00     mov         eax,30h
  100038FE: EB 03              jmp         10003903
  10003900: 83 C0 37           add         eax,37h
  10003903: 66 89 02           mov         word ptr [edx],ax
  10003906: 83 C1 04           add         ecx,4
  10003909: 83 EA 02           sub         edx,2
  1000390C: 83 F9 40           cmp         ecx,40h
  1000390F: 72 CF              jb          100038E0
  10003911: 66 C7 47 20 00 00  mov         word ptr [edi+20h],0
  10003917: 5E                 pop         esi
  10003918: C2 08 00           ret         8
  1000391B: CC                 int         3
  1000391C: CC                 int         3
  1000391D: CC                 int         3
  1000391E: CC                 int         3
  1000391F: CC                 int         3
  10003920: 33 C0              xor         eax,eax
  10003922: 66 39 01           cmp         word ptr [ecx],ax
  10003925: 74 15              je          1000393C
  10003927: EB 07              jmp         10003930
  10003929: 8D A4 24 00 00 00  lea         esp,[esp+00000000h]
            00
  10003930: 83 C1 02           add         ecx,2
  10003933: 83 C0 01           add         eax,1
  10003936: 66 83 39 00        cmp         word ptr [ecx],0
  1000393A: 75 F4              jne         10003930
  1000393C: C3                 ret
  1000393D: CC                 int         3
  1000393E: CC                 int         3
  1000393F: CC                 int         3
  10003940: 33 C0              xor         eax,eax
  10003942: 38 01              cmp         byte ptr [ecx],al
  10003944: 74 0B              je          10003951
  10003946: 83 C1 01           add         ecx,1
  10003949: 83 C0 01           add         eax,1
  1000394C: 80 39 00           cmp         byte ptr [ecx],0
  1000394F: 75 F5              jne         10003946
  10003951: C3                 ret
  10003952: CC                 int         3
  10003953: CC                 int         3
  10003954: CC                 int         3
  10003955: CC                 int         3
  10003956: CC                 int         3
  10003957: CC                 int         3
  10003958: CC                 int         3
  10003959: CC                 int         3
  1000395A: CC                 int         3
  1000395B: CC                 int         3
  1000395C: CC                 int         3
  1000395D: CC                 int         3
  1000395E: CC                 int         3
  1000395F: CC                 int         3
  10003960: 55                 push        ebp
  10003961: 8B EC              mov         ebp,esp
  10003963: 83 EC 08           sub         esp,8
  10003966: 8B 45 08           mov         eax,dword ptr [ebp+8]
  10003969: 89 45 F8           mov         dword ptr [ebp-8],eax
  1000396C: C7 45 FC 00 00 00  mov         dword ptr [ebp-4],0
            00
  10003973: EB 09              jmp         1000397E
  10003975: 8B 4D FC           mov         ecx,dword ptr [ebp-4]
  10003978: 83 C1 01           add         ecx,1
  1000397B: 89 4D FC           mov         dword ptr [ebp-4],ecx
  1000397E: 8B 55 FC           mov         edx,dword ptr [ebp-4]
  10003981: 3B 55 0C           cmp         edx,dword ptr [ebp+0Ch]
  10003984: 73 11              jae         10003997
  10003986: 8B 45 F8           mov         eax,dword ptr [ebp-8]
  10003989: C6 00 00           mov         byte ptr [eax],0
  1000398C: 8B 4D F8           mov         ecx,dword ptr [ebp-8]
  1000398F: 83 C1 01           add         ecx,1
  10003992: 89 4D F8           mov         dword ptr [ebp-8],ecx
  10003995: EB DE              jmp         10003975
  10003997: 8B E5              mov         esp,ebp
  10003999: 5D                 pop         ebp
  1000399A: C2 08 00           ret         8
  1000399D: CC                 int         3
  1000399E: CC                 int         3
  1000399F: CC                 int         3
  100039A0: 33 C0              xor         eax,eax
  100039A2: 85 C9              test        ecx,ecx
  100039A4: 76 0D              jbe         100039B3
  100039A6: 8A 14 30           mov         dl,byte ptr [eax+esi]
  100039A9: 88 14 38           mov         byte ptr [eax+edi],dl
  100039AC: 83 C0 01           add         eax,1
  100039AF: 3B C1              cmp         eax,ecx
  100039B1: 72 F3              jb          100039A6
  100039B3: C3                 ret
  100039B4: CC                 int         3
  100039B5: CC                 int         3
  100039B6: CC                 int         3
  100039B7: CC                 int         3
  100039B8: CC                 int         3
  100039B9: CC                 int         3
  100039BA: CC                 int         3
  100039BB: CC                 int         3
  100039BC: CC                 int         3
  100039BD: CC                 int         3
  100039BE: CC                 int         3
  100039BF: CC                 int         3
  100039C0: 6A 64              push        64h
  100039C2: FF 15 D4 90 00 10  call        dword ptr ds:[100090D4h]
  100039C8: C3                 ret
  100039C9: CC                 int         3
  100039CA: CC                 int         3
  100039CB: CC                 int         3
  100039CC: CC                 int         3
  100039CD: CC                 int         3
  100039CE: CC                 int         3
  100039CF: CC                 int         3
  100039D0: 6A 1C              push        1Ch
  100039D2: 56                 push        esi
  100039D3: E8 88 FF FF FF     call        10003960
  100039D8: 56                 push        esi
  100039D9: FF 15 D0 90 00 10  call        dword ptr ds:[100090D0h]
  100039DF: C3                 ret
  100039E0: 85 C0              test        eax,eax
  100039E2: 74 24              je          10003A08
  100039E4: 83 F8 FF           cmp         eax,0FFFFFFFFh
  100039E7: 74 1F              je          10003A08
  100039E9: 51                 push        ecx
  100039EA: 50                 push        eax
  100039EB: FF 15 CC 90 00 10  call        dword ptr ds:[100090CCh]
  100039F1: 85 C0              test        eax,eax
  100039F3: 74 0D              je          10003A02
  100039F5: 68 D4 BC 00 10     push        1000BCD4h
  100039FA: 6A 00              push        0
  100039FC: FF 15 B8 90 00 10  call        dword ptr ds:[100090B8h]
  10003A02: B8 01 00 00 00     mov         eax,1
  10003A07: C3                 ret
  10003A08: 33 C0              xor         eax,eax
  10003A0A: C3                 ret
  10003A0B: CC                 int         3
  10003A0C: CC                 int         3
  10003A0D: CC                 int         3
  10003A0E: CC                 int         3
  10003A0F: CC                 int         3
  10003A10: 85 F6              test        esi,esi
  10003A12: 75 0C              jne         10003A20
  10003A14: 68 D4 BC 00 10     push        1000BCD4h
  10003A19: 56                 push        esi
  10003A1A: FF 15 B8 90 00 10  call        dword ptr ds:[100090B8h]
  10003A20: A1 74 F6 00 10     mov         eax,dword ptr ds:[1000F674h]
  10003A25: 56                 push        esi
  10003A26: 6A 00              push        0
  10003A28: 50                 push        eax
  10003A29: FF 15 C8 90 00 10  call        dword ptr ds:[100090C8h]
  10003A2F: C3                 ret
  10003A30: 51                 push        ecx
  10003A31: 8D 04 24           lea         eax,[esp]
  10003A34: 50                 push        eax
  10003A35: 6A 40              push        40h
  10003A37: 51                 push        ecx
  10003A38: 52                 push        edx
  10003A39: FF 15 E0 90 00 10  call        dword ptr ds:[100090E0h]
  10003A3F: 85 C0              test        eax,eax
  10003A41: 75 31              jne         10003A74
  10003A43: 56                 push        esi
  10003A44: BE 0D 00 00 C0     mov         esi,0C000000Dh
  10003A49: FF 15 2C 90 00 10  call        dword ptr ds:[1000902Ch]
  10003A4F: A3 B8 F6 00 10     mov         dword ptr ds:[1000F6B8h],eax
  10003A54: 85 C0              test        eax,eax
  10003A56: 8B C6              mov         eax,esi
  10003A58: 75 0D              jne         10003A67
  10003A5A: C7 05 08 D0 00 10  mov         dword ptr ds:[1000D008h],100091F0h
            F0 91 00 10
  10003A64: 5E                 pop         esi
  10003A65: 59                 pop         ecx
  10003A66: C3                 ret
  10003A67: C7 05 08 D0 00 10  mov         dword ptr ds:[1000D008h],1000BD38h
            38 BD 00 10
  10003A71: 5E                 pop         esi
  10003A72: 59                 pop         ecx
  10003A73: C3                 ret
  10003A74: 33 C0              xor         eax,eax
  10003A76: A3 B8 F6 00 10     mov         dword ptr ds:[1000F6B8h],eax
  10003A7B: C7 05 08 D0 00 10  mov         dword ptr ds:[1000D008h],100091F0h
            F0 91 00 10
  10003A85: 59                 pop         ecx
  10003A86: C3                 ret
  10003A87: CC                 int         3
  10003A88: CC                 int         3
  10003A89: CC                 int         3
  10003A8A: CC                 int         3
  10003A8B: CC                 int         3
  10003A8C: CC                 int         3
  10003A8D: CC                 int         3
  10003A8E: CC                 int         3
  10003A8F: CC                 int         3
  10003A90: 85 F6              test        esi,esi
  10003A92: 74 07              je          10003A9B
  10003A94: 50                 push        eax
  10003A95: 56                 push        esi
  10003A96: E8 C5 FE FF FF     call        10003960
  10003A9B: 8B C6              mov         eax,esi
  10003A9D: C3                 ret
  10003A9E: CC                 int         3
  10003A9F: CC                 int         3
  10003AA0: A1 74 F6 00 10     mov         eax,dword ptr ds:[1000F674h]
  10003AA5: 56                 push        esi
  10003AA6: 6A 00              push        0
  10003AA8: 50                 push        eax
  10003AA9: FF 15 C4 90 00 10  call        dword ptr ds:[100090C4h]
  10003AAF: 85 C0              test        eax,eax
  10003AB1: 75 03              jne         10003AB6
  10003AB3: C2 04 00           ret         4
  10003AB6: 85 F6              test        esi,esi
  10003AB8: 76 1B              jbe         10003AD5
  10003ABA: 55                 push        ebp
  10003ABB: 57                 push        edi
  10003ABC: 8B 7C 24 0C        mov         edi,dword ptr [esp+0Ch]
  10003AC0: 8B C8              mov         ecx,eax
  10003AC2: 2B F8              sub         edi,eax
  10003AC4: 8B EE              mov         ebp,esi
  10003AC6: 8A 14 0F           mov         dl,byte ptr [edi+ecx]
  10003AC9: 88 11              mov         byte ptr [ecx],dl
  10003ACB: 83 C1 01           add         ecx,1
  10003ACE: 83 ED 01           sub         ebp,1
  10003AD1: 75 F3              jne         10003AC6
  10003AD3: 5F                 pop         edi
  10003AD4: 5D                 pop         ebp
  10003AD5: 33 C9              xor         ecx,ecx
  10003AD7: 85 F6              test        esi,esi
  10003AD9: 76 12              jbe         10003AED
  10003ADB: EB 03              jmp         10003AE0
  10003ADD: 8D 49 00           lea         ecx,[ecx]
  10003AE0: 8A 14 01           mov         dl,byte ptr [ecx+eax]
  10003AE3: 88 14 19           mov         byte ptr [ecx+ebx],dl
  10003AE6: 83 C1 01           add         ecx,1
  10003AE9: 3B CE              cmp         ecx,esi
  10003AEB: 72 F3              jb          10003AE0
  10003AED: B8 01 00 00 00     mov         eax,1
  10003AF2: C2 04 00           ret         4
  10003AF5: CC                 int         3
  10003AF6: CC                 int         3
  10003AF7: CC                 int         3
  10003AF8: CC                 int         3
  10003AF9: CC                 int         3
  10003AFA: CC                 int         3
  10003AFB: CC                 int         3
  10003AFC: CC                 int         3
  10003AFD: CC                 int         3
  10003AFE: CC                 int         3
  10003AFF: CC                 int         3
  10003B00: 83 7E 18 00        cmp         dword ptr [esi+18h],0
  10003B04: 74 0D              je          10003B13
  10003B06: 68 D4 BC 00 10     push        1000BCD4h
  10003B0B: 6A 00              push        0
  10003B0D: FF 15 B8 90 00 10  call        dword ptr ds:[100090B8h]
  10003B13: 56                 push        esi
  10003B14: FF 15 E4 90 00 10  call        dword ptr ds:[100090E4h]
  10003B1A: C3                 ret
  10003B1B: CC                 int         3
  10003B1C: CC                 int         3
  10003B1D: CC                 int         3
  10003B1E: CC                 int         3
  10003B1F: CC                 int         3
  10003B20: 83 7E 18 00        cmp         dword ptr [esi+18h],0
  10003B24: 75 0D              jne         10003B33
  10003B26: 68 D4 BC 00 10     push        1000BCD4h
  10003B2B: 6A 00              push        0
  10003B2D: FF 15 B8 90 00 10  call        dword ptr ds:[100090B8h]
  10003B33: 56                 push        esi
  10003B34: C7 46 18 00 00 00  mov         dword ptr [esi+18h],0
            00
  10003B3B: FF 15 D8 90 00 10  call        dword ptr ds:[100090D8h]
  10003B41: C3                 ret
  10003B42: CC                 int         3
  10003B43: CC                 int         3
  10003B44: CC                 int         3
  10003B45: CC                 int         3
  10003B46: CC                 int         3
  10003B47: CC                 int         3
  10003B48: CC                 int         3
  10003B49: CC                 int         3
  10003B4A: CC                 int         3
  10003B4B: CC                 int         3
  10003B4C: CC                 int         3
  10003B4D: CC                 int         3
  10003B4E: CC                 int         3
  10003B4F: CC                 int         3
  10003B50: 56                 push        esi
  10003B51: FF 15 DC 90 00 10  call        dword ptr ds:[100090DCh]
  10003B57: 83 7E 18 00        cmp         dword ptr [esi+18h],0
  10003B5B: 74 0D              je          10003B6A
  10003B5D: 68 D4 BC 00 10     push        1000BCD4h
  10003B62: 6A 00              push        0
  10003B64: FF 15 B8 90 00 10  call        dword ptr ds:[100090B8h]
  10003B6A: C7 46 18 01 00 00  mov         dword ptr [esi+18h],1
            00
  10003B71: C3                 ret
  10003B72: CC                 int         3
  10003B73: CC                 int         3
  10003B74: CC                 int         3
  10003B75: CC                 int         3
  10003B76: CC                 int         3
  10003B77: CC                 int         3
  10003B78: CC                 int         3
  10003B79: CC                 int         3
  10003B7A: CC                 int         3
  10003B7B: CC                 int         3
  10003B7C: CC                 int         3
  10003B7D: CC                 int         3
  10003B7E: CC                 int         3
  10003B7F: CC                 int         3
  10003B80: 6A 00              push        0
  10003B82: 6A 00              push        0
  10003B84: 6A 03              push        3
  10003B86: 6A 00              push        0
  10003B88: 6A 03              push        3
  10003B8A: 6A 00              push        0
  10003B8C: 50                 push        eax
  10003B8D: FF 15 C0 90 00 10  call        dword ptr ds:[100090C0h]
  10003B93: 83 F8 FF           cmp         eax,0FFFFFFFFh
  10003B96: 75 03              jne         10003B9B
  10003B98: 33 C0              xor         eax,eax
  10003B9A: C3                 ret
  10003B9B: 50                 push        eax
  10003B9C: FF 15 54 90 00 10  call        dword ptr ds:[10009054h]
  10003BA2: B8 01 00 00 00     mov         eax,1
  10003BA7: C3                 ret
  10003BA8: CC                 int         3
  10003BA9: CC                 int         3
  10003BAA: CC                 int         3
  10003BAB: CC                 int         3
  10003BAC: CC                 int         3
  10003BAD: CC                 int         3
  10003BAE: CC                 int         3
  10003BAF: CC                 int         3
  10003BB0: 8B 0D 70 F6 00 10  mov         ecx,dword ptr ds:[1000F670h]
  10003BB6: 57                 push        edi
  10003BB7: 68 04 01 00 00     push        104h
  10003BBC: 50                 push        eax
  10003BBD: 51                 push        ecx
  10003BBE: FF 15 BC 90 00 10  call        dword ptr ds:[100090BCh]
  10003BC4: 8B 3D 2C 90 00 10  mov         edi,dword ptr ds:[1000902Ch]
  10003BCA: FF D7              call        edi
  10003BCC: 83 F8 7A           cmp         eax,7Ah
  10003BCF: 75 2D              jne         10003BFE
  10003BD1: 56                 push        esi
  10003BD2: BE 23 00 00 C0     mov         esi,0C0000023h
  10003BD7: FF D7              call        edi
  10003BD9: A3 B8 F6 00 10     mov         dword ptr ds:[1000F6B8h],eax
  10003BDE: 85 C0              test        eax,eax
  10003BE0: 8B C6              mov         eax,esi
  10003BE2: 75 0D              jne         10003BF1
  10003BE4: 5E                 pop         esi
  10003BE5: C7 05 08 D0 00 10  mov         dword ptr ds:[1000D008h],100091F0h
            F0 91 00 10
  10003BEF: 5F                 pop         edi
  10003BF0: C3                 ret
  10003BF1: 5E                 pop         esi
  10003BF2: C7 05 08 D0 00 10  mov         dword ptr ds:[1000D008h],1000BCF8h
            F8 BC 00 10
  10003BFC: 5F                 pop         edi
  10003BFD: C3                 ret
  10003BFE: 33 C0              xor         eax,eax
  10003C00: A3 B8 F6 00 10     mov         dword ptr ds:[1000F6B8h],eax
  10003C05: C7 05 08 D0 00 10  mov         dword ptr ds:[1000D008h],100091F0h
            F0 91 00 10
  10003C0F: 5F                 pop         edi
  10003C10: C3                 ret
  10003C11: CC                 int         3
  10003C12: CC                 int         3
  10003C13: CC                 int         3
  10003C14: CC                 int         3
  10003C15: CC                 int         3
  10003C16: CC                 int         3
  10003C17: CC                 int         3
  10003C18: CC                 int         3
  10003C19: CC                 int         3
  10003C1A: CC                 int         3
  10003C1B: CC                 int         3
  10003C1C: CC                 int         3
  10003C1D: CC                 int         3
  10003C1E: CC                 int         3
  10003C1F: CC                 int         3
  10003C20: 53                 push        ebx
  10003C21: 56                 push        esi
  10003C22: 68 03 01 00 00     push        103h
  10003C27: 57                 push        edi
  10003C28: 6A 00              push        0
  10003C2A: FF 15 BC 90 00 10  call        dword ptr ds:[100090BCh]
  10003C30: 8B 1D 2C 90 00 10  mov         ebx,dword ptr ds:[1000902Ch]
  10003C36: 8B F0              mov         esi,eax
  10003C38: FF D3              call        ebx
  10003C3A: 83 F8 7A           cmp         eax,7Ah
  10003C3D: 75 1F              jne         10003C5E
  10003C3F: BE 23 00 00 C0     mov         esi,0C0000023h
  10003C44: FF D3              call        ebx
  10003C46: A3 B8 F6 00 10     mov         dword ptr ds:[1000F6B8h],eax
  10003C4B: 85 C0              test        eax,eax
  10003C4D: 8B C6              mov         eax,esi
  10003C4F: 74 33              je          10003C84
  10003C51: 5E                 pop         esi
  10003C52: C7 05 08 D0 00 10  mov         dword ptr ds:[1000D008h],1000BCF8h
            F8 BC 00 10
  10003C5C: 5B                 pop         ebx
  10003C5D: C3                 ret
  10003C5E: 83 EE 01           sub         esi,1
  10003C61: 78 15              js          10003C78
  10003C63: 66 83 3C 77 5C     cmp         word ptr [edi+esi*2],5Ch
  10003C68: 74 07              je          10003C71
  10003C6A: 83 EE 01           sub         esi,1
  10003C6D: 79 F4              jns         10003C63
  10003C6F: EB 07              jmp         10003C78
  10003C71: 66 C7 44 77 02 00  mov         word ptr [edi+esi*2+2],0
            00
  10003C78: C7 05 B8 F6 00 10  mov         dword ptr ds:[1000F6B8h],0
            00 00 00 00
  10003C82: 33 C0              xor         eax,eax
  10003C84: 5E                 pop         esi
  10003C85: C7 05 08 D0 00 10  mov         dword ptr ds:[1000D008h],100091F0h
            F0 91 00 10
  10003C8F: 5B                 pop         ebx
  10003C90: C3                 ret
  10003C91: CC                 int         3
  10003C92: CC                 int         3
  10003C93: CC                 int         3
  10003C94: CC                 int         3
  10003C95: CC                 int         3
  10003C96: CC                 int         3
  10003C97: CC                 int         3
  10003C98: CC                 int         3
  10003C99: CC                 int         3
  10003C9A: CC                 int         3
  10003C9B: CC                 int         3
  10003C9C: CC                 int         3
  10003C9D: CC                 int         3
  10003C9E: CC                 int         3
  10003C9F: CC                 int         3
  10003CA0: 83 7C 24 04 00     cmp         dword ptr [esp+4],0
  10003CA5: 75 0D              jne         10003CB4
  10003CA7: 68 D4 BC 00 10     push        1000BCD4h
  10003CAC: 6A 00              push        0
  10003CAE: FF 15 B8 90 00 10  call        dword ptr ds:[100090B8h]
  10003CB4: C2 04 00           ret         4
  10003CB7: CC                 int         3
  10003CB8: CC                 int         3
  10003CB9: CC                 int         3
  10003CBA: CC                 int         3
  10003CBB: CC                 int         3
  10003CBC: CC                 int         3
  10003CBD: CC                 int         3
  10003CBE: CC                 int         3
  10003CBF: CC                 int         3
  10003CC0: 85 C0              test        eax,eax
  10003CC2: A3 B8 F6 00 10     mov         dword ptr ds:[1000F6B8h],eax
  10003CC7: 75 0D              jne         10003CD6
  10003CC9: C7 05 08 D0 00 10  mov         dword ptr ds:[1000D008h],100091F0h
            F0 91 00 10
  10003CD3: C2 04 00           ret         4
  10003CD6: 8B 44 24 04        mov         eax,dword ptr [esp+4]
  10003CDA: A3 08 D0 00 10     mov         dword ptr ds:[1000D008h],eax
  10003CDF: C2 04 00           ret         4
  10003CE2: CC                 int         3
  10003CE3: CC                 int         3
  10003CE4: CC                 int         3
  10003CE5: CC                 int         3
  10003CE6: CC                 int         3
  10003CE7: CC                 int         3
  10003CE8: CC                 int         3
  10003CE9: CC                 int         3
  10003CEA: CC                 int         3
  10003CEB: CC                 int         3
  10003CEC: CC                 int         3
  10003CED: CC                 int         3
  10003CEE: CC                 int         3
  10003CEF: CC                 int         3
  10003CF0: A1 08 D0 00 10     mov         eax,dword ptr ds:[1000D008h]
  10003CF5: C3                 ret
  10003CF6: CC                 int         3
  10003CF7: CC                 int         3
  10003CF8: CC                 int         3
  10003CF9: CC                 int         3
  10003CFA: CC                 int         3
  10003CFB: CC                 int         3
  10003CFC: CC                 int         3
  10003CFD: CC                 int         3
  10003CFE: CC                 int         3
  10003CFF: CC                 int         3
  10003D00: A1 B8 F6 00 10     mov         eax,dword ptr ds:[1000F6B8h]
  10003D05: C3                 ret
  10003D06: CC                 int         3
  10003D07: CC                 int         3
  10003D08: CC                 int         3
  10003D09: CC                 int         3
  10003D0A: CC                 int         3
  10003D0B: CC                 int         3
  10003D0C: CC                 int         3
  10003D0D: CC                 int         3
  10003D0E: CC                 int         3
  10003D0F: CC                 int         3
  10003D10: B8 E1 10 00 10     mov         eax,100010E1h
  10003D15: 80 38 E9           cmp         byte ptr [eax],0E9h
  10003D18: 75 10              jne         10003D2A
  10003D1A: B8 E1 10 00 10     mov         eax,100010E1h
  10003D1F: 8B 40 01           mov         eax,dword ptr [eax+1]
  10003D22: 05 E1 10 00 10     add         eax,100010E1h
  10003D27: 83 C0 05           add         eax,5
  10003D2A: C3                 ret
  10003D2B: CC                 int         3
  10003D2C: CC                 int         3
  10003D2D: CC                 int         3
  10003D2E: CC                 int         3
  10003D2F: CC                 int         3
  10003D30: 55                 push        ebp
  10003D31: 8B EC              mov         ebp,esp
  10003D33: 83 EC 28           sub         esp,28h
  10003D36: 68 7C AE 00 10     push        1000AE7Ch
  10003D3B: A1 6C F6 00 10     mov         eax,dword ptr ds:[1000F66Ch]
  10003D40: 50                 push        eax
  10003D41: FF 15 34 90 00 10  call        dword ptr ds:[10009034h]
  10003D47: 89 45 FC           mov         dword ptr [ebp-4],eax
  10003D4A: 83 7D FC 00        cmp         dword ptr [ebp-4],0
  10003D4E: 75 04              jne         10003D54
  10003D50: 33 C0              xor         eax,eax
  10003D52: EB 18              jmp         10003D6C
  10003D54: 8D 4D D8           lea         ecx,[ebp-28h]
  10003D57: 51                 push        ecx
  10003D58: FF 55 FC           call        dword ptr [ebp-4]
  10003D5B: 0F B7 55 D8        movzx       edx,word ptr [ebp-28h]
  10003D5F: 85 D2              test        edx,edx
  10003D61: 75 04              jne         10003D67
  10003D63: 33 C0              xor         eax,eax
  10003D65: EB 05              jmp         10003D6C
  10003D67: B8 01 00 00 00     mov         eax,1
  10003D6C: 8B E5              mov         esp,ebp
  10003D6E: 5D                 pop         ebp
  10003D6F: C3                 ret
  10003D70: 68 3F 00 0F 00     push        0F003Fh
  10003D75: 6A 00              push        0
  10003D77: 6A 00              push        0
  10003D79: FF 15 08 90 00 10  call        dword ptr ds:[10009008h]
  10003D7F: 85 C0              test        eax,eax
  10003D81: 75 01              jne         10003D84
  10003D83: C3                 ret
  10003D84: 50                 push        eax
  10003D85: FF 15 10 90 00 10  call        dword ptr ds:[10009010h]
  10003D8B: B8 01 00 00 00     mov         eax,1
  10003D90: C3                 ret
  10003D91: CC                 int         3
  10003D92: CC                 int         3
  10003D93: CC                 int         3
  10003D94: CC                 int         3
  10003D95: CC                 int         3
  10003D96: CC                 int         3
  10003D97: CC                 int         3
  10003D98: CC                 int         3
  10003D99: CC                 int         3
  10003D9A: CC                 int         3
  10003D9B: CC                 int         3
  10003D9C: CC                 int         3
  10003D9D: CC                 int         3
  10003D9E: CC                 int         3
  10003D9F: CC                 int         3
  10003DA0: A1 50 D3 00 10     mov         eax,dword ptr ds:[1000D350h]
  10003DA5: 50                 push        eax
  10003DA6: FF 15 94 90 00 10  call        dword ptr ds:[10009094h]
  10003DAC: 85 C0              test        eax,eax
  10003DAE: 75 10              jne         10003DC0
  10003DB0: A3 B8 F6 00 10     mov         dword ptr ds:[1000F6B8h],eax
  10003DB5: C7 05 08 D0 00 10  mov         dword ptr ds:[1000D008h],100091F0h
            F0 91 00 10
  10003DBF: C3                 ret
  10003DC0: 56                 push        esi
  10003DC1: 57                 push        edi
  10003DC2: 50                 push        eax
  10003DC3: 6A 00              push        0
  10003DC5: 6A 02              push        2
  10003DC7: FF 15 78 90 00 10  call        dword ptr ds:[10009078h]
  10003DCD: 8B F8              mov         edi,eax
  10003DCF: 85 FF              test        edi,edi
  10003DD1: 75 20              jne         10003DF3
  10003DD3: BE E5 00 00 C0     mov         esi,0C00000E5h
  10003DD8: FF 15 2C 90 00 10  call        dword ptr ds:[1000902Ch]
  10003DDE: 85 C0              test        eax,eax
  10003DE0: A3 B8 F6 00 10     mov         dword ptr ds:[1000F6B8h],eax
  10003DE5: 74 43              je          10003E2A
  10003DE7: C7 05 08 D0 00 10  mov         dword ptr ds:[1000D008h],1000ABC0h
            C0 AB 00 10
  10003DF1: EB 41              jmp         10003E34
  10003DF3: 57                 push        edi
  10003DF4: FF 15 18 91 00 10  call        dword ptr ds:[10009118h]
  10003DFA: 85 C0              test        eax,eax
  10003DFC: 75 20              jne         10003E1E
  10003DFE: BE E5 00 00 C0     mov         esi,0C00000E5h
  10003E03: FF 15 2C 90 00 10  call        dword ptr ds:[1000902Ch]
  10003E09: 85 C0              test        eax,eax
  10003E0B: A3 B8 F6 00 10     mov         dword ptr ds:[1000F6B8h],eax
  10003E10: 74 18              je          10003E2A
  10003E12: C7 05 08 D0 00 10  mov         dword ptr ds:[1000D008h],1000AC00h
            00 AC 00 10
  10003E1C: EB 16              jmp         10003E34
  10003E1E: C7 05 B8 F6 00 10  mov         dword ptr ds:[1000F6B8h],0
            00 00 00 00
  10003E28: 33 F6              xor         esi,esi
  10003E2A: C7 05 08 D0 00 10  mov         dword ptr ds:[1000D008h],100091F0h
            F0 91 00 10
  10003E34: 85 FF              test        edi,edi
  10003E36: 74 07              je          10003E3F
  10003E38: 57                 push        edi
  10003E39: FF 15 54 90 00 10  call        dword ptr ds:[10009054h]
  10003E3F: 5F                 pop         edi
  10003E40: 8B C6              mov         eax,esi
  10003E42: 5E                 pop         esi
  10003E43: C3                 ret
  10003E44: CC                 int         3
  10003E45: CC                 int         3
  10003E46: CC                 int         3
  10003E47: CC                 int         3
  10003E48: CC                 int         3
  10003E49: CC                 int         3
  10003E4A: CC                 int         3
  10003E4B: CC                 int         3
  10003E4C: CC                 int         3
  10003E4D: CC                 int         3
  10003E4E: CC                 int         3
  10003E4F: CC                 int         3
  10003E50: 8B 0D 50 D3 00 10  mov         ecx,dword ptr ds:[1000D350h]
  10003E56: 50                 push        eax
  10003E57: 51                 push        ecx
  10003E58: FF 15 A0 90 00 10  call        dword ptr ds:[100090A0h]
  10003E5E: 85 C0              test        eax,eax
  10003E60: 75 2F              jne         10003E91
  10003E62: 56                 push        esi
  10003E63: BE E5 00 00 C0     mov         esi,0C00000E5h
  10003E68: FF 15 2C 90 00 10  call        dword ptr ds:[1000902Ch]
  10003E6E: A3 B8 F6 00 10     mov         dword ptr ds:[1000F6B8h],eax
  10003E73: 85 C0              test        eax,eax
  10003E75: 8B C6              mov         eax,esi
  10003E77: 75 0C              jne         10003E85
  10003E79: C7 05 08 D0 00 10  mov         dword ptr ds:[1000D008h],100091F0h
            F0 91 00 10
  10003E83: 5E                 pop         esi
  10003E84: C3                 ret
  10003E85: C7 05 08 D0 00 10  mov         dword ptr ds:[1000D008h],1000AB8Ch
            8C AB 00 10
  10003E8F: 5E                 pop         esi
  10003E90: C3                 ret
  10003E91: 33 C0              xor         eax,eax
  10003E93: A3 B8 F6 00 10     mov         dword ptr ds:[1000F6B8h],eax
  10003E98: C7 05 08 D0 00 10  mov         dword ptr ds:[1000D008h],100091F0h
            F0 91 00 10
  10003EA2: C3                 ret
  10003EA3: CC                 int         3
  10003EA4: CC                 int         3
  10003EA5: CC                 int         3
  10003EA6: CC                 int         3
  10003EA7: CC                 int         3
  10003EA8: CC                 int         3
  10003EA9: CC                 int         3
  10003EAA: CC                 int         3
  10003EAB: CC                 int         3
  10003EAC: CC                 int         3
  10003EAD: CC                 int         3
  10003EAE: CC                 int         3
  10003EAF: CC                 int         3
  10003EB0: A1 B4 F6 00 10     mov         eax,dword ptr ds:[1000F6B4h]
  10003EB5: 85 C0              test        eax,eax
  10003EB7: 75 44              jne         10003EFD
  10003EB9: BA E1 10 00 10     mov         edx,100010E1h
  10003EBE: 80 3A E9           cmp         byte ptr [edx],0E9h
  10003EC1: 75 11              jne         10003ED4
  10003EC3: B8 E1 10 00 10     mov         eax,100010E1h
  10003EC8: 8B 50 01           mov         edx,dword ptr [eax+1]
  10003ECB: 81 C2 E1 10 00 10  add         edx,100010E1h
  10003ED1: 83 C2 05           add         edx,5
  10003ED4: 8B C2              mov         eax,edx
  10003ED6: 33 C9              xor         ecx,ecx
  10003ED8: 81 38 78 56 34 12  cmp         dword ptr [eax],12345678h
  10003EDE: 74 1E              je          10003EFE
  10003EE0: 83 C1 01           add         ecx,1
  10003EE3: 83 C0 01           add         eax,1
  10003EE6: 81 F9 D0 07 00 00  cmp         ecx,7D0h
  10003EEC: 72 EA              jb          10003ED8
  10003EEE: 68 D4 BC 00 10     push        1000BCD4h
  10003EF3: 6A 00              push        0
  10003EF5: FF 15 B8 90 00 10  call        dword ptr ds:[100090B8h]
  10003EFB: 33 C0              xor         eax,eax
  10003EFD: C3                 ret
  10003EFE: 2B C2              sub         eax,edx
  10003F00: A3 B4 F6 00 10     mov         dword ptr ds:[1000F6B4h],eax
  10003F05: C3                 ret
  10003F06: CC                 int         3
  10003F07: CC                 int         3
  10003F08: CC                 int         3
  10003F09: CC                 int         3
  10003F0A: CC                 int         3
  10003F0B: CC                 int         3
  10003F0C: CC                 int         3
  10003F0D: CC                 int         3
  10003F0E: CC                 int         3
  10003F0F: CC                 int         3
  10003F10: 55                 push        ebp
  10003F11: 8B EC              mov         ebp,esp
  10003F13: 81 EC 84 04 00 00  sub         esp,484h
  10003F19: 56                 push        esi
  10003F1A: 57                 push        edi
  10003F1B: 6A 44              push        44h
  10003F1D: 8D 85 80 FB FF FF  lea         eax,[ebp+FFFFFB80h]
  10003F23: 50                 push        eax
  10003F24: E8 37 FA FF FF     call        10003960
  10003F29: 6A 10              push        10h
  10003F2B: 8D 4D F0           lea         ecx,[ebp-10h]
  10003F2E: 51                 push        ecx
  10003F2F: E8 2C FA FF FF     call        10003960
  10003F34: B9 04 00 00 00     mov         ecx,4
  10003F39: 8B 45 10           mov         eax,dword ptr [ebp+10h]
  10003F3C: E8 9F FA FF FF     call        100039E0
  10003F41: 85 C0              test        eax,eax
  10003F43: 75 24              jne         10003F69
  10003F45: C7 85 7C FB FF FF  mov         dword ptr [ebp+FFFFFB7Ch],0C00000F1h
            F1 00 00 C0
  10003F4F: 68 00 99 00 10     push        10009900h
  10003F54: FF 15 2C 90 00 10  call        dword ptr ds:[1000902Ch]
  10003F5A: E8 61 FD FF FF     call        10003CC0
  10003F5F: E9 5B 01 00 00     jmp         100040BF
  10003F64: E9 56 01 00 00     jmp         100040BF
  10003F69: B9 04 00 00 00     mov         ecx,4
  10003F6E: 8B 45 14           mov         eax,dword ptr [ebp+14h]
  10003F71: E8 6A FA FF FF     call        100039E0
  10003F76: 85 C0              test        eax,eax
  10003F78: 75 24              jne         10003F9E
  10003F7A: C7 85 7C FB FF FF  mov         dword ptr [ebp+FFFFFB7Ch],0C00000F2h
            F2 00 00 C0
  10003F84: 68 08 AF 00 10     push        1000AF08h
  10003F89: FF 15 2C 90 00 10  call        dword ptr ds:[1000902Ch]
  10003F8F: E8 2C FD FF FF     call        10003CC0
  10003F94: E9 26 01 00 00     jmp         100040BF
  10003F99: E9 21 01 00 00     jmp         100040BF
  10003F9E: 8B 45 08           mov         eax,dword ptr [ebp+8]
  10003FA1: E8 DA FB FF FF     call        10003B80
  10003FA6: 85 C0              test        eax,eax
  10003FA8: 75 24              jne         10003FCE
  10003FAA: C7 85 7C FB FF FF  mov         dword ptr [ebp+FFFFFB7Ch],0C00000EFh
            EF 00 00 C0
  10003FB4: 68 58 AF 00 10     push        1000AF58h
  10003FB9: FF 15 2C 90 00 10  call        dword ptr ds:[1000902Ch]
  10003FBF: E8 FC FC FF FF     call        10003CC0
  10003FC4: E9 F6 00 00 00     jmp         100040BF
  10003FC9: E9 F1 00 00 00     jmp         100040BF
  10003FCE: 8D 95 CC FB FF FF  lea         edx,[ebp+FFFFFBCCh]
  10003FD4: 52                 push        edx
  10003FD5: 8D 85 E0 FD FF FF  lea         eax,[ebp+FFFFFDE0h]
  10003FDB: 50                 push        eax
  10003FDC: 68 04 01 00 00     push        104h
  10003FE1: 8B 4D 08           mov         ecx,dword ptr [ebp+8]
  10003FE4: 51                 push        ecx
  10003FE5: FF 15 3C 90 00 10  call        dword ptr ds:[1000903Ch]
  10003FEB: 3D 04 01 00 00     cmp         eax,104h
  10003FF0: 76 24              jbe         10004016
  10003FF2: C7 85 7C FB FF FF  mov         dword ptr [ebp+FFFFFB7Ch],0C00000EFh
            EF 00 00 C0
  10003FFC: 68 A8 AF 00 10     push        1000AFA8h
  10004001: FF 15 2C 90 00 10  call        dword ptr ds:[1000902Ch]
  10004007: E8 B4 FC FF FF     call        10003CC0
  1000400C: E9 AE 00 00 00     jmp         100040BF
  10004011: E9 A9 00 00 00     jmp         100040BF
  10004016: B9 0A 02 00 00     mov         ecx,20Ah
  1000401B: 8D B5 E0 FD FF FF  lea         esi,[ebp+FFFFFDE0h]
  10004021: 8D BD D0 FB FF FF  lea         edi,[ebp+FFFFFBD0h]
  10004027: E8 74 F9 FF FF     call        100039A0
  1000402C: 8B 95 CC FB FF FF  mov         edx,dword ptr [ebp+FFFFFBCCh]
  10004032: 66 C7 02 00 00     mov         word ptr [edx],0
  10004037: C7 85 80 FB FF FF  mov         dword ptr [ebp+FFFFFB80h],44h
            44 00 00 00
  10004041: 66 C7 85 B0 FB FF  mov         word ptr [ebp+FFFFFBB0h],1
            FF 01 00
  1000404A: 8D 45 F0           lea         eax,[ebp-10h]
  1000404D: 50                 push        eax
  1000404E: 8D 8D 80 FB FF FF  lea         ecx,[ebp+FFFFFB80h]
  10004054: 51                 push        ecx
  10004055: 8D 95 E0 FD FF FF  lea         edx,[ebp+FFFFFDE0h]
  1000405B: 52                 push        edx
  1000405C: 6A 00              push        0
  1000405E: 6A 0C              push        0Ch
  10004060: 6A 00              push        0
  10004062: 6A 00              push        0
  10004064: 6A 00              push        0
  10004066: 8B 45 0C           mov         eax,dword ptr [ebp+0Ch]
  10004069: 50                 push        eax
  1000406A: 8D 8D D0 FB FF FF  lea         ecx,[ebp+FFFFFBD0h]
  10004070: 51                 push        ecx
  10004071: FF 15 98 90 00 10  call        dword ptr ds:[10009098h]
  10004077: 85 C0              test        eax,eax
  10004079: 75 1E              jne         10004099
  1000407B: C7 85 7C FB FF FF  mov         dword ptr [ebp+FFFFFB7Ch],0C000000Dh
            0D 00 00 C0
  10004085: 68 10 B0 00 10     push        1000B010h
  1000408A: FF 15 2C 90 00 10  call        dword ptr ds:[1000902Ch]
  10004090: E8 2B FC FF FF     call        10003CC0
  10004095: EB 28              jmp         100040BF
  10004097: EB 26              jmp         100040BF
  10004099: 8B 55 10           mov         edx,dword ptr [ebp+10h]
  1000409C: 8B 45 F8           mov         eax,dword ptr [ebp-8]
  1000409F: 89 02              mov         dword ptr [edx],eax
  100040A1: 8B 4D 14           mov         ecx,dword ptr [ebp+14h]
  100040A4: 8B 55 FC           mov         edx,dword ptr [ebp-4]
  100040A7: 89 11              mov         dword ptr [ecx],edx
  100040A9: 68 F0 91 00 10     push        100091F0h
  100040AE: 33 C0              xor         eax,eax
  100040B0: E8 0B FC FF FF     call        10003CC0
  100040B5: C7 85 7C FB FF FF  mov         dword ptr [ebp+FFFFFB7Ch],0
            00 00 00 00
  100040BF: 83 7D F0 00        cmp         dword ptr [ebp-10h],0
  100040C3: 74 0A              je          100040CF
  100040C5: 8B 45 F0           mov         eax,dword ptr [ebp-10h]
  100040C8: 50                 push        eax
  100040C9: FF 15 54 90 00 10  call        dword ptr ds:[10009054h]
  100040CF: 83 7D F4 00        cmp         dword ptr [ebp-0Ch],0
  100040D3: 74 0A              je          100040DF
  100040D5: 8B 4D F4           mov         ecx,dword ptr [ebp-0Ch]
  100040D8: 51                 push        ecx
  100040D9: FF 15 54 90 00 10  call        dword ptr ds:[10009054h]
  100040DF: 8B 85 7C FB FF FF  mov         eax,dword ptr [ebp+FFFFFB7Ch]
  100040E5: 5F                 pop         edi
  100040E6: 5E                 pop         esi
  100040E7: 8B E5              mov         esp,ebp
  100040E9: 5D                 pop         ebp
  100040EA: C2 10 00           ret         10h
  100040ED: CC                 int         3
  100040EE: CC                 int         3
  100040EF: CC                 int         3
  100040F0: 83 EC 28           sub         esp,28h
  100040F3: 53                 push        ebx
  100040F4: 8B 5C 24 34        mov         ebx,dword ptr [esp+34h]
  100040F8: 85 DB              test        ebx,ebx
  100040FA: 56                 push        esi
  100040FB: C7 44 24 08 00 00  mov         dword ptr [esp+8],0
            00 00
  10004103: 74 6E              je          10004173
  10004105: 83 FB FF           cmp         ebx,0FFFFFFFFh
  10004108: 74 69              je          10004173
  1000410A: 6A 04              push        4
  1000410C: 53                 push        ebx
  1000410D: FF 15 CC 90 00 10  call        dword ptr ds:[100090CCh]
  10004113: 85 C0              test        eax,eax
  10004115: 74 0D              je          10004124
  10004117: 68 D4 BC 00 10     push        1000BCD4h
  1000411C: 6A 00              push        0
  1000411E: FF 15 B8 90 00 10  call        dword ptr ds:[100090B8h]
  10004124: 8B 44 24 34        mov         eax,dword ptr [esp+34h]
  10004128: 57                 push        edi
  10004129: 50                 push        eax
  1000412A: 6A 00              push        0
  1000412C: 68 00 04 00 00     push        400h
  10004131: FF 15 64 90 00 10  call        dword ptr ds:[10009064h]
  10004137: 85 C0              test        eax,eax
  10004139: 89 44 24 3C        mov         dword ptr [esp+3Ch],eax
  1000413D: 0F 85 8D 00 00 00  jne         100041D0
  10004143: 8B 3D 2C 90 00 10  mov         edi,dword ptr ds:[1000902Ch]
  10004149: FF D7              call        edi
  1000414B: 83 F8 05           cmp         eax,5
  1000414E: 75 5D              jne         100041AD
  10004150: BE 22 00 00 C0     mov         esi,0C0000022h
  10004155: FF D7              call        edi
  10004157: 85 C0              test        eax,eax
  10004159: A3 B8 F6 00 10     mov         dword ptr ds:[1000F6B8h],eax
  1000415E: 0F 84 F5 00 00 00  je          10004259
  10004164: C7 05 08 D0 00 10  mov         dword ptr ds:[1000D008h],1000AC98h
            98 AC 00 10
  1000416E: E9 F0 00 00 00     jmp         10004263
  10004173: BE F0 00 00 C0     mov         esi,0C00000F0h
  10004178: FF 15 2C 90 00 10  call        dword ptr ds:[1000902Ch]
  1000417E: A3 B8 F6 00 10     mov         dword ptr ds:[1000F6B8h],eax
  10004183: 85 C0              test        eax,eax
  10004185: 8B C6              mov         eax,esi
  10004187: 75 12              jne         1000419B
  10004189: 5E                 pop         esi
  1000418A: C7 05 08 D0 00 10  mov         dword ptr ds:[1000D008h],100091F0h
            F0 91 00 10
  10004194: 5B                 pop         ebx
  10004195: 83 C4 28           add         esp,28h
  10004198: C2 08 00           ret         8
  1000419B: 5E                 pop         esi
  1000419C: C7 05 08 D0 00 10  mov         dword ptr ds:[1000D008h],1000AE20h
            20 AE 00 10
  100041A6: 5B                 pop         ebx
  100041A7: 83 C4 28           add         esp,28h
  100041AA: C2 08 00           ret         8
  100041AD: BE 25 02 00 C0     mov         esi,0C0000225h
  100041B2: FF D7              call        edi
  100041B4: 85 C0              test        eax,eax
  100041B6: A3 B8 F6 00 10     mov         dword ptr ds:[1000F6B8h],eax
  100041BB: 0F 84 98 00 00 00  je          10004259
  100041C1: C7 05 08 D0 00 10  mov         dword ptr ds:[1000D008h],1000ACE8h
            E8 AC 00 10
  100041CB: E9 93 00 00 00     jmp         10004263
  100041D0: 8B 0D 6C F6 00 10  mov         ecx,dword ptr ds:[1000F66Ch]
  100041D6: 8B 3D 34 90 00 10  mov         edi,dword ptr ds:[10009034h]
  100041DC: 68 6C AE 00 10     push        1000AE6Ch
  100041E1: 51                 push        ecx
  100041E2: FF D7              call        edi
  100041E4: 8B F0              mov         esi,eax
  100041E6: 85 F6              test        esi,esi
  100041E8: C7 44 24 0C 00 00  mov         dword ptr [esp+0Ch],0
            00 00
  100041F0: 74 55              je          10004247
  100041F2: 8B 15 6C F6 00 10  mov         edx,dword ptr ds:[1000F66Ch]
  100041F8: 68 7C AE 00 10     push        1000AE7Ch
  100041FD: 52                 push        edx
  100041FE: FF D7              call        edi
  10004200: 85 C0              test        eax,eax
  10004202: 74 43              je          10004247
  10004204: 8D 4C 24 10        lea         ecx,[esp+10h]
  10004208: 51                 push        ecx
  10004209: FF D0              call        eax
  1000420B: 66 83 7C 24 10 00  cmp         word ptr [esp+10h],0
  10004211: 74 34              je          10004247
  10004213: 8B 44 24 3C        mov         eax,dword ptr [esp+3Ch]
  10004217: 8D 54 24 0C        lea         edx,[esp+0Ch]
  1000421B: 52                 push        edx
  1000421C: 50                 push        eax
  1000421D: FF D6              call        esi
  1000421F: 85 C0              test        eax,eax
  10004221: 75 17              jne         1000423A
  10004223: 68 90 AE 00 10     push        1000AE90h
  10004228: BE E5 00 00 C0     mov         esi,0C00000E5h
  1000422D: FF 15 2C 90 00 10  call        dword ptr ds:[1000902Ch]
  10004233: E8 88 FA FF FF     call        10003CC0
  10004238: EB 29              jmp         10004263
  1000423A: 33 C9              xor         ecx,ecx
  1000423C: 39 4C 24 0C        cmp         dword ptr [esp+0Ch],ecx
  10004240: 0F 94 C1           sete        cl
  10004243: 89 4C 24 0C        mov         dword ptr [esp+0Ch],ecx
  10004247: 8B 54 24 0C        mov         edx,dword ptr [esp+0Ch]
  1000424B: 89 13              mov         dword ptr [ebx],edx
  1000424D: C7 05 B8 F6 00 10  mov         dword ptr ds:[1000F6B8h],0
            00 00 00 00
  10004257: 33 F6              xor         esi,esi
  10004259: C7 05 08 D0 00 10  mov         dword ptr ds:[1000D008h],100091F0h
            F0 91 00 10
  10004263: 8B 44 24 3C        mov         eax,dword ptr [esp+3Ch]
  10004267: 85 C0              test        eax,eax
  10004269: 5F                 pop         edi
  1000426A: 74 07              je          10004273
  1000426C: 50                 push        eax
  1000426D: FF 15 54 90 00 10  call        dword ptr ds:[10009054h]
  10004273: 8B C6              mov         eax,esi
  10004275: 5E                 pop         esi
  10004276: 5B                 pop         ebx
  10004277: 83 C4 28           add         esp,28h
  1000427A: C2 08 00           ret         8
  1000427D: CC                 int         3
  1000427E: CC                 int         3
  1000427F: CC                 int         3
  10004280: 51                 push        ecx
  10004281: 56                 push        esi
  10004282: 8B F0              mov         esi,eax
  10004284: 85 F6              test        esi,esi
  10004286: 74 59              je          100042E1
  10004288: 83 FE FF           cmp         esi,0FFFFFFFFh
  1000428B: 74 54              je          100042E1
  1000428D: 6A 04              push        4
  1000428F: 56                 push        esi
  10004290: FF 15 CC 90 00 10  call        dword ptr ds:[100090CCh]
  10004296: 85 C0              test        eax,eax
  10004298: 74 0D              je          100042A7
  1000429A: 68 D4 BC 00 10     push        1000BCD4h
  1000429F: 6A 00              push        0
  100042A1: FF 15 B8 90 00 10  call        dword ptr ds:[100090B8h]
  100042A7: A1 68 F6 00 10     mov         eax,dword ptr ds:[1000F668h]
  100042AC: 68 BC AD 00 10     push        1000ADBCh
  100042B1: 50                 push        eax
  100042B2: FF 15 34 90 00 10  call        dword ptr ds:[10009034h]
  100042B8: 85 C0              test        eax,eax
  100042BA: 75 4A              jne         10004306
  100042BC: BE BB 00 00 C0     mov         esi,0C00000BBh
  100042C1: FF 15 2C 90 00 10  call        dword ptr ds:[1000902Ch]
  100042C7: A3 B8 F6 00 10     mov         dword ptr ds:[1000F6B8h],eax
  100042CC: 85 C0              test        eax,eax
  100042CE: 8B C6              mov         eax,esi
  100042D0: 74 71              je          10004343
  100042D2: C7 05 08 D0 00 10  mov         dword ptr ds:[1000D008h],1000ADD0h
            D0 AD 00 10
  100042DC: 5E                 pop         esi
  100042DD: 59                 pop         ecx
  100042DE: C2 0C 00           ret         0Ch
  100042E1: BE F2 00 00 C0     mov         esi,0C00000F2h
  100042E6: FF 15 2C 90 00 10  call        dword ptr ds:[1000902Ch]
  100042EC: A3 B8 F6 00 10     mov         dword ptr ds:[1000F6B8h],eax
  100042F1: 85 C0              test        eax,eax
  100042F3: 8B C6              mov         eax,esi
  100042F5: 74 4C              je          10004343
  100042F7: C7 05 08 D0 00 10  mov         dword ptr ds:[1000D008h],1000AD70h
            70 AD 00 10
  10004301: 5E                 pop         esi
  10004302: 59                 pop         ecx
  10004303: C2 0C 00           ret         0Ch
  10004306: 8B 4C 24 14        mov         ecx,dword ptr [esp+14h]
  1000430A: 8B 54 24 10        mov         edx,dword ptr [esp+10h]
  1000430E: 6A 00              push        0
  10004310: 6A 00              push        0
  10004312: 6A 00              push        0
  10004314: 6A 00              push        0
  10004316: 6A 00              push        0
  10004318: 51                 push        ecx
  10004319: 8B 4C 24 24        mov         ecx,dword ptr [esp+24h]
  1000431D: 52                 push        edx
  1000431E: 51                 push        ecx
  1000431F: 6A 00              push        0
  10004321: 68 FF FF 1F 00     push        1FFFFFh
  10004326: 8D 54 24 2C        lea         edx,[esp+2Ch]
  1000432A: 52                 push        edx
  1000432B: FF D0              call        eax
  1000432D: 85 C0              test        eax,eax
  1000432F: 7C 1C              jl          1000434D
  10004331: 8B 44 24 04        mov         eax,dword ptr [esp+4]
  10004335: 89 06              mov         dword ptr [esi],eax
  10004337: C7 05 B8 F6 00 10  mov         dword ptr ds:[1000F6B8h],0
            00 00 00 00
  10004341: 33 C0              xor         eax,eax
  10004343: C7 05 08 D0 00 10  mov         dword ptr ds:[1000D008h],100091F0h
            F0 91 00 10
  1000434D: 5E                 pop         esi
  1000434E: 59                 pop         ecx
  1000434F: C2 0C 00           ret         0Ch
  10004352: CC                 int         3
  10004353: CC                 int         3
  10004354: CC                 int         3
  10004355: CC                 int         3
  10004356: CC                 int         3
  10004357: CC                 int         3
  10004358: CC                 int         3
  10004359: CC                 int         3
  1000435A: CC                 int         3
  1000435B: CC                 int         3
  1000435C: CC                 int         3
  1000435D: CC                 int         3
  1000435E: CC                 int         3
  1000435F: CC                 int         3
  10004360: 56                 push        esi
  10004361: 8B 74 24 0C        mov         esi,dword ptr [esp+0Ch]
  10004365: 85 F6              test        esi,esi
  10004367: 74 69              je          100043D2
  10004369: 83 FE FF           cmp         esi,0FFFFFFFFh
  1000436C: 74 64              je          100043D2
  1000436E: 6A 04              push        4
  10004370: 56                 push        esi
  10004371: FF 15 CC 90 00 10  call        dword ptr ds:[100090CCh]
  10004377: 85 C0              test        eax,eax
  10004379: 74 0D              je          10004388
  1000437B: 68 D4 BC 00 10     push        1000BCD4h
  10004380: 6A 00              push        0
  10004382: FF 15 B8 90 00 10  call        dword ptr ds:[100090B8h]
  10004388: 8B 44 24 08        mov         eax,dword ptr [esp+8]
  1000438C: 53                 push        ebx
  1000438D: 57                 push        edi
  1000438E: 50                 push        eax
  1000438F: 6A 00              push        0
  10004391: 68 00 04 00 00     push        400h
  10004396: FF 15 64 90 00 10  call        dword ptr ds:[10009064h]
  1000439C: 8B D8              mov         ebx,eax
  1000439E: 85 DB              test        ebx,ebx
  100043A0: 75 7E              jne         10004420
  100043A2: 8B 3D 2C 90 00 10  mov         edi,dword ptr ds:[1000902Ch]
  100043A8: FF D7              call        edi
  100043AA: 83 F8 05           cmp         eax,5
  100043AD: 75 55              jne         10004404
  100043AF: BE 22 00 00 C0     mov         esi,0C0000022h
  100043B4: FF D7              call        edi
  100043B6: 85 C0              test        eax,eax
  100043B8: A3 B8 F6 00 10     mov         dword ptr ds:[1000F6B8h],eax
  100043BD: 0F 84 9A 00 00 00  je          1000445D
  100043C3: C7 05 08 D0 00 10  mov         dword ptr ds:[1000D008h],1000AC98h
            98 AC 00 10
  100043CD: E9 95 00 00 00     jmp         10004467
  100043D2: BE F0 00 00 C0     mov         esi,0C00000F0h
  100043D7: FF 15 2C 90 00 10  call        dword ptr ds:[1000902Ch]
  100043DD: A3 B8 F6 00 10     mov         dword ptr ds:[1000F6B8h],eax
  100043E2: 85 C0              test        eax,eax
  100043E4: 8B C6              mov         eax,esi
  100043E6: 75 0E              jne         100043F6
  100043E8: C7 05 08 D0 00 10  mov         dword ptr ds:[1000D008h],100091F0h
            F0 91 00 10
  100043F2: 5E                 pop         esi
  100043F3: C2 08 00           ret         8
  100043F6: C7 05 08 D0 00 10  mov         dword ptr ds:[1000D008h],1000AC50h
            50 AC 00 10
  10004400: 5E                 pop         esi
  10004401: C2 08 00           ret         8
  10004404: BE 25 02 00 C0     mov         esi,0C0000225h
  10004409: FF D7              call        edi
  1000440B: 85 C0              test        eax,eax
  1000440D: A3 B8 F6 00 10     mov         dword ptr ds:[1000F6B8h],eax
  10004412: 74 49              je          1000445D
  10004414: C7 05 08 D0 00 10  mov         dword ptr ds:[1000D008h],1000ACE8h
            E8 AC 00 10
  1000441E: EB 47              jmp         10004467
  10004420: 56                 push        esi
  10004421: 68 08 00 02 00     push        20008h
  10004426: 53                 push        ebx
  10004427: FF 15 00 90 00 10  call        dword ptr ds:[10009000h]
  1000442D: 85 C0              test        eax,eax
  1000442F: 75 20              jne         10004451
  10004431: BE E5 00 00 C0     mov         esi,0C00000E5h
  10004436: FF 15 2C 90 00 10  call        dword ptr ds:[1000902Ch]
  1000443C: 85 C0              test        eax,eax
  1000443E: A3 B8 F6 00 10     mov         dword ptr ds:[1000F6B8h],eax
  10004443: 74 18              je          1000445D
  10004445: C7 05 08 D0 00 10  mov         dword ptr ds:[1000D008h],1000AD2Ch
            2C AD 00 10
  1000444F: EB 16              jmp         10004467
  10004451: C7 05 B8 F6 00 10  mov         dword ptr ds:[1000F6B8h],0
            00 00 00 00
  1000445B: 33 F6              xor         esi,esi
  1000445D: C7 05 08 D0 00 10  mov         dword ptr ds:[1000D008h],100091F0h
            F0 91 00 10
  10004467: 85 DB              test        ebx,ebx
  10004469: 74 07              je          10004472
  1000446B: 53                 push        ebx
  1000446C: FF 15 54 90 00 10  call        dword ptr ds:[10009054h]
  10004472: 5F                 pop         edi
  10004473: 5B                 pop         ebx
  10004474: 8B C6              mov         eax,esi
  10004476: 5E                 pop         esi
  10004477: C2 08 00           ret         8
  1000447A: CC                 int         3
  1000447B: CC                 int         3
  1000447C: CC                 int         3
  1000447D: CC                 int         3
  1000447E: CC                 int         3
  1000447F: CC                 int         3
  10004480: 55                 push        ebp
  10004481: 8B EC              mov         ebp,esp
  10004483: 83 E4 F8           and         esp,0FFFFFFF8h
  10004486: 81 EC 74 06 00 00  sub         esp,674h
  1000448C: 8B 4D 20           mov         ecx,dword ptr [ebp+20h]
  1000448F: 53                 push        ebx
  10004490: 33 DB              xor         ebx,ebx
  10004492: 81 F9 00 00 01 00  cmp         ecx,10000h
  10004498: 56                 push        esi
  10004499: 57                 push        edi
  1000449A: 89 5C 24 14        mov         dword ptr [esp+14h],ebx
  1000449E: 89 5C 24 24        mov         dword ptr [esp+24h],ebx
  100044A2: 89 5C 24 34        mov         dword ptr [esp+34h],ebx
  100044A6: 76 32              jbe         100044DA
  100044A8: BE F5 00 00 C0     mov         esi,0C00000F5h
  100044AD: FF 15 2C 90 00 10  call        dword ptr ds:[1000902Ch]
  100044B3: 3B C3              cmp         eax,ebx
  100044B5: A3 B8 F6 00 10     mov         dword ptr ds:[1000F6B8h],eax
  100044BA: 75 0F              jne         100044CB
  100044BC: C7 05 08 D0 00 10  mov         dword ptr ds:[1000D008h],100091F0h
            F0 91 00 10
  100044C6: E9 E7 06 00 00     jmp         10004BB2
  100044CB: C7 05 08 D0 00 10  mov         dword ptr ds:[1000D008h],1000B0A8h
            A8 B0 00 10
  100044D5: E9 D8 06 00 00     jmp         10004BB2
  100044DA: 8B 45 1C           mov         eax,dword ptr [ebp+1Ch]
  100044DD: 3B C3              cmp         eax,ebx
  100044DF: 0F 84 9B 00 00 00  je          10004580
  100044E5: 83 F8 FF           cmp         eax,0FFFFFFFFh
  100044E8: 74 64              je          1000454E
  100044EA: 51                 push        ecx
  100044EB: 50                 push        eax
  100044EC: FF 15 CC 90 00 10  call        dword ptr ds:[100090CCh]
  100044F2: 85 C0              test        eax,eax
  100044F4: 74 0C              je          10004502
  100044F6: 68 D4 BC 00 10     push        1000BCD4h
  100044FB: 53                 push        ebx
  100044FC: FF 15 B8 90 00 10  call        dword ptr ds:[100090B8h]
  10004502: 8B 75 08           mov         esi,dword ptr [ebp+8]
  10004505: 56                 push        esi
  10004506: 53                 push        ebx
  10004507: 68 FF 0F 1F 00     push        1F0FFFh
  1000450C: FF 15 64 90 00 10  call        dword ptr ds:[10009064h]
  10004512: 3B C3              cmp         eax,ebx
  10004514: 89 44 24 10        mov         dword ptr [esp+10h],eax
  10004518: 0F 85 D9 00 00 00  jne         100045F7
  1000451E: 8B 3D 2C 90 00 10  mov         edi,dword ptr ds:[1000902Ch]
  10004524: FF D7              call        edi
  10004526: 83 F8 05           cmp         eax,5
  10004529: 0F 85 9A 00 00 00  jne         100045C9
  1000452F: BE 22 00 00 C0     mov         esi,0C0000022h
  10004534: FF D7              call        edi
  10004536: 3B C3              cmp         eax,ebx
  10004538: A3 B8 F6 00 10     mov         dword ptr ds:[1000F6B8h],eax
  1000453D: 75 7B              jne         100045BA
  1000453F: C7 05 08 D0 00 10  mov         dword ptr ds:[1000D008h],100091F0h
            F0 91 00 10
  10004549: E9 3E 06 00 00     jmp         10004B8C
  1000454E: BE F4 00 00 C0     mov         esi,0C00000F4h
  10004553: FF 15 2C 90 00 10  call        dword ptr ds:[1000902Ch]
  10004559: 3B C3              cmp         eax,ebx
  1000455B: A3 B8 F6 00 10     mov         dword ptr ds:[1000F6B8h],eax
  10004560: 75 0F              jne         10004571
  10004562: C7 05 08 D0 00 10  mov         dword ptr ds:[1000D008h],100091F0h
            F0 91 00 10
  1000456C: E9 41 06 00 00     jmp         10004BB2
  10004571: C7 05 08 D0 00 10  mov         dword ptr ds:[1000D008h],1000B100h
            00 B1 00 10
  1000457B: E9 32 06 00 00     jmp         10004BB2
  10004580: 3B CB              cmp         ecx,ebx
  10004582: 0F 84 7A FF FF FF  je          10004502
  10004588: BE F5 00 00 C0     mov         esi,0C00000F5h
  1000458D: FF 15 2C 90 00 10  call        dword ptr ds:[1000902Ch]
  10004593: 3B C3              cmp         eax,ebx
  10004595: A3 B8 F6 00 10     mov         dword ptr ds:[1000F6B8h],eax
  1000459A: 75 0F              jne         100045AB
  1000459C: C7 05 08 D0 00 10  mov         dword ptr ds:[1000D008h],100091F0h
            F0 91 00 10
  100045A6: E9 07 06 00 00     jmp         10004BB2
  100045AB: C7 05 08 D0 00 10  mov         dword ptr ds:[1000D008h],1000B150h
            50 B1 00 10
  100045B5: E9 F8 05 00 00     jmp         10004BB2
  100045BA: C7 05 08 D0 00 10  mov         dword ptr ds:[1000D008h],1000A580h
            80 A5 00 10
  100045C4: E9 C3 05 00 00     jmp         10004B8C
  100045C9: BE 25 02 00 C0     mov         esi,0C0000225h
  100045CE: FF D7              call        edi
  100045D0: 3B C3              cmp         eax,ebx
  100045D2: A3 B8 F6 00 10     mov         dword ptr ds:[1000F6B8h],eax
  100045D7: 75 0F              jne         100045E8
  100045D9: C7 05 08 D0 00 10  mov         dword ptr ds:[1000D008h],100091F0h
            F0 91 00 10
  100045E3: E9 A4 05 00 00     jmp         10004B8C
  100045E8: C7 05 08 D0 00 10  mov         dword ptr ds:[1000D008h],1000A600h
            00 A6 00 10
  100045F2: E9 95 05 00 00     jmp         10004B8C
  100045F7: 8D 44 24 3C        lea         eax,[esp+3Ch]
  100045FB: 50                 push        eax
  100045FC: 56                 push        esi
  100045FD: E8 EE FA FF FF     call        100040F0
  10004602: 8B F0              mov         esi,eax
  10004604: 3B F3              cmp         esi,ebx
  10004606: 0F 8C 80 05 00 00  jl          10004B8C
  1000460C: 39 5C 24 3C        cmp         dword ptr [esp+3Ch],ebx
  10004610: 74 0F              je          10004621
  10004612: BE 98 98 00 C0     mov         esi,0C0009898h
  10004617: 68 F0 B1 00 10     push        1000B1F0h
  1000461C: E9 60 05 00 00     jmp         10004B81
  10004621: 8B 55 14           mov         edx,dword ptr [ebp+14h]
  10004624: 6A 00              push        0
  10004626: 8D 8C 24 64 02 00  lea         ecx,[esp+00000264h]
            00
  1000462D: 51                 push        ecx
  1000462E: 68 04 01 00 00     push        104h
  10004633: 52                 push        edx
  10004634: FF 15 3C 90 00 10  call        dword ptr ds:[1000903Ch]
  1000463A: 85 C0              test        eax,eax
  1000463C: 75 0F              jne         1000464D
  1000463E: BE F2 00 00 C0     mov         esi,0C00000F2h
  10004643: 68 70 B2 00 10     push        1000B270h
  10004648: E9 34 05 00 00     jmp         10004B81
  1000464D: 8D 84 24 60 02 00  lea         eax,[esp+00000260h]
            00
  10004654: E8 27 F5 FF FF     call        10003B80
  10004659: 85 C0              test        eax,eax
  1000465B: 75 0F              jne         1000466C
  1000465D: BE F2 00 00 C0     mov         esi,0C00000F2h
  10004662: 68 E0 B2 00 10     push        1000B2E0h
  10004667: E9 15 05 00 00     jmp         10004B81
  1000466C: 8D 7C 24 50        lea         edi,[esp+50h]
  10004670: E8 AB F5 FF FF     call        10003C20
  10004675: 8D 84 24 70 04 00  lea         eax,[esp+00000470h]
            00
  1000467C: E8 2F F5 FF FF     call        10003BB0
  10004681: 8D 8C 24 70 04 00  lea         ecx,[esp+00000470h]
            00
  10004688: E8 93 F2 FF FF     call        10003920
  1000468D: 8D 74 00 02        lea         esi,[eax+eax+2]
  10004691: B9 88 B0 00 10     mov         ecx,1000B088h
  10004696: 89 74 24 2C        mov         dword ptr [esp+2Ch],esi
  1000469A: E8 A1 F2 FF FF     call        10003940
  1000469F: 8B D8              mov         ebx,eax
  100046A1: 8B CF              mov         ecx,edi
  100046A3: 83 C3 01           add         ebx,1
  100046A6: E8 75 F2 FF FF     call        10003920
  100046AB: 8D 54 00 04        lea         edx,[eax+eax+4]
  100046AF: 8D 8C 24 60 02 00  lea         ecx,[esp+00000260h]
            00
  100046B6: 89 54 24 30        mov         dword ptr [esp+30h],edx
  100046BA: E8 61 F2 FF FF     call        10003920
  100046BF: 8D 4C 00 04        lea         ecx,[eax+eax+4]
  100046C3: 89 4C 24 28        mov         dword ptr [esp+28h],ecx
  100046C7: 8B C2              mov         eax,edx
  100046C9: D1 E8              shr         eax,1
  100046CB: 03 CA              add         ecx,edx
  100046CD: 66 C7 44 44 4C 3B  mov         word ptr [esp+eax*2+4Ch],3Bh
            00
  100046D4: 03 CB              add         ecx,ebx
  100046D6: 66 C7 44 44 4E 00  mov         word ptr [esp+eax*2+4Eh],0
            00
  100046DD: 8B 45 20           mov         eax,dword ptr [ebp+20h]
  100046E0: 03 CE              add         ecx,esi
  100046E2: 8D 84 01 80 00 00  lea         eax,[ecx+eax+00000080h]
            00
  100046E9: 8B 0D 74 F6 00 10  mov         ecx,dword ptr ds:[1000F674h]
  100046EF: 50                 push        eax
  100046F0: 6A 00              push        0
  100046F2: 51                 push        ecx
  100046F3: 89 44 24 24        mov         dword ptr [esp+24h],eax
  100046F7: FF 15 C4 90 00 10  call        dword ptr ds:[100090C4h]
  100046FD: 8B F0              mov         esi,eax
  100046FF: 85 F6              test        esi,esi
  10004701: 74 0B              je          1000470E
  10004703: 8B 54 24 18        mov         edx,dword ptr [esp+18h]
  10004707: 52                 push        edx
  10004708: 56                 push        esi
  10004709: E8 52 F2 FF FF     call        10003960
  1000470E: 85 F6              test        esi,esi
  10004710: 89 74 24 34        mov         dword ptr [esp+34h],esi
  10004714: 75 0F              jne         10004725
  10004716: BE 17 00 00 C0     mov         esi,0C0000017h
  1000471B: 68 38 B3 00 10     push        1000B338h
  10004720: E9 5C 04 00 00     jmp         10004B81
  10004725: A1 6C F6 00 10     mov         eax,dword ptr ds:[1000F66Ch]
  1000472A: 8B 3D 34 90 00 10  mov         edi,dword ptr ds:[10009034h]
  10004730: 68 E8 A2 00 10     push        1000A2E8h
  10004735: 50                 push        eax
  10004736: FF D7              call        edi
  10004738: 8B 0D 6C F6 00 10  mov         ecx,dword ptr ds:[1000F66Ch]
  1000473E: 68 F8 A2 00 10     push        1000A2F8h
  10004743: 51                 push        ecx
  10004744: 89 46 28           mov         dword ptr [esi+28h],eax
  10004747: FF D7              call        edi
  10004749: 8B 15 6C F6 00 10  mov         edx,dword ptr ds:[1000F66Ch]
  1000474F: 68 04 A3 00 10     push        1000A304h
  10004754: 52                 push        edx
  10004755: 89 46 30           mov         dword ptr [esi+30h],eax
  10004758: FF D7              call        edi
  1000475A: 89 46 38           mov         dword ptr [esi+38h],eax
  1000475D: A1 6C F6 00 10     mov         eax,dword ptr ds:[1000F66Ch]
  10004762: 68 14 A3 00 10     push        1000A314h
  10004767: 50                 push        eax
  10004768: FF D7              call        edi
  1000476A: 8B 0D 6C F6 00 10  mov         ecx,dword ptr ds:[1000F66Ch]
  10004770: 68 20 A3 00 10     push        1000A320h
  10004775: 51                 push        ecx
  10004776: 89 46 40           mov         dword ptr [esi+40h],eax
  10004779: FF D7              call        edi
  1000477B: 8B 15 6C F6 00 10  mov         edx,dword ptr ds:[1000F66Ch]
  10004781: 68 30 A3 00 10     push        1000A330h
  10004786: 52                 push        edx
  10004787: 89 46 48           mov         dword ptr [esi+48h],eax
  1000478A: FF D7              call        edi
  1000478C: 89 46 50           mov         dword ptr [esi+50h],eax
  1000478F: A1 6C F6 00 10     mov         eax,dword ptr ds:[1000F66Ch]
  10004794: 68 3C A3 00 10     push        1000A33Ch
  10004799: 50                 push        eax
  1000479A: FF D7              call        edi
  1000479C: 8B 55 10           mov         edx,dword ptr [ebp+10h]
  1000479F: 8B 4D 0C           mov         ecx,dword ptr [ebp+0Ch]
  100047A2: 83 E2 01           and         edx,1
  100047A5: 89 46 58           mov         dword ptr [esi+58h],eax
  100047A8: 89 4E 78           mov         dword ptr [esi+78h],ecx
  100047AB: 89 56 60           mov         dword ptr [esi+60h],edx
  100047AE: E8 FD F6 FF FF     call        10003EB0
  100047B3: 8B 4C 24 18        mov         ecx,dword ptr [esp+18h]
  100047B7: 8B 54 24 10        mov         edx,dword ptr [esp+10h]
  100047BB: 6A 40              push        40h
  100047BD: 68 00 10 00 00     push        1000h
  100047C2: 89 44 24 40        mov         dword ptr [esp+40h],eax
  100047C6: 03 C1              add         eax,ecx
  100047C8: 50                 push        eax
  100047C9: 6A 00              push        0
  100047CB: 52                 push        edx
  100047CC: FF 15 74 90 00 10  call        dword ptr ds:[10009074h]
  100047D2: 85 C0              test        eax,eax
  100047D4: 89 44 24 48        mov         dword ptr [esp+48h],eax
  100047D8: 75 0F              jne         100047E9
  100047DA: BE 17 00 00 C0     mov         esi,0C0000017h
  100047DF: 68 98 B3 00 10     push        1000B398h
  100047E4: E9 98 03 00 00     jmp         10004B81
  100047E9: 8B 44 24 18        mov         eax,dword ptr [esp+18h]
  100047ED: 8D BE 80 00 00 00  lea         edi,[esi+00000080h]
  100047F3: 89 7E 18           mov         dword ptr [esi+18h],edi
  100047F6: 03 FB              add         edi,ebx
  100047F8: 89 7E 08           mov         dword ptr [esi+8],edi
  100047FB: 03 7C 24 2C        add         edi,dword ptr [esp+2Ch]
  100047FF: 89 46 6C           mov         dword ptr [esi+6Ch],eax
  10004802: 89 7E 10           mov         dword ptr [esi+10h],edi
  10004805: 03 7C 24 30        add         edi,dword ptr [esp+30h]
  10004809: 89 7E 70           mov         dword ptr [esi+70h],edi
  1000480C: 03 7D 20           add         edi,dword ptr [ebp+20h]
  1000480F: 89 3E              mov         dword ptr [esi],edi
  10004811: FF 15 B4 90 00 10  call        dword ptr ds:[100090B4h]
  10004817: 8B 4C 24 28        mov         ecx,dword ptr [esp+28h]
  1000481B: 2B CE              sub         ecx,esi
  1000481D: 03 CF              add         ecx,edi
  1000481F: 3B 4E 6C           cmp         ecx,dword ptr [esi+6Ch]
  10004822: 89 46 68           mov         dword ptr [esi+68h],eax
  10004825: C7 46 74 00 00 00  mov         dword ptr [esi+74h],0
            00
  1000482C: 76 0F              jbe         1000483D
  1000482E: BE 05 00 00 80     mov         esi,80000005h
  10004833: 68 F8 B3 00 10     push        1000B3F8h
  10004838: E9 44 03 00 00     jmp         10004B81
  1000483D: 8B 4C 24 2C        mov         ecx,dword ptr [esp+2Ch]
  10004841: 85 C9              test        ecx,ecx
  10004843: 8B 46 08           mov         eax,dword ptr [esi+8]
  10004846: 8D BC 24 70 04 00  lea         edi,[esp+00000470h]
            00
  1000484D: 76 10              jbe         1000485F
  1000484F: 90                 nop
  10004850: 8A 17              mov         dl,byte ptr [edi]
  10004852: 88 10              mov         byte ptr [eax],dl
  10004854: 83 C0 01           add         eax,1
  10004857: 83 C7 01           add         edi,1
  1000485A: 83 E9 01           sub         ecx,1
  1000485D: 75 F1              jne         10004850
  1000485F: 8B 4C 24 30        mov         ecx,dword ptr [esp+30h]
  10004863: 85 C9              test        ecx,ecx
  10004865: 8B 46 10           mov         eax,dword ptr [esi+10h]
  10004868: 8D 7C 24 50        lea         edi,[esp+50h]
  1000486C: 76 11              jbe         1000487F
  1000486E: 8B FF              mov         edi,edi
  10004870: 8A 17              mov         dl,byte ptr [edi]
  10004872: 88 10              mov         byte ptr [eax],dl
  10004874: 83 C0 01           add         eax,1
  10004877: 83 C7 01           add         edi,1
  1000487A: 83 E9 01           sub         ecx,1
  1000487D: 75 F1              jne         10004870
  1000487F: 85 DB              test        ebx,ebx
  10004881: 8B 46 18           mov         eax,dword ptr [esi+18h]
  10004884: B9 88 B0 00 10     mov         ecx,1000B088h
  10004889: 76 14              jbe         1000489F
  1000488B: 8B FB              mov         edi,ebx
  1000488D: 8D 49 00           lea         ecx,[ecx]
  10004890: 8A 11              mov         dl,byte ptr [ecx]
  10004892: 88 10              mov         byte ptr [eax],dl
  10004894: 83 C0 01           add         eax,1
  10004897: 83 C1 01           add         ecx,1
  1000489A: 83 EF 01           sub         edi,1
  1000489D: 75 F1              jne         10004890
  1000489F: 8B 7C 24 28        mov         edi,dword ptr [esp+28h]
  100048A3: 85 FF              test        edi,edi
  100048A5: 8B 06              mov         eax,dword ptr [esi]
  100048A7: 8D 8C 24 60 02 00  lea         ecx,[esp+00000260h]
            00
  100048AE: 76 0F              jbe         100048BF
  100048B0: 8A 11              mov         dl,byte ptr [ecx]
  100048B2: 88 10              mov         byte ptr [eax],dl
  100048B4: 83 C0 01           add         eax,1
  100048B7: 83 C1 01           add         ecx,1
  100048BA: 83 EF 01           sub         edi,1
  100048BD: 75 F1              jne         100048B0
  100048BF: 8B 4D 1C           mov         ecx,dword ptr [ebp+1Ch]
  100048C2: 85 C9              test        ecx,ecx
  100048C4: 74 1E              je          100048E4
  100048C6: 8B 55 20           mov         edx,dword ptr [ebp+20h]
  100048C9: 85 D2              test        edx,edx
  100048CB: 8B 46 70           mov         eax,dword ptr [esi+70h]
  100048CE: 76 11              jbe         100048E1
  100048D0: 8B FA              mov         edi,edx
  100048D2: 8A 19              mov         bl,byte ptr [ecx]
  100048D4: 88 18              mov         byte ptr [eax],bl
  100048D6: 83 C0 01           add         eax,1
  100048D9: 83 C1 01           add         ecx,1
  100048DC: 83 EF 01           sub         edi,1
  100048DF: 75 F1              jne         100048D2
  100048E1: 89 56 74           mov         dword ptr [esi+74h],edx
  100048E4: 8B 7C 24 38        mov         edi,dword ptr [esp+38h]
  100048E8: 8D 44 24 20        lea         eax,[esp+20h]
  100048EC: 50                 push        eax
  100048ED: 57                 push        edi
  100048EE: E8 1D F4 FF FF     call        10003D10
  100048F3: 8B 5C 24 50        mov         ebx,dword ptr [esp+50h]
  100048F7: 8B 4C 24 18        mov         ecx,dword ptr [esp+18h]
  100048FB: 50                 push        eax
  100048FC: 53                 push        ebx
  100048FD: 51                 push        ecx
  100048FE: FF 15 88 90 00 10  call        dword ptr ds:[10009088h]
  10004904: 85 C0              test        eax,eax
  10004906: 0F 84 6B 02 00 00  je          10004B77
  1000490C: 39 7C 24 20        cmp         dword ptr [esp+20h],edi
  10004910: 0F 85 61 02 00 00  jne         10004B77
  10004916: 6A 00              push        0
  10004918: 6A 00              push        0
  1000491A: 6A 01              push        1
  1000491C: 6A 00              push        0
  1000491E: FF 15 7C 90 00 10  call        dword ptr ds:[1000907Ch]
  10004924: 85 C0              test        eax,eax
  10004926: 89 44 24 24        mov         dword ptr [esp+24h],eax
  1000492A: 75 0F              jne         1000493B
  1000492C: BE 9A 00 00 C0     mov         esi,0C000009Ah
  10004931: 68 78 A8 00 10     push        1000A878h
  10004936: E9 46 02 00 00     jmp         10004B81
  1000493B: 8B 4C 24 10        mov         ecx,dword ptr [esp+10h]
  1000493F: 6A 00              push        0
  10004941: 6A 00              push        0
  10004943: 68 03 00 1F 00     push        1F0003h
  10004948: 8D 56 64           lea         edx,[esi+64h]
  1000494B: 52                 push        edx
  1000494C: 51                 push        ecx
  1000494D: 50                 push        eax
  1000494E: FF 15 30 90 00 10  call        dword ptr ds:[10009030h]
  10004954: 50                 push        eax
  10004955: FF 15 84 90 00 10  call        dword ptr ds:[10009084h]
  1000495B: 85 C0              test        eax,eax
  1000495D: 75 0A              jne         10004969
  1000495F: 68 B8 B4 00 10     push        1000B4B8h
  10004964: E9 13 02 00 00     jmp         10004B7C
  10004969: 8B 4E 70           mov         ecx,dword ptr [esi+70h]
  1000496C: 03 FB              add         edi,ebx
  1000496E: 8B C7              mov         eax,edi
  10004970: 2B C6              sub         eax,esi
  10004972: 99                 cdq
  10004973: 01 46 18           add         dword ptr [esi+18h],eax
  10004976: 01 46 08           add         dword ptr [esi+8],eax
  10004979: 01 46 10           add         dword ptr [esi+10h],eax
  1000497C: 01 06              add         dword ptr [esi],eax
  1000497E: 85 C9              test        ecx,ecx
  10004980: 89 54 24 4C        mov         dword ptr [esp+4Ch],edx
  10004984: 74 05              je          1000498B
  10004986: 03 C1              add         eax,ecx
  10004988: 89 46 70           mov         dword ptr [esi+70h],eax
  1000498B: 8B 44 24 18        mov         eax,dword ptr [esp+18h]
  1000498F: 8B 4C 24 10        mov         ecx,dword ptr [esp+10h]
  10004993: 8D 54 24 20        lea         edx,[esp+20h]
  10004997: 52                 push        edx
  10004998: 50                 push        eax
  10004999: 56                 push        esi
  1000499A: 57                 push        edi
  1000499B: 51                 push        ecx
  1000499C: 89 5E 20           mov         dword ptr [esi+20h],ebx
  1000499F: FF 15 88 90 00 10  call        dword ptr ds:[10009088h]
  100049A5: 85 C0              test        eax,eax
  100049A7: 0F 84 CA 01 00 00  je          10004B77
  100049AD: 8B 54 24 18        mov         edx,dword ptr [esp+18h]
  100049B1: 39 54 24 20        cmp         dword ptr [esp+20h],edx
  100049B5: 0F 85 BC 01 00 00  jne         10004B77
  100049BB: F7 45 10 00 00 00  test        dword ptr [ebp+10h],10000000h
            10
  100049C2: 8D 44 24 14        lea         eax,[esp+14h]
  100049C6: 0F 84 94 00 00 00  je          10004A60
  100049CC: 8B 4D 08           mov         ecx,dword ptr [ebp+8]
  100049CF: 50                 push        eax
  100049D0: 57                 push        edi
  100049D1: 53                 push        ebx
  100049D2: 51                 push        ecx
  100049D3: E8 B8 03 00 00     call        10004D90
  100049D8: 8B F0              mov         esi,eax
  100049DA: 85 F6              test        esi,esi
  100049DC: 0F 8C AA 01 00 00  jl          10004B8C
  100049E2: 8B 54 24 24        mov         edx,dword ptr [esp+24h]
  100049E6: 8B 44 24 14        mov         eax,dword ptr [esp+14h]
  100049EA: 6A FF              push        0FFFFFFFFh
  100049EC: 6A 00              push        0
  100049EE: 8D 4C 24 48        lea         ecx,[esp+48h]
  100049F2: 51                 push        ecx
  100049F3: 6A 02              push        2
  100049F5: 89 54 24 54        mov         dword ptr [esp+54h],edx
  100049F9: 89 44 24 50        mov         dword ptr [esp+50h],eax
  100049FD: FF 15 B0 90 00 10  call        dword ptr ds:[100090B0h]
  10004A03: 85 C0              test        eax,eax
  10004A05: 89 44 24 1C        mov         dword ptr [esp+1Ch],eax
  10004A09: 0F 85 48 01 00 00  jne         10004B57
  10004A0F: 8B 44 24 14        mov         eax,dword ptr [esp+14h]
  10004A13: 8D 54 24 1C        lea         edx,[esp+1Ch]
  10004A17: 52                 push        edx
  10004A18: 50                 push        eax
  10004A19: FF 15 AC 90 00 10  call        dword ptr ds:[100090ACh]
  10004A1F: 8B 4C 24 1C        mov         ecx,dword ptr [esp+1Ch]
  10004A23: 81 E1 FF FF FF 0F  and         ecx,0FFFFFFFh
  10004A29: 51                 push        ecx
  10004A2A: FF 15 A8 90 00 10  call        dword ptr ds:[100090A8h]
  10004A30: 8B 4C 24 1C        mov         ecx,dword ptr [esp+1Ch]
  10004A34: 8B C1              mov         eax,ecx
  10004A36: 25 00 00 00 F0     and         eax,0F0000000h
  10004A3B: 3D 00 00 00 30     cmp         eax,30000000h
  10004A40: 77 7C              ja          10004ABE
  10004A42: 74 70              je          10004AB4
  10004A44: 85 C0              test        eax,eax
  10004A46: 74 62              je          10004AAA
  10004A48: 3D 00 00 00 10     cmp         eax,10000000h
  10004A4D: 74 51              je          10004AA0
  10004A4F: 3D 00 00 00 20     cmp         eax,20000000h
  10004A54: 75 7A              jne         10004AD0
  10004A56: 68 50 B5 00 10     push        1000B550h
  10004A5B: E9 1C 01 00 00     jmp         10004B7C
  10004A60: 8B 74 24 10        mov         esi,dword ptr [esp+10h]
  10004A64: 57                 push        edi
  10004A65: 53                 push        ebx
  10004A66: 56                 push        esi
  10004A67: E8 14 F8 FF FF     call        10004280
  10004A6C: 85 C0              test        eax,eax
  10004A6E: 0F 8D 6E FF FF FF  jge         100049E2
  10004A74: 6A 00              push        0
  10004A76: 6A 00              push        0
  10004A78: 57                 push        edi
  10004A79: 53                 push        ebx
  10004A7A: 6A 00              push        0
  10004A7C: 6A 00              push        0
  10004A7E: 56                 push        esi
  10004A7F: FF 15 9C 90 00 10  call        dword ptr ds:[1000909Ch]
  10004A85: 85 C0              test        eax,eax
  10004A87: 89 44 24 14        mov         dword ptr [esp+14h],eax
  10004A8B: 0F 85 51 FF FF FF  jne         100049E2
  10004A91: BE 22 00 00 C0     mov         esi,0C0000022h
  10004A96: 68 B8 AA 00 10     push        1000AAB8h
  10004A9B: E9 E1 00 00 00     jmp         10004B81
  10004AA0: 68 00 B5 00 10     push        1000B500h
  10004AA5: E9 D2 00 00 00     jmp         10004B7C
  10004AAA: 68 18 BB 00 10     push        1000BB18h
  10004AAF: E9 C8 00 00 00     jmp         10004B7C
  10004AB4: 68 98 B5 00 10     push        1000B598h
  10004AB9: E9 BE 00 00 00     jmp         10004B7C
  10004ABE: 3D 00 00 00 40     cmp         eax,40000000h
  10004AC3: 0F 84 87 00 00 00  je          10004B50
  10004AC9: 3D 00 00 00 F0     cmp         eax,0F0000000h
  10004ACE: 74 0A              je          10004ADA
  10004AD0: 68 B8 BB 00 10     push        1000BBB8h
  10004AD5: E9 A2 00 00 00     jmp         10004B7C
  10004ADA: 0F B6 C1           movzx       eax,cl
  10004ADD: 83 C0 FF           add         eax,0FFFFFFFFh
  10004AE0: 83 F8 15           cmp         eax,15h
  10004AE3: 77 64              ja          10004B49
  10004AE5: 0F B6 90 04 4C 00  movzx       edx,byte ptr [eax+10004C04h]
            10
  10004AEC: FF 24 95 DC 4B 00  jmp         dword ptr [edx*4+10004BDCh]
            10
  10004AF3: BE F2 00 00 C0     mov         esi,0C00000F2h
  10004AF8: 68 58 B6 00 10     push        1000B658h
  10004AFD: E9 7F 00 00 00     jmp         10004B81
  10004B02: BE F2 00 00 C0     mov         esi,0C00000F2h
  10004B07: 68 D8 B6 00 10     push        1000B6D8h
  10004B0C: EB 73              jmp         10004B81
  10004B0E: BE F2 00 00 C0     mov         esi,0C00000F2h
  10004B13: 68 70 B7 00 10     push        1000B770h
  10004B18: EB 67              jmp         10004B81
  10004B1A: BE 42 01 00 C0     mov         esi,0C0000142h
  10004B1F: 68 10 B8 00 10     push        1000B810h
  10004B24: EB 5B              jmp         10004B81
  10004B26: 68 98 B3 00 10     push        1000B398h
  10004B2B: EB 4F              jmp         10004B7C
  10004B2D: 68 50 B9 00 10     push        1000B950h
  10004B32: EB 48              jmp         10004B7C
  10004B34: 68 A8 B9 00 10     push        1000B9A8h
  10004B39: EB 41              jmp         10004B7C
  10004B3B: 68 10 BA 00 10     push        1000BA10h
  10004B40: EB 3A              jmp         10004B7C
  10004B42: 68 6C BA 00 10     push        1000BA6Ch
  10004B47: EB 33              jmp         10004B7C
  10004B49: 68 B0 BA 00 10     push        1000BAB0h
  10004B4E: EB 2C              jmp         10004B7C
  10004B50: 68 E0 B5 00 10     push        1000B5E0h
  10004B55: EB 25              jmp         10004B7C
  10004B57: 83 F8 01           cmp         eax,1
  10004B5A: 74 07              je          10004B63
  10004B5C: 68 10 BC 00 10     push        1000BC10h
  10004B61: EB 19              jmp         10004B7C
  10004B63: 33 F6              xor         esi,esi
  10004B65: 89 35 B8 F6 00 10  mov         dword ptr ds:[1000F6B8h],esi
  10004B6B: C7 05 08 D0 00 10  mov         dword ptr ds:[1000D008h],100091F0h
            F0 91 00 10
  10004B75: EB 15              jmp         10004B8C
  10004B77: 68 60 B4 00 10     push        1000B460h
  10004B7C: BE E5 00 00 C0     mov         esi,0C00000E5h
  10004B81: FF 15 2C 90 00 10  call        dword ptr ds:[1000902Ch]
  10004B87: E8 34 F1 FF FF     call        10003CC0
  10004B8C: 8B 44 24 10        mov         eax,dword ptr [esp+10h]
  10004B90: 85 C0              test        eax,eax
  10004B92: 74 07              je          10004B9B
  10004B94: 50                 push        eax
  10004B95: FF 15 54 90 00 10  call        dword ptr ds:[10009054h]
  10004B9B: 8B 44 24 34        mov         eax,dword ptr [esp+34h]
  10004B9F: 85 C0              test        eax,eax
  10004BA1: 74 0F              je          10004BB2
  10004BA3: 50                 push        eax
  10004BA4: A1 74 F6 00 10     mov         eax,dword ptr ds:[1000F674h]
  10004BA9: 6A 00              push        0
  10004BAB: 50                 push        eax
  10004BAC: FF 15 C8 90 00 10  call        dword ptr ds:[100090C8h]
  10004BB2: 8B 44 24 14        mov         eax,dword ptr [esp+14h]
  10004BB6: 85 C0              test        eax,eax
  10004BB8: 74 07              je          10004BC1
  10004BBA: 50                 push        eax
  10004BBB: FF 15 54 90 00 10  call        dword ptr ds:[10009054h]
  10004BC1: 8B 44 24 24        mov         eax,dword ptr [esp+24h]
  10004BC5: 85 C0              test        eax,eax
  10004BC7: 74 07              je          10004BD0
  10004BC9: 50                 push        eax
  10004BCA: FF 15 54 90 00 10  call        dword ptr ds:[10009054h]
  10004BD0: 5F                 pop         edi
  10004BD1: 8B C6              mov         eax,esi
  10004BD3: 5E                 pop         esi
  10004BD4: 5B                 pop         ebx
  10004BD5: 8B E5              mov         esp,ebp
  10004BD7: 5D                 pop         ebp
  10004BD8: C2 1C 00           ret         1Ch
  10004BDB: 90                 nop
  10004BDC: 26 4B              dec         ebx
  10004BDE: 00 10              add         byte ptr [eax],dl
  10004BE0: 2D 4B 00 10 34     sub         eax,3410004Bh
  10004BE5: 4B                 dec         ebx
  10004BE6: 00 10              add         byte ptr [eax],dl
  10004BE8: 3B 4B 00           cmp         ecx,dword ptr [ebx]
  10004BEB: 10 0E              adc         byte ptr [esi],cl
  10004BED: 4B                 dec         ebx
  10004BEE: 00 10              add         byte ptr [eax],dl
  10004BF0: 1A 4B 00           sbb         cl,byte ptr [ebx]
  10004BF3: 10 F3              adc         bl,dh
  10004BF5: 4A                 dec         edx
  10004BF6: 00 10              add         byte ptr [eax],dl
  10004BF8: 02 4B 00           add         cl,byte ptr [ebx]
  10004BFB: 10 42 4B           adc         byte ptr [edx+4Bh],al
  10004BFE: 00 10              add         byte ptr [eax],dl
  10004C00: 49                 dec         ecx
  10004C01: 4B                 dec         ebx
  10004C02: 00 10              add         byte ptr [eax],dl
  10004C04: 00 01              add         byte ptr [ecx],al
  10004C06: 09 09              or          dword ptr [ecx],ecx
  10004C08: 09 09              or          dword ptr [ecx],ecx
  10004C0A: 09 09              or          dword ptr [ecx],ecx
  10004C0C: 09 02              or          dword ptr [edx],eax
  10004C0E: 03 04 05 09 09 09  add         eax,dword ptr [eax+09090909h]
            09
  10004C15: 09 09              or          dword ptr [ecx],ecx
  10004C17: 06                 push        es
  10004C18: 07                 pop         es
  10004C19: 08 CC              or          ah,cl
  10004C1B: CC                 int         3
  10004C1C: CC                 int         3
  10004C1D: CC                 int         3
  10004C1E: CC                 int         3
  10004C1F: CC                 int         3
  10004C20: 55                 push        ebp
  10004C21: 8B EC              mov         ebp,esp
  10004C23: 83 EC 10           sub         esp,10h
  10004C26: C7 45 F8 00 00 00  mov         dword ptr [ebp-8],0
            00
  10004C2D: C7 45 F4 00 00 00  mov         dword ptr [ebp-0Ch],0
            00
  10004C34: C7 45 FC 00 00 00  mov         dword ptr [ebp-4],0
            00
  10004C3B: B9 04 00 00 00     mov         ecx,4
  10004C40: 8B 45 24           mov         eax,dword ptr [ebp+24h]
  10004C43: E8 98 ED FF FF     call        100039E0
  10004C48: 85 C0              test        eax,eax
  10004C4A: 75 1B              jne         10004C67
  10004C4C: C7 45 F0 F6 00 00  mov         dword ptr [ebp-10h],0C00000F6h
            C0
  10004C53: 68 00 99 00 10     push        10009900h
  10004C58: FF 15 2C 90 00 10  call        dword ptr ds:[1000902Ch]
  10004C5E: E8 5D F0 FF FF     call        10003CC0
  10004C63: EB 71              jmp         10004CD6
  10004C65: EB 6F              jmp         10004CD6
  10004C67: 8D 45 F4           lea         eax,[ebp-0Ch]
  10004C6A: 50                 push        eax
  10004C6B: 8D 4D F8           lea         ecx,[ebp-8]
  10004C6E: 51                 push        ecx
  10004C6F: 8B 55 0C           mov         edx,dword ptr [ebp+0Ch]
  10004C72: 52                 push        edx
  10004C73: 8B 45 08           mov         eax,dword ptr [ebp+8]
  10004C76: 50                 push        eax
  10004C77: E8 94 F2 FF FF     call        10003F10
  10004C7C: 89 45 F0           mov         dword ptr [ebp-10h],eax
  10004C7F: 83 7D F0 00        cmp         dword ptr [ebp-10h],0
  10004C83: 7D 04              jge         10004C89
  10004C85: EB 4F              jmp         10004CD6
  10004C87: EB 4D              jmp         10004CD6
  10004C89: 8B 4D 20           mov         ecx,dword ptr [ebp+20h]
  10004C8C: 51                 push        ecx
  10004C8D: 8B 55 1C           mov         edx,dword ptr [ebp+1Ch]
  10004C90: 52                 push        edx
  10004C91: 8B 45 18           mov         eax,dword ptr [ebp+18h]
  10004C94: 50                 push        eax
  10004C95: 8B 4D 14           mov         ecx,dword ptr [ebp+14h]
  10004C98: 51                 push        ecx
  10004C99: 8B 55 10           mov         edx,dword ptr [ebp+10h]
  10004C9C: 52                 push        edx
  10004C9D: 8B 45 F4           mov         eax,dword ptr [ebp-0Ch]
  10004CA0: 50                 push        eax
  10004CA1: 8B 4D F8           mov         ecx,dword ptr [ebp-8]
  10004CA4: 51                 push        ecx
  10004CA5: E8 D6 F7 FF FF     call        10004480
  10004CAA: 89 45 F0           mov         dword ptr [ebp-10h],eax
  10004CAD: 83 7D F0 00        cmp         dword ptr [ebp-10h],0
  10004CB1: 7D 04              jge         10004CB7
  10004CB3: EB 21              jmp         10004CD6
  10004CB5: EB 1F              jmp         10004CD6
  10004CB7: 8B 55 24           mov         edx,dword ptr [ebp+24h]
  10004CBA: 8B 45 F8           mov         eax,dword ptr [ebp-8]
  10004CBD: 89 02              mov         dword ptr [edx],eax
  10004CBF: 68 F0 91 00 10     push        100091F0h
  10004CC4: 33 C0              xor         eax,eax
  10004CC6: E8 F5 EF FF FF     call        10003CC0
  10004CCB: C7 45 F0 00 00 00  mov         dword ptr [ebp-10h],0
            00
  10004CD2: EB 32              jmp         10004D06
  10004CD4: EB 30              jmp         10004D06
  10004CD6: 83 7D F8 00        cmp         dword ptr [ebp-8],0
  10004CDA: 74 2A              je          10004D06
  10004CDC: 8B 4D F8           mov         ecx,dword ptr [ebp-8]
  10004CDF: 51                 push        ecx
  10004CE0: 6A 00              push        0
  10004CE2: 68 FF 0F 1F 00     push        1F0FFFh
  10004CE7: FF 15 64 90 00 10  call        dword ptr ds:[10009064h]
  10004CED: 89 45 FC           mov         dword ptr [ebp-4],eax
  10004CF0: 6A 00              push        0
  10004CF2: 8B 55 FC           mov         edx,dword ptr [ebp-4]
  10004CF5: 52                 push        edx
  10004CF6: FF 15 A4 90 00 10  call        dword ptr ds:[100090A4h]
  10004CFC: 8B 45 FC           mov         eax,dword ptr [ebp-4]
  10004CFF: 50                 push        eax
  10004D00: FF 15 54 90 00 10  call        dword ptr ds:[10009054h]
  10004D06: 8B 45 F0           mov         eax,dword ptr [ebp-10h]
  10004D09: 8B E5              mov         esp,ebp
  10004D0B: 5D                 pop         ebp
  10004D0C: C2 20 00           ret         20h
  10004D0F: CC                 int         3
  10004D10: B8 00 10 00 10     mov         eax,10001000h
  10004D15: 80 38 E9           cmp         byte ptr [eax],0E9h
  10004D18: 75 10              jne         10004D2A
  10004D1A: B8 00 10 00 10     mov         eax,10001000h
  10004D1F: 8B 40 01           mov         eax,dword ptr [eax+1]
  10004D22: 05 00 10 00 10     add         eax,10001000h
  10004D27: 83 C0 05           add         eax,5
  10004D2A: C3                 ret
  10004D2B: CC                 int         3
  10004D2C: CC                 int         3
  10004D2D: CC                 int         3
  10004D2E: CC                 int         3
  10004D2F: CC                 int         3
  10004D30: A1 B0 F6 00 10     mov         eax,dword ptr ds:[1000F6B0h]
  10004D35: 85 C0              test        eax,eax
  10004D37: 75 44              jne         10004D7D
  10004D39: BA 00 10 00 10     mov         edx,10001000h
  10004D3E: 80 3A E9           cmp         byte ptr [edx],0E9h
  10004D41: 75 11              jne         10004D54
  10004D43: B8 00 10 00 10     mov         eax,10001000h
  10004D48: 8B 50 01           mov         edx,dword ptr [eax+1]
  10004D4B: 81 C2 00 10 00 10  add         edx,10001000h
  10004D51: 83 C2 05           add         edx,5
  10004D54: 8B C2              mov         eax,edx
  10004D56: 33 C9              xor         ecx,ecx
  10004D58: 81 38 78 56 34 12  cmp         dword ptr [eax],12345678h
  10004D5E: 74 1E              je          10004D7E
  10004D60: 83 C1 01           add         ecx,1
  10004D63: 83 C0 01           add         eax,1
  10004D66: 81 F9 D0 07 00 00  cmp         ecx,7D0h
  10004D6C: 72 EA              jb          10004D58
  10004D6E: 68 D4 BC 00 10     push        1000BCD4h
  10004D73: 6A 00              push        0
  10004D75: FF 15 B8 90 00 10  call        dword ptr ds:[100090B8h]
  10004D7B: 33 C0              xor         eax,eax
  10004D7D: C3                 ret
  10004D7E: 2B C2              sub         eax,edx
  10004D80: A3 B0 F6 00 10     mov         dword ptr ds:[1000F6B0h],eax
  10004D85: C3                 ret
  10004D86: CC                 int         3
  10004D87: CC                 int         3
  10004D88: CC                 int         3
  10004D89: CC                 int         3
  10004D8A: CC                 int         3
  10004D8B: CC                 int         3
  10004D8C: CC                 int         3
  10004D8D: CC                 int         3
  10004D8E: CC                 int         3
  10004D8F: CC                 int         3
  10004D90: 55                 push        ebp
  10004D91: 8B EC              mov         ebp,esp
  10004D93: 83 E4 F8           and         esp,0FFFFFFF8h
  10004D96: 81 EC E4 03 00 00  sub         esp,3E4h
  10004D9C: 53                 push        ebx
  10004D9D: 56                 push        esi
  10004D9E: 57                 push        edi
  10004D9F: 33 FF              xor         edi,edi
  10004DA1: 89 7C 24 14        mov         dword ptr [esp+14h],edi
  10004DA5: 89 7C 24 1C        mov         dword ptr [esp+1Ch],edi
  10004DA9: 89 7C 24 24        mov         dword ptr [esp+24h],edi
  10004DAD: C7 44 24 20 FF FF  mov         dword ptr [esp+20h],0FFFFFFFFh
            FF FF
  10004DB5: E8 76 FF FF FF     call        10004D30
  10004DBA: 05 D0 00 00 00     add         eax,0D0h
  10004DBF: 89 44 24 2C        mov         dword ptr [esp+2Ch],eax
  10004DC3: 68 D0 00 00 00     push        0D0h
  10004DC8: 8D 44 24 54        lea         eax,[esp+54h]
  10004DCC: 50                 push        eax
  10004DCD: C6 44 24 1B 00     mov         byte ptr [esp+1Bh],0
  10004DD2: E8 89 EB FF FF     call        10003960
  10004DD7: 8B 5D 08           mov         ebx,dword ptr [ebp+8]
  10004DDA: 53                 push        ebx
  10004DDB: 57                 push        edi
  10004DDC: 6A 78              push        78h
  10004DDE: FF 15 64 90 00 10  call        dword ptr ds:[10009064h]
  10004DE4: 3B C7              cmp         eax,edi
  10004DE6: 89 44 24 18        mov         dword ptr [esp+18h],eax
  10004DEA: 75 6A              jne         10004E56
  10004DEC: 8B 35 2C 90 00 10  mov         esi,dword ptr ds:[1000902Ch]
  10004DF2: FF D6              call        esi
  10004DF4: 83 F8 05           cmp         eax,5
  10004DF7: 75 38              jne         10004E31
  10004DF9: BB 22 00 00 C0     mov         ebx,0C0000022h
  10004DFE: FF D6              call        esi
  10004E00: A3 B8 F6 00 10     mov         dword ptr ds:[1000F6B8h],eax
  10004E05: 3B C7              cmp         eax,edi
  10004E07: 8B C3              mov         eax,ebx
  10004E09: 75 13              jne         10004E1E
  10004E0B: C7 05 08 D0 00 10  mov         dword ptr ds:[1000D008h],100091F0h
            F0 91 00 10
  10004E15: 5F                 pop         edi
  10004E16: 5E                 pop         esi
  10004E17: 5B                 pop         ebx
  10004E18: 8B E5              mov         esp,ebp
  10004E1A: 5D                 pop         ebp
  10004E1B: C2 10 00           ret         10h
  10004E1E: C7 05 08 D0 00 10  mov         dword ptr ds:[1000D008h],1000A580h
            80 A5 00 10
  10004E28: 5F                 pop         edi
  10004E29: 5E                 pop         esi
  10004E2A: 5B                 pop         ebx
  10004E2B: 8B E5              mov         esp,ebp
  10004E2D: 5D                 pop         ebp
  10004E2E: C2 10 00           ret         10h
  10004E31: BB 25 02 00 C0     mov         ebx,0C0000225h
  10004E36: FF D6              call        esi
  10004E38: A3 B8 F6 00 10     mov         dword ptr ds:[1000F6B8h],eax
  10004E3D: 3B C7              cmp         eax,edi
  10004E3F: 8B C3              mov         eax,ebx
  10004E41: 74 C8              je          10004E0B
  10004E43: C7 05 08 D0 00 10  mov         dword ptr ds:[1000D008h],1000A600h
            00 A6 00 10
  10004E4D: 5F                 pop         edi
  10004E4E: 5E                 pop         esi
  10004E4F: 5B                 pop         ebx
  10004E50: 8B E5              mov         esp,ebp
  10004E52: 5D                 pop         ebp
  10004E53: C2 10 00           ret         10h
  10004E56: 8D 4C 24 30        lea         ecx,[esp+30h]
  10004E5A: 51                 push        ecx
  10004E5B: 53                 push        ebx
  10004E5C: E8 8F F2 FF FF     call        100040F0
  10004E61: 8B F0              mov         esi,eax
  10004E63: 3B F7              cmp         esi,edi
  10004E65: 0F 8C A1 05 00 00  jl          1000540C
  10004E6B: 39 7C 24 30        cmp         dword ptr [esp+30h],edi
  10004E6F: 74 32              je          10004EA3
  10004E71: BE 98 98 00 C0     mov         esi,0C0009898h
  10004E76: FF 15 2C 90 00 10  call        dword ptr ds:[1000902Ch]
  10004E7C: 3B C7              cmp         eax,edi
  10004E7E: A3 B8 F6 00 10     mov         dword ptr ds:[1000F6B8h],eax
  10004E83: 75 0F              jne         10004E94
  10004E85: C7 05 08 D0 00 10  mov         dword ptr ds:[1000D008h],100091F0h
            F0 91 00 10
  10004E8F: E9 78 05 00 00     jmp         1000540C
  10004E94: C7 05 08 D0 00 10  mov         dword ptr ds:[1000D008h],1000A658h
            58 A6 00 10
  10004E9E: E9 69 05 00 00     jmp         1000540C
  10004EA3: 57                 push        edi
  10004EA4: 6A 04              push        4
  10004EA6: C7 44 24 3C 1C 00  mov         dword ptr [esp+3Ch],1Ch
            00 00
  10004EAE: E8 0F EA FF FF     call        100038C2
  10004EB3: 83 F8 FF           cmp         eax,0FFFFFFFFh
  10004EB6: 89 44 24 20        mov         dword ptr [esp+20h],eax
  10004EBA: 75 32              jne         10004EEE
  10004EBC: BE E5 00 00 C0     mov         esi,0C00000E5h
  10004EC1: FF 15 2C 90 00 10  call        dword ptr ds:[1000902Ch]
  10004EC7: 3B C7              cmp         eax,edi
  10004EC9: A3 B8 F6 00 10     mov         dword ptr ds:[1000F6B8h],eax
  10004ECE: 75 0F              jne         10004EDF
  10004ED0: C7 05 08 D0 00 10  mov         dword ptr ds:[1000D008h],100091F0h
            F0 91 00 10
  10004EDA: E9 2D 05 00 00     jmp         1000540C
  10004EDF: C7 05 08 D0 00 10  mov         dword ptr ds:[1000D008h],1000A6E0h
            E0 A6 00 10
  10004EE9: E9 1E 05 00 00     jmp         1000540C
  10004EEE: 8D 54 24 34        lea         edx,[esp+34h]
  10004EF2: 52                 push        edx
  10004EF3: 50                 push        eax
  10004EF4: E8 BD E9 FF FF     call        100038B6
  10004EF9: 85 C0              test        eax,eax
  10004EFB: 75 1A              jne         10004F17
  10004EFD: 68 28 A7 00 10     push        1000A728h
  10004F02: BE E5 00 00 C0     mov         esi,0C00000E5h
  10004F07: FF 15 2C 90 00 10  call        dword ptr ds:[1000902Ch]
  10004F0D: E8 AE ED FF FF     call        10003CC0
  10004F12: E9 F5 04 00 00     jmp         1000540C
  10004F17: 8B 35 78 90 00 10  mov         esi,dword ptr ds:[10009078h]
  10004F1D: 8D 49 00           lea         ecx,[ecx]
  10004F20: 39 5C 24 40        cmp         dword ptr [esp+40h],ebx
  10004F24: 75 37              jne         10004F5D
  10004F26: FF 15 24 90 00 10  call        dword ptr ds:[10009024h]
  10004F2C: 8B 4C 24 3C        mov         ecx,dword ptr [esp+3Ch]
  10004F30: 3B C8              cmp         ecx,eax
  10004F32: 74 29              je          10004F5D
  10004F34: 51                 push        ecx
  10004F35: 57                 push        edi
  10004F36: 6A 5A              push        5Ah
  10004F38: FF D6              call        esi
  10004F3A: 3B C7              cmp         eax,edi
  10004F3C: 89 44 24 14        mov         dword ptr [esp+14h],eax
  10004F40: 74 1B              je          10004F5D
  10004F42: 50                 push        eax
  10004F43: FF 15 8C 90 00 10  call        dword ptr ds:[1000908Ch]
  10004F49: 3B C7              cmp         eax,edi
  10004F4B: 74 25              je          10004F72
  10004F4D: 83 F8 FF           cmp         eax,0FFFFFFFFh
  10004F50: 74 0B              je          10004F5D
  10004F52: 8B 4C 24 14        mov         ecx,dword ptr [esp+14h]
  10004F56: 51                 push        ecx
  10004F57: FF 15 18 91 00 10  call        dword ptr ds:[10009118h]
  10004F5D: 8B 44 24 20        mov         eax,dword ptr [esp+20h]
  10004F61: 8D 54 24 34        lea         edx,[esp+34h]
  10004F65: 52                 push        edx
  10004F66: 50                 push        eax
  10004F67: E8 50 E9 FF FF     call        100038BC
  10004F6C: 85 C0              test        eax,eax
  10004F6E: 75 B0              jne         10004F20
  10004F70: EB 05              jmp         10004F77
  10004F72: C6 44 24 13 01     mov         byte ptr [esp+13h],1
  10004F77: 8B 5C 24 14        mov         ebx,dword ptr [esp+14h]
  10004F7B: 3B DF              cmp         ebx,edi
  10004F7D: 75 1A              jne         10004F99
  10004F7F: 68 80 A7 00 10     push        1000A780h
  10004F84: BE BB 00 00 C0     mov         esi,0C00000BBh
  10004F89: FF 15 2C 90 00 10  call        dword ptr ds:[1000902Ch]
  10004F8F: E8 2C ED FF FF     call        10003CC0
  10004F94: E9 73 04 00 00     jmp         1000540C
  10004F99: 8D 8C 24 20 01 00  lea         ecx,[esp+00000120h]
            00
  10004FA0: 51                 push        ecx
  10004FA1: 53                 push        ebx
  10004FA2: C7 84 24 28 01 00  mov         dword ptr [esp+00000128h],10003h
            00 03 00 01 00
  10004FAD: FF 15 58 90 00 10  call        dword ptr ds:[10009058h]
  10004FB3: 85 C0              test        eax,eax
  10004FB5: 75 1A              jne         10004FD1
  10004FB7: 68 E8 A7 00 10     push        1000A7E8h
  10004FBC: BE E5 00 00 C0     mov         esi,0C00000E5h
  10004FC1: FF 15 2C 90 00 10  call        dword ptr ds:[1000902Ch]
  10004FC7: E8 F4 EC FF FF     call        10003CC0
  10004FCC: E9 26 04 00 00     jmp         100053F7
  10004FD1: 8B 84 24 CC 01 00  mov         eax,dword ptr [esp+000001CCh]
            00
  10004FD8: 8B 94 24 D0 01 00  mov         edx,dword ptr [esp+000001D0h]
            00
  10004FDF: 8B 8C 24 C8 01 00  mov         ecx,dword ptr [esp+000001C8h]
            00
  10004FE6: 8B 35 34 90 00 10  mov         esi,dword ptr ds:[10009034h]
  10004FEC: 89 84 24 98 00 00  mov         dword ptr [esp+00000098h],eax
            00
  10004FF3: 8B 84 24 D4 01 00  mov         eax,dword ptr [esp+000001D4h]
            00
  10004FFA: 89 94 24 90 00 00  mov         dword ptr [esp+00000090h],edx
            00
  10005001: 8B 94 24 C4 01 00  mov         edx,dword ptr [esp+000001C4h]
            00
  10005008: 89 84 24 A8 00 00  mov         dword ptr [esp+000000A8h],eax
            00
  1000500F: 8B 84 24 C0 01 00  mov         eax,dword ptr [esp+000001C0h]
            00
  10005016: 89 8C 24 A0 00 00  mov         dword ptr [esp+000000A0h],ecx
            00
  1000501D: 8B 8C 24 E4 01 00  mov         ecx,dword ptr [esp+000001E4h]
            00
  10005024: 89 94 24 C8 00 00  mov         dword ptr [esp+000000C8h],edx
            00
  1000502B: 8B 94 24 BC 01 00  mov         edx,dword ptr [esp+000001BCh]
            00
  10005032: 89 84 24 B8 00 00  mov         dword ptr [esp+000000B8h],eax
            00
  10005039: A1 6C F6 00 10     mov         eax,dword ptr ds:[1000F66Ch]
  1000503E: 89 8C 24 B0 00 00  mov         dword ptr [esp+000000B0h],ecx
            00
  10005045: 8B 8C 24 D8 01 00  mov         ecx,dword ptr [esp+000001D8h]
            00
  1000504C: 89 94 24 C0 00 00  mov         dword ptr [esp+000000C0h],edx
            00
  10005053: 8B 94 24 E0 01 00  mov         edx,dword ptr [esp+000001E0h]
            00
  1000505A: 68 3C A8 00 10     push        1000A83Ch
  1000505F: 50                 push        eax
  10005060: 89 BC 24 9C 00 00  mov         dword ptr [esp+0000009Ch],edi
            00
  10005067: 89 BC 24 A4 00 00  mov         dword ptr [esp+000000A4h],edi
            00
  1000506E: 89 BC 24 AC 00 00  mov         dword ptr [esp+000000ACh],edi
            00
  10005075: 89 BC 24 D4 00 00  mov         dword ptr [esp+000000D4h],edi
            00
  1000507C: 89 BC 24 B4 00 00  mov         dword ptr [esp+000000B4h],edi
            00
  10005083: 89 BC 24 BC 00 00  mov         dword ptr [esp+000000BCh],edi
            00
  1000508A: 89 BC 24 CC 00 00  mov         dword ptr [esp+000000CCh],edi
            00
  10005091: 89 BC 24 C4 00 00  mov         dword ptr [esp+000000C4h],edi
            00
  10005098: 89 8C 24 D8 00 00  mov         dword ptr [esp+000000D8h],ecx
            00
  1000509F: 89 BC 24 DC 00 00  mov         dword ptr [esp+000000DCh],edi
            00
  100050A6: 89 94 24 E0 00 00  mov         dword ptr [esp+000000E0h],edx
            00
  100050AD: 89 BC 24 E4 00 00  mov         dword ptr [esp+000000E4h],edi
            00
  100050B4: FF D6              call        esi
  100050B6: 8B 4D 0C           mov         ecx,dword ptr [ebp+0Ch]
  100050B9: 8B 55 10           mov         edx,dword ptr [ebp+10h]
  100050BC: 89 44 24 50        mov         dword ptr [esp+50h],eax
  100050C0: A1 6C F6 00 10     mov         eax,dword ptr ds:[1000F66Ch]
  100050C5: 68 4C A8 00 10     push        1000A84Ch
  100050CA: 50                 push        eax
  100050CB: 89 4C 24 60        mov         dword ptr [esp+60h],ecx
  100050CF: 89 54 24 68        mov         dword ptr [esp+68h],edx
  100050D3: FF D6              call        esi
  100050D5: 8B 0D 6C F6 00 10  mov         ecx,dword ptr ds:[1000F66Ch]
  100050DB: 68 58 A8 00 10     push        1000A858h
  100050E0: 51                 push        ecx
  100050E1: 89 84 24 90 00 00  mov         dword ptr [esp+00000090h],eax
            00
  100050E8: FF D6              call        esi
  100050EA: 8B 15 6C F6 00 10  mov         edx,dword ptr ds:[1000F66Ch]
  100050F0: 68 64 A8 00 10     push        1000A864h
  100050F5: 52                 push        edx
  100050F6: 89 84 24 80 00 00  mov         dword ptr [esp+00000080h],eax
            00
  100050FD: FF D6              call        esi
  100050FF: 8B 35 7C 90 00 10  mov         esi,dword ptr ds:[1000907Ch]
  10005105: 57                 push        edi
  10005106: 57                 push        edi
  10005107: 6A 01              push        1
  10005109: 57                 push        edi
  1000510A: 89 44 24 78        mov         dword ptr [esp+78h],eax
  1000510E: FF D6              call        esi
  10005110: 8B D8              mov         ebx,eax
  10005112: 3B DF              cmp         ebx,edi
  10005114: 89 5C 24 28        mov         dword ptr [esp+28h],ebx
  10005118: 0F 84 9B 02 00 00  je          100053B9
  1000511E: 57                 push        edi
  1000511F: 57                 push        edi
  10005120: 6A 01              push        1
  10005122: 57                 push        edi
  10005123: FF D6              call        esi
  10005125: 3B C7              cmp         eax,edi
  10005127: 89 44 24 1C        mov         dword ptr [esp+1Ch],eax
  1000512B: 0F 84 88 02 00 00  je          100053B9
  10005131: 8B 4C 24 18        mov         ecx,dword ptr [esp+18h]
  10005135: 6A 02              push        2
  10005137: 57                 push        edi
  10005138: 57                 push        edi
  10005139: 8D 44 24 7C        lea         eax,[esp+7Ch]
  1000513D: 50                 push        eax
  1000513E: 51                 push        ecx
  1000513F: 53                 push        ebx
  10005140: 8B 1D 30 90 00 10  mov         ebx,dword ptr ds:[10009030h]
  10005146: FF D3              call        ebx
  10005148: 8B 35 84 90 00 10  mov         esi,dword ptr ds:[10009084h]
  1000514E: 50                 push        eax
  1000514F: FF D6              call        esi
  10005151: 85 C0              test        eax,eax
  10005153: 0F 84 59 02 00 00  je          100053B2
  10005159: 8B 44 24 18        mov         eax,dword ptr [esp+18h]
  1000515D: 8B 4C 24 1C        mov         ecx,dword ptr [esp+1Ch]
  10005161: 6A 02              push        2
  10005163: 57                 push        edi
  10005164: 57                 push        edi
  10005165: 8D 94 24 8C 00 00  lea         edx,[esp+0000008Ch]
            00
  1000516C: 52                 push        edx
  1000516D: 50                 push        eax
  1000516E: 51                 push        ecx
  1000516F: FF D3              call        ebx
  10005171: 50                 push        eax
  10005172: FF D6              call        esi
  10005174: 85 C0              test        eax,eax
  10005176: 0F 84 36 02 00 00  je          100053B2
  1000517C: 8B 94 24 B0 00 00  mov         edx,dword ptr [esp+000000B0h]
            00
  10005183: 8B 44 24 18        mov         eax,dword ptr [esp+18h]
  10005187: 6A 40              push        40h
  10005189: 68 00 10 00 00     push        1000h
  1000518E: 68 00 10 00 00     push        1000h
  10005193: 81 C2 00 C0 FE FF  add         edx,0FFFEC000h
  10005199: 52                 push        edx
  1000519A: 50                 push        eax
  1000519B: FF 15 74 90 00 10  call        dword ptr ds:[10009074h]
  100051A1: 85 C0              test        eax,eax
  100051A3: 75 0F              jne         100051B4
  100051A5: BE 17 00 00 C0     mov         esi,0C0000017h
  100051AA: 68 E0 A8 00 10     push        1000A8E0h
  100051AF: E9 0F 02 00 00     jmp         100053C3
  100051B4: 8B B4 24 B0 00 00  mov         esi,dword ptr [esp+000000B0h]
            00
  100051BB: 2B 74 24 2C        sub         esi,dword ptr [esp+2Ch]
  100051BF: 81 EE 00 30 01 00  sub         esi,13000h
  100051C5: 89 B4 24 D8 01 00  mov         dword ptr [esp+000001D8h],esi
            00
  100051CC: E8 5F FB FF FF     call        10004D30
  100051D1: 8D 4C 24 24        lea         ecx,[esp+24h]
  100051D5: 51                 push        ecx
  100051D6: 68 D0 00 00 00     push        0D0h
  100051DB: 8D 54 24 58        lea         edx,[esp+58h]
  100051DF: 03 C6              add         eax,esi
  100051E1: 52                 push        edx
  100051E2: 89 84 24 D0 01 00  mov         dword ptr [esp+000001D0h],eax
            00
  100051E9: E8 42 FB FF FF     call        10004D30
  100051EE: 8B 3D 88 90 00 10  mov         edi,dword ptr ds:[10009088h]
  100051F4: 03 C6              add         eax,esi
  100051F6: 50                 push        eax
  100051F7: 8B 44 24 28        mov         eax,dword ptr [esp+28h]
  100051FB: 50                 push        eax
  100051FC: FF D7              call        edi
  100051FE: 85 C0              test        eax,eax
  10005200: 75 1C              jne         1000521E
  10005202: 68 38 A9 00 10     push        1000A938h
  10005207: BE E5 00 00 C0     mov         esi,0C00000E5h
  1000520C: FF 15 2C 90 00 10  call        dword ptr ds:[1000902Ch]
  10005212: E8 A9 EA FF FF     call        10003CC0
  10005217: 33 FF              xor         edi,edi
  10005219: E9 B0 01 00 00     jmp         100053CE
  1000521E: 8D 4C 24 24        lea         ecx,[esp+24h]
  10005222: 51                 push        ecx
  10005223: E8 08 FB FF FF     call        10004D30
  10005228: 50                 push        eax
  10005229: E8 E2 FA FF FF     call        10004D10
  1000522E: 8B 54 24 20        mov         edx,dword ptr [esp+20h]
  10005232: 50                 push        eax
  10005233: 56                 push        esi
  10005234: 52                 push        edx
  10005235: FF D7              call        edi
  10005237: 85 C0              test        eax,eax
  10005239: 75 1C              jne         10005257
  1000523B: 68 78 A9 00 10     push        1000A978h
  10005240: BE E5 00 00 C0     mov         esi,0C00000E5h
  10005245: FF 15 2C 90 00 10  call        dword ptr ds:[1000902Ch]
  1000524B: E8 70 EA FF FF     call        10003CC0
  10005250: 33 FF              xor         edi,edi
  10005252: E9 77 01 00 00     jmp         100053CE
  10005257: 8B 7C 24 14        mov         edi,dword ptr [esp+14h]
  1000525B: 8D 84 24 20 01 00  lea         eax,[esp+00000120h]
            00
  10005262: 50                 push        eax
  10005263: 57                 push        edi
  10005264: FF 15 5C 90 00 10  call        dword ptr ds:[1000905Ch]
  1000526A: 85 C0              test        eax,eax
  1000526C: 75 1C              jne         1000528A
  1000526E: 68 C8 A9 00 10     push        1000A9C8h
  10005273: BE E5 00 00 C0     mov         esi,0C00000E5h
  10005278: FF 15 2C 90 00 10  call        dword ptr ds:[1000902Ch]
  1000527E: E8 3D EA FF FF     call        10003CC0
  10005283: 33 FF              xor         edi,edi
  10005285: E9 44 01 00 00     jmp         100053CE
  1000528A: 57                 push        edi
  1000528B: FF 15 18 91 00 10  call        dword ptr ds:[10009118h]
  10005291: 8B 4C 24 1C        mov         ecx,dword ptr [esp+1Ch]
  10005295: 6A FF              push        0FFFFFFFFh
  10005297: 51                 push        ecx
  10005298: C6 44 24 1B 00     mov         byte ptr [esp+1Bh],0
  1000529D: FF 15 60 90 00 10  call        dword ptr ds:[10009060h]
  100052A3: 85 C0              test        eax,eax
  100052A5: 74 1C              je          100052C3
  100052A7: 68 18 AA 00 10     push        1000AA18h
  100052AC: BE E5 00 00 C0     mov         esi,0C00000E5h
  100052B1: FF 15 2C 90 00 10  call        dword ptr ds:[1000902Ch]
  100052B7: E8 04 EA FF FF     call        10003CC0
  100052BC: 33 FF              xor         edi,edi
  100052BE: E9 0B 01 00 00     jmp         100053CE
  100052C3: 8D 54 24 24        lea         edx,[esp+24h]
  100052C7: 52                 push        edx
  100052C8: 68 D0 00 00 00     push        0D0h
  100052CD: 8D 44 24 58        lea         eax,[esp+58h]
  100052D1: 50                 push        eax
  100052D2: E8 59 FA FF FF     call        10004D30
  100052D7: 8B 7C 24 24        mov         edi,dword ptr [esp+24h]
  100052DB: 03 C6              add         eax,esi
  100052DD: 50                 push        eax
  100052DE: 57                 push        edi
  100052DF: FF 15 6C 90 00 10  call        dword ptr ds:[1000906Ch]
  100052E5: 85 C0              test        eax,eax
  100052E7: 75 1C              jne         10005305
  100052E9: 68 70 AA 00 10     push        1000AA70h
  100052EE: BE E5 00 00 C0     mov         esi,0C00000E5h
  100052F3: FF 15 2C 90 00 10  call        dword ptr ds:[1000902Ch]
  100052F9: E8 C2 E9 FF FF     call        10003CC0
  100052FE: 33 FF              xor         edi,edi
  10005300: E9 C9 00 00 00     jmp         100053CE
  10005305: 83 BC 24 80 00 00  cmp         dword ptr [esp+00000080h],0
            00 00
  1000530D: 75 1C              jne         1000532B
  1000530F: 68 B8 AA 00 10     push        1000AAB8h
  10005314: BE E5 00 00 C0     mov         esi,0C00000E5h
  10005319: FF 15 2C 90 00 10  call        dword ptr ds:[1000902Ch]
  1000531F: E8 9C E9 FF FF     call        10003CC0
  10005324: 33 FF              xor         edi,edi
  10005326: E9 A3 00 00 00     jmp         100053CE
  1000532B: 8B 75 14           mov         esi,dword ptr [ebp+14h]
  1000532E: B9 04 00 00 00     mov         ecx,4
  10005333: 8B C6              mov         eax,esi
  10005335: E8 A6 E6 FF FF     call        100039E0
  1000533A: 85 C0              test        eax,eax
  1000533C: 74 36              je          10005374
  1000533E: 6A 02              push        2
  10005340: 6A 00              push        0
  10005342: 6A 00              push        0
  10005344: 56                 push        esi
  10005345: FF D3              call        ebx
  10005347: 8B 8C 24 90 00 00  mov         ecx,dword ptr [esp+00000090h]
            00
  1000534E: 50                 push        eax
  1000534F: 51                 push        ecx
  10005350: 57                 push        edi
  10005351: FF 15 84 90 00 10  call        dword ptr ds:[10009084h]
  10005357: 85 C0              test        eax,eax
  10005359: 75 19              jne         10005374
  1000535B: 68 F8 AA 00 10     push        1000AAF8h
  10005360: BE E5 00 00 C0     mov         esi,0C00000E5h
  10005365: FF 15 2C 90 00 10  call        dword ptr ds:[1000902Ch]
  1000536B: E8 50 E9 FF FF     call        10003CC0
  10005370: 33 FF              xor         edi,edi
  10005372: EB 5A              jmp         100053CE
  10005374: 8B 54 24 28        mov         edx,dword ptr [esp+28h]
  10005378: 52                 push        edx
  10005379: FF 15 48 90 00 10  call        dword ptr ds:[10009048h]
  1000537F: 85 C0              test        eax,eax
  10005381: 75 19              jne         1000539C
  10005383: 68 48 AB 00 10     push        1000AB48h
  10005388: BE E5 00 00 C0     mov         esi,0C00000E5h
  1000538D: FF 15 2C 90 00 10  call        dword ptr ds:[1000902Ch]
  10005393: E8 28 E9 FF FF     call        10003CC0
  10005398: 33 FF              xor         edi,edi
  1000539A: EB 32              jmp         100053CE
  1000539C: 33 F6              xor         esi,esi
  1000539E: 89 35 B8 F6 00 10  mov         dword ptr ds:[1000F6B8h],esi
  100053A4: C7 05 08 D0 00 10  mov         dword ptr ds:[1000D008h],100091F0h
            F0 91 00 10
  100053AE: 33 FF              xor         edi,edi
  100053B0: EB 1C              jmp         100053CE
  100053B2: 68 A8 A8 00 10     push        1000A8A8h
  100053B7: EB 05              jmp         100053BE
  100053B9: 68 78 A8 00 10     push        1000A878h
  100053BE: BE E5 00 00 C0     mov         esi,0C00000E5h
  100053C3: FF 15 2C 90 00 10  call        dword ptr ds:[1000902Ch]
  100053C9: E8 F2 E8 FF FF     call        10003CC0
  100053CE: 8B 5C 24 28        mov         ebx,dword ptr [esp+28h]
  100053D2: 3B DF              cmp         ebx,edi
  100053D4: 74 0E              je          100053E4
  100053D6: 53                 push        ebx
  100053D7: FF 15 48 90 00 10  call        dword ptr ds:[10009048h]
  100053DD: 53                 push        ebx
  100053DE: FF 15 54 90 00 10  call        dword ptr ds:[10009054h]
  100053E4: 8B 44 24 1C        mov         eax,dword ptr [esp+1Ch]
  100053E8: 3B C7              cmp         eax,edi
  100053EA: 74 07              je          100053F3
  100053EC: 50                 push        eax
  100053ED: FF 15 54 90 00 10  call        dword ptr ds:[10009054h]
  100053F3: 8B 5C 24 14        mov         ebx,dword ptr [esp+14h]
  100053F7: 80 7C 24 13 00     cmp         byte ptr [esp+13h],0
  100053FC: 74 07              je          10005405
  100053FE: 53                 push        ebx
  100053FF: FF 15 18 91 00 10  call        dword ptr ds:[10009118h]
  10005405: 53                 push        ebx
  10005406: FF 15 54 90 00 10  call        dword ptr ds:[10009054h]
  1000540C: 8B 44 24 18        mov         eax,dword ptr [esp+18h]
  10005410: 8B 3D 54 90 00 10  mov         edi,dword ptr ds:[10009054h]
  10005416: 50                 push        eax
  10005417: FF D7              call        edi
  10005419: 8B 44 24 20        mov         eax,dword ptr [esp+20h]
  1000541D: 83 F8 FF           cmp         eax,0FFFFFFFFh
  10005420: 74 03              je          10005425
  10005422: 50                 push        eax
  10005423: FF D7              call        edi
  10005425: 5F                 pop         edi
  10005426: 8B C6              mov         eax,esi
  10005428: 5E                 pop         esi
  10005429: 5B                 pop         ebx
  1000542A: 8B E5              mov         esp,ebp
  1000542C: 5D                 pop         ebp
  1000542D: C2 10 00           ret         10h
  10005430: 8B 44 24 0C        mov         eax,dword ptr [esp+0Ch]
  10005434: 55                 push        ebp
  10005435: 56                 push        esi
  10005436: 68 3F 00 0F 00     push        0F003Fh
  1000543B: 6A 00              push        0
  1000543D: 6A 00              push        0
  1000543F: 89 44 24 20        mov         dword ptr [esp+20h],eax
  10005443: FF 15 08 90 00 10  call        dword ptr ds:[10009008h]
  10005449: 8B E8              mov         ebp,eax
  1000544B: 85 ED              test        ebp,ebp
  1000544D: 75 34              jne         10005483
  1000544F: BE 22 00 00 C0     mov         esi,0C0000022h
  10005454: FF 15 2C 90 00 10  call        dword ptr ds:[1000902Ch]
  1000545A: A3 B8 F6 00 10     mov         dword ptr ds:[1000F6B8h],eax
  1000545F: 85 C0              test        eax,eax
  10005461: 8B C6              mov         eax,esi
  10005463: 75 0F              jne         10005474
  10005465: 5E                 pop         esi
  10005466: C7 05 08 D0 00 10  mov         dword ptr ds:[1000D008h],100091F0h
            F0 91 00 10
  10005470: 5D                 pop         ebp
  10005471: C2 0C 00           ret         0Ch
  10005474: 5E                 pop         esi
  10005475: C7 05 08 D0 00 10  mov         dword ptr ds:[1000D008h],1000A358h
            58 A3 00 10
  1000547F: 5D                 pop         ebp
  10005480: C2 0C 00           ret         0Ch
  10005483: 57                 push        edi
  10005484: 8B 7C 24 10        mov         edi,dword ptr [esp+10h]
  10005488: 68 FF 01 0F 00     push        0F01FFh
  1000548D: 57                 push        edi
  1000548E: 55                 push        ebp
  1000548F: FF 15 18 90 00 10  call        dword ptr ds:[10009018h]
  10005495: 8B F0              mov         esi,eax
  10005497: 85 F6              test        esi,esi
  10005499: 0F 85 D0 00 00 00  jne         1000556F
  1000549F: 53                 push        ebx
  100054A0: 8B 1D 2C 90 00 10  mov         ebx,dword ptr ds:[1000902Ch]
  100054A6: FF D3              call        ebx
  100054A8: 3D 24 04 00 00     cmp         eax,424h
  100054AD: 74 20              je          100054CF
  100054AF: BF E5 00 00 C0     mov         edi,0C00000E5h
  100054B4: FF D3              call        ebx
  100054B6: 85 C0              test        eax,eax
  100054B8: A3 B8 F6 00 10     mov         dword ptr ds:[1000F6B8h],eax
  100054BD: 0F 84 80 00 00 00  je          10005543
  100054C3: C7 05 08 D0 00 10  mov         dword ptr ds:[1000D008h],1000A3F0h
            F0 A3 00 10
  100054CD: EB 7E              jmp         1000554D
  100054CF: 8B 4C 24 18        mov         ecx,dword ptr [esp+18h]
  100054D3: 6A 00              push        0
  100054D5: 6A 00              push        0
  100054D7: 6A 00              push        0
  100054D9: 6A 00              push        0
  100054DB: 6A 00              push        0
  100054DD: 51                 push        ecx
  100054DE: 6A 01              push        1
  100054E0: 6A 03              push        3
  100054E2: 6A 10              push        10h
  100054E4: 68 FF 01 0F 00     push        0F01FFh
  100054E9: 57                 push        edi
  100054EA: 57                 push        edi
  100054EB: 55                 push        ebp
  100054EC: FF 15 14 90 00 10  call        dword ptr ds:[10009014h]
  100054F2: 8B F0              mov         esi,eax
  100054F4: 33 FF              xor         edi,edi
  100054F6: 3B F7              cmp         esi,edi
  100054F8: 75 1C              jne         10005516
  100054FA: BF E5 00 00 C0     mov         edi,0C00000E5h
  100054FF: FF D3              call        ebx
  10005501: 85 C0              test        eax,eax
  10005503: A3 B8 F6 00 10     mov         dword ptr ds:[1000F6B8h],eax
  10005508: 74 39              je          10005543
  1000550A: C7 05 08 D0 00 10  mov         dword ptr ds:[1000D008h],1000A4F0h
            F0 A4 00 10
  10005514: EB 37              jmp         1000554D
  10005516: 8D 54 24 1C        lea         edx,[esp+1Ch]
  1000551A: 52                 push        edx
  1000551B: 6A 01              push        1
  1000551D: 56                 push        esi
  1000551E: FF 15 04 90 00 10  call        dword ptr ds:[10009004h]
  10005524: 85 C0              test        eax,eax
  10005526: 75 15              jne         1000553D
  10005528: FF D3              call        ebx
  1000552A: 68 4C A5 00 10     push        1000A54Ch
  1000552F: BF E5 00 00 C0     mov         edi,0C00000E5h
  10005534: FF D3              call        ebx
  10005536: E8 85 E7 FF FF     call        10003CC0
  1000553B: EB 10              jmp         1000554D
  1000553D: 89 3D B8 F6 00 10  mov         dword ptr ds:[1000F6B8h],edi
  10005543: C7 05 08 D0 00 10  mov         dword ptr ds:[1000D008h],100091F0h
            F0 91 00 10
  1000554D: 85 F6              test        esi,esi
  1000554F: 5B                 pop         ebx
  10005550: 74 0E              je          10005560
  10005552: 56                 push        esi
  10005553: FF 15 0C 90 00 10  call        dword ptr ds:[1000900Ch]
  10005559: 56                 push        esi
  1000555A: FF 15 10 90 00 10  call        dword ptr ds:[10009010h]
  10005560: 55                 push        ebp
  10005561: FF 15 10 90 00 10  call        dword ptr ds:[10009010h]
  10005567: 8B C7              mov         eax,edi
  10005569: 5F                 pop         edi
  1000556A: 5E                 pop         esi
  1000556B: 5D                 pop         ebp
  1000556C: C2 0C 00           ret         0Ch
  1000556F: 56                 push        esi
  10005570: FF 15 0C 90 00 10  call        dword ptr ds:[1000900Ch]
  10005576: 56                 push        esi
  10005577: FF 15 10 90 00 10  call        dword ptr ds:[10009010h]
  1000557D: BF 18 07 00 C0     mov         edi,0C0000718h
  10005582: FF 15 2C 90 00 10  call        dword ptr ds:[1000902Ch]
  10005588: 85 C0              test        eax,eax
  1000558A: A3 B8 F6 00 10     mov         dword ptr ds:[1000F6B8h],eax
  1000558F: 75 19              jne         100055AA
  10005591: 55                 push        ebp
  10005592: C7 05 08 D0 00 10  mov         dword ptr ds:[1000D008h],100091F0h
            F0 91 00 10
  1000559C: FF 15 10 90 00 10  call        dword ptr ds:[10009010h]
  100055A2: 8B C7              mov         eax,edi
  100055A4: 5F                 pop         edi
  100055A5: 5E                 pop         esi
  100055A6: 5D                 pop         ebp
  100055A7: C2 0C 00           ret         0Ch
  100055AA: 55                 push        ebp
  100055AB: C7 05 08 D0 00 10  mov         dword ptr ds:[1000D008h],1000A448h
            48 A4 00 10
  100055B5: FF 15 10 90 00 10  call        dword ptr ds:[10009010h]
  100055BB: 8B C7              mov         eax,edi
  100055BD: 5F                 pop         edi
  100055BE: 5E                 pop         esi
  100055BF: 5D                 pop         ebp
  100055C0: C2 0C 00           ret         0Ch
  100055C3: CC                 int         3
  100055C4: CC                 int         3
  100055C5: CC                 int         3
  100055C6: CC                 int         3
  100055C7: CC                 int         3
  100055C8: CC                 int         3
  100055C9: CC                 int         3
  100055CA: CC                 int         3
  100055CB: CC                 int         3
  100055CC: CC                 int         3
  100055CD: CC                 int         3
  100055CE: CC                 int         3
  100055CF: CC                 int         3
  100055D0: 81 EC 1C 02 00 00  sub         esp,21Ch
  100055D6: 53                 push        ebx
  100055D7: 55                 push        ebp
  100055D8: 33 DB              xor         ebx,ebx
  100055DA: 68 88 A2 00 10     push        1000A288h
  100055DF: 89 5C 24 0C        mov         dword ptr [esp+0Ch],ebx
  100055E3: FF 15 08 91 00 10  call        dword ptr ds:[10009108h]
  100055E9: 8B E8              mov         ebp,eax
  100055EB: 68 94 A2 00 10     push        1000A294h
  100055F0: 55                 push        ebp
  100055F1: FF 15 34 90 00 10  call        dword ptr ds:[10009034h]
  100055F7: 3B C3              cmp         eax,ebx
  100055F9: 75 0A              jne         10005605
  100055FB: BB 0A 00 00 F0     mov         ebx,0F000000Ah
  10005600: E9 D2 00 00 00     jmp         100056D7
  10005605: 8B 56 70           mov         edx,dword ptr [esi+70h]
  10005608: 8B 4E 68           mov         ecx,dword ptr [esi+68h]
  1000560B: 89 54 24 14        mov         dword ptr [esp+14h],edx
  1000560F: 8D 54 24 08        lea         edx,[esp+8]
  10005613: 52                 push        edx
  10005614: 68 58 A2 00 10     push        1000A258h
  10005619: 68 48 A2 00 10     push        1000A248h
  1000561E: 89 4C 24 1C        mov         dword ptr [esp+1Ch],ecx
  10005622: 8B 4E 74           mov         ecx,dword ptr [esi+74h]
  10005625: 53                 push        ebx
  10005626: 53                 push        ebx
  10005627: 89 4C 24 2C        mov         dword ptr [esp+2Ch],ecx
  1000562B: FF D0              call        eax
  1000562D: 85 C0              test        eax,eax
  1000562F: 7D 0A              jge         1000563B
  10005631: BB 0B 00 00 F0     mov         ebx,0F000000Bh
  10005636: E9 9C 00 00 00     jmp         100056D7
  1000563B: 8B 44 24 08        mov         eax,dword ptr [esp+8]
  1000563F: 8B 08              mov         ecx,dword ptr [eax]
  10005641: 8B 51 0C           mov         edx,dword ptr [ecx+0Ch]
  10005644: 57                 push        edi
  10005645: 50                 push        eax
  10005646: FF D2              call        edx
  10005648: 8D 44 24 14        lea         eax,[esp+14h]
  1000564C: 99                 cdq
  1000564D: 52                 push        edx
  1000564E: 50                 push        eax
  1000564F: 8D 7C 24 28        lea         edi,[esp+28h]
  10005653: E8 78 E2 FF FF     call        100038D0
  10005658: 8B 44 24 0C        mov         eax,dword ptr [esp+0Ch]
  1000565C: 8B 08              mov         ecx,dword ptr [eax]
  1000565E: 8D 54 24 10        lea         edx,[esp+10h]
  10005662: 52                 push        edx
  10005663: 8B D7              mov         edx,edi
  10005665: 52                 push        edx
  10005666: 8B 16              mov         edx,dword ptr [esi]
  10005668: 68 A8 A2 00 10     push        1000A2A8h
  1000566D: 68 B4 A2 00 10     push        1000A2B4h
  10005672: 52                 push        edx
  10005673: 50                 push        eax
  10005674: 8B 41 2C           mov         eax,dword ptr [ecx+2Ch]
  10005677: FF D0              call        eax
  10005679: 85 C0              test        eax,eax
  1000567B: 5F                 pop         edi
  1000567C: 7D 07              jge         10005685
  1000567E: BB 0C 00 00 F0     mov         ebx,0F000000Ch
  10005683: EB 52              jmp         100056D7
  10005685: 39 5C 24 0C        cmp         dword ptr [esp+0Ch],ebx
  10005689: 75 07              jne         10005692
  1000568B: BB 0D 00 00 F0     mov         ebx,0F000000Dh
  10005690: EB 45              jmp         100056D7
  10005692: 8B 4E 64           mov         ecx,dword ptr [esi+64h]
  10005695: 51                 push        ecx
  10005696: FF 15 48 90 00 10  call        dword ptr ds:[10009048h]
  1000569C: 85 C0              test        eax,eax
  1000569E: 75 07              jne         100056A7
  100056A0: BB 16 00 00 F0     mov         ebx,0F0000016h
  100056A5: EB 30              jmp         100056D7
  100056A7: 8B 56 64           mov         edx,dword ptr [esi+64h]
  100056AA: 52                 push        edx
  100056AB: FF 15 54 90 00 10  call        dword ptr ds:[10009054h]
  100056B1: 8B 44 24 08        mov         eax,dword ptr [esp+8]
  100056B5: 8D 54 24 0C        lea         edx,[esp+0Ch]
  100056B9: 52                 push        edx
  100056BA: 8D 54 24 20        lea         edx,[esp+20h]
  100056BE: 52                 push        edx
  100056BF: 8B 16              mov         edx,dword ptr [esi]
  100056C1: 68 A8 A2 00 10     push        1000A2A8h
  100056C6: 68 B4 A2 00 10     push        1000A2B4h
  100056CB: 89 5E 64           mov         dword ptr [esi+64h],ebx
  100056CE: 8B 08              mov         ecx,dword ptr [eax]
  100056D0: 52                 push        edx
  100056D1: 50                 push        eax
  100056D2: 8B 41 2C           mov         eax,dword ptr [ecx+2Ch]
  100056D5: FF D0              call        eax
  100056D7: 8B 44 24 08        mov         eax,dword ptr [esp+8]
  100056DB: 85 C0              test        eax,eax
  100056DD: 74 08              je          100056E7
  100056DF: 8B 08              mov         ecx,dword ptr [eax]
  100056E1: 8B 51 08           mov         edx,dword ptr [ecx+8]
  100056E4: 50                 push        eax
  100056E5: FF D2              call        edx
  100056E7: 85 ED              test        ebp,ebp
  100056E9: 74 07              je          100056F2
  100056EB: 55                 push        ebp
  100056EC: FF 15 14 91 00 10  call        dword ptr ds:[10009114h]
  100056F2: 5D                 pop         ebp
  100056F3: 8B C3              mov         eax,ebx
  100056F5: 5B                 pop         ebx
  100056F6: 81 C4 1C 02 00 00  add         esp,21Ch
  100056FC: C3                 ret
  100056FD: CC                 int         3
  100056FE: CC                 int         3
  100056FF: CC                 int         3
  10005700: 8B 07              mov         eax,dword ptr [edi]
  10005702: 83 EC 0C           sub         esp,0Ch
  10005705: 53                 push        ebx
  10005706: 56                 push        esi
  10005707: 50                 push        eax
  10005708: FF 15 4C 90 00 10  call        dword ptr ds:[1000904Ch]
  1000570E: 8B F0              mov         esi,eax
  10005710: 68 68 A2 00 10     push        1000A268h
  10005715: 56                 push        esi
  10005716: FF 15 34 90 00 10  call        dword ptr ds:[10009034h]
  1000571C: 85 F6              test        esi,esi
  1000571E: 8B D8              mov         ebx,eax
  10005720: 75 0B              jne         1000572D
  10005722: 5E                 pop         esi
  10005723: B8 14 00 00 F0     mov         eax,0F0000014h
  10005728: 5B                 pop         ebx
  10005729: 83 C4 0C           add         esp,0Ch
  1000572C: C3                 ret
  1000572D: 85 DB              test        ebx,ebx
  1000572F: 75 0B              jne         1000573C
  10005731: 5E                 pop         esi
  10005732: B8 15 00 00 F0     mov         eax,0F0000015h
  10005737: 5B                 pop         ebx
  10005738: 83 C4 0C           add         esp,0Ch
  1000573B: C3                 ret
  1000573C: 8B 4F 64           mov         ecx,dword ptr [edi+64h]
  1000573F: 51                 push        ecx
  10005740: FF 15 48 90 00 10  call        dword ptr ds:[10009048h]
  10005746: 85 C0              test        eax,eax
  10005748: 75 0B              jne         10005755
  1000574A: 5E                 pop         esi
  1000574B: B8 16 00 00 F0     mov         eax,0F0000016h
  10005750: 5B                 pop         ebx
  10005751: 83 C4 0C           add         esp,0Ch
  10005754: C3                 ret
  10005755: 8B 47 74           mov         eax,dword ptr [edi+74h]
  10005758: 85 C0              test        eax,eax
  1000575A: 8B 57 68           mov         edx,dword ptr [edi+68h]
  1000575D: 89 54 24 08        mov         dword ptr [esp+8],edx
  10005761: 74 1A              je          1000577D
  10005763: 8B 4F 70           mov         ecx,dword ptr [edi+70h]
  10005766: 8D 54 24 08        lea         edx,[esp+8]
  1000576A: 52                 push        edx
  1000576B: 89 4C 24 10        mov         dword ptr [esp+10h],ecx
  1000576F: 89 44 24 14        mov         dword ptr [esp+14h],eax
  10005773: FF D3              call        ebx
  10005775: 5E                 pop         esi
  10005776: 33 C0              xor         eax,eax
  10005778: 5B                 pop         ebx
  10005779: 83 C4 0C           add         esp,0Ch
  1000577C: C3                 ret
  1000577D: 8D 54 24 08        lea         edx,[esp+8]
  10005781: 52                 push        edx
  10005782: C7 44 24 10 00 00  mov         dword ptr [esp+10h],0
            00 00
  1000578A: 89 44 24 14        mov         dword ptr [esp+14h],eax
  1000578E: FF D3              call        ebx
  10005790: 5E                 pop         esi
  10005791: 33 C0              xor         eax,eax
  10005793: 5B                 pop         ebx
  10005794: 83 C4 0C           add         esp,0Ch
  10005797: C3                 ret
  10005798: CC                 int         3
  10005799: CC                 int         3
  1000579A: CC                 int         3
  1000579B: CC                 int         3
  1000579C: CC                 int         3
  1000579D: CC                 int         3
  1000579E: CC                 int         3
  1000579F: CC                 int         3
  100057A0: 53                 push        ebx
  100057A1: 55                 push        ebp
  100057A2: 56                 push        esi
  100057A3: 57                 push        edi
  100057A4: 68 E0 91 00 10     push        100091E0h
  100057A9: FF 15 50 90 00 10  call        dword ptr ds:[10009050h]
  100057AF: 8B 1D 34 90 00 10  mov         ebx,dword ptr ds:[10009034h]
  100057B5: 8B F0              mov         esi,eax
  100057B7: 68 E8 A2 00 10     push        1000A2E8h
  100057BC: 56                 push        esi
  100057BD: FF D3              call        ebx
  100057BF: 8B 7C 24 14        mov         edi,dword ptr [esp+14h]
  100057C3: 68 F8 A2 00 10     push        1000A2F8h
  100057C8: 56                 push        esi
  100057C9: 89 47 28           mov         dword ptr [edi+28h],eax
  100057CC: FF D3              call        ebx
  100057CE: 68 04 A3 00 10     push        1000A304h
  100057D3: 56                 push        esi
  100057D4: 89 47 30           mov         dword ptr [edi+30h],eax
  100057D7: FF D3              call        ebx
  100057D9: 68 14 A3 00 10     push        1000A314h
  100057DE: 56                 push        esi
  100057DF: 89 47 38           mov         dword ptr [edi+38h],eax
  100057E2: FF D3              call        ebx
  100057E4: 68 20 A3 00 10     push        1000A320h
  100057E9: 56                 push        esi
  100057EA: 89 47 40           mov         dword ptr [edi+40h],eax
  100057ED: FF D3              call        ebx
  100057EF: 68 30 A3 00 10     push        1000A330h
  100057F4: 56                 push        esi
  100057F5: 89 47 48           mov         dword ptr [edi+48h],eax
  100057F8: FF D3              call        ebx
  100057FA: 68 3C A3 00 10     push        1000A33Ch
  100057FF: 56                 push        esi
  10005800: 89 47 50           mov         dword ptr [edi+50h],eax
  10005803: FF D3              call        ebx
  10005805: 89 47 58           mov         dword ptr [edi+58h],eax
  10005808: 8B 47 10           mov         eax,dword ptr [edi+10h]
  1000580B: 33 DB              xor         ebx,ebx
  1000580D: 66 39 18           cmp         word ptr [eax],bx
  10005810: 74 0C              je          1000581E
  10005812: 83 C0 02           add         eax,2
  10005815: 83 C3 01           add         ebx,1
  10005818: 66 83 38 00        cmp         word ptr [eax],0
  1000581C: 75 F4              jne         10005812
  1000581E: 6A 00              push        0
  10005820: 6A 00              push        0
  10005822: 68 4C A3 00 10     push        1000A34Ch
  10005827: FF 15 40 90 00 10  call        dword ptr ds:[10009040h]
  1000582D: 8B F0              mov         esi,eax
  1000582F: 03 F3              add         esi,ebx
  10005831: 8D 44 36 0A        lea         eax,[esi+esi+0Ah]
  10005835: 50                 push        eax
  10005836: A1 74 F6 00 10     mov         eax,dword ptr ds:[1000F674h]
  1000583B: 6A 00              push        0
  1000583D: 50                 push        eax
  1000583E: FF 15 C4 90 00 10  call        dword ptr ds:[100090C4h]
  10005844: 8B E8              mov         ebp,eax
  10005846: 85 ED              test        ebp,ebp
  10005848: 74 37              je          10005881
  1000584A: 8D 44 36 0A        lea         eax,[esi+esi+0Ah]
  1000584E: 50                 push        eax
  1000584F: 55                 push        ebp
  10005850: E8 0B E1 FF FF     call        10003960
  10005855: 56                 push        esi
  10005856: 55                 push        ebp
  10005857: 68 4C A3 00 10     push        1000A34Ch
  1000585C: FF 15 40 90 00 10  call        dword ptr ds:[10009040h]
  10005862: 8D 04 1B           lea         eax,[ebx+ebx]
  10005865: 2B F3              sub         esi,ebx
  10005867: 03 F6              add         esi,esi
  10005869: 55                 push        ebp
  1000586A: 8D 1C 28           lea         ebx,[eax+ebp]
  1000586D: 89 44 24 18        mov         dword ptr [esp+18h],eax
  10005871: E8 2A E2 FF FF     call        10003AA0
  10005876: 85 C0              test        eax,eax
  10005878: 75 0E              jne         10005888
  1000587A: BE 01 00 00 F0     mov         esi,0F0000001h
  1000587F: EB 4B              jmp         100058CC
  10005881: BE 01 00 00 F0     mov         esi,0F0000001h
  10005886: EB 53              jmp         100058DB
  10005888: 8B 74 24 14        mov         esi,dword ptr [esp+14h]
  1000588C: 85 F6              test        esi,esi
  1000588E: 8B 4F 10           mov         ecx,dword ptr [edi+10h]
  10005891: 8B C5              mov         eax,ebp
  10005893: 76 0F              jbe         100058A4
  10005895: 8A 11              mov         dl,byte ptr [ecx]
  10005897: 88 10              mov         byte ptr [eax],dl
  10005899: 83 C0 01           add         eax,1
  1000589C: 83 C1 01           add         ecx,1
  1000589F: 83 EE 01           sub         esi,1
  100058A2: 75 F1              jne         10005895
  100058A4: 55                 push        ebp
  100058A5: 68 4C A3 00 10     push        1000A34Ch
  100058AA: FF 15 44 90 00 10  call        dword ptr ds:[10009044h]
  100058B0: 85 C0              test        eax,eax
  100058B2: 75 07              jne         100058BB
  100058B4: BE 02 00 00 F0     mov         esi,0F0000002h
  100058B9: EB 11              jmp         100058CC
  100058BB: 8B 47 78           mov         eax,dword ptr [edi+78h]
  100058BE: E8 8D E5 FF FF     call        10003E50
  100058C3: 85 C0              test        eax,eax
  100058C5: 7D 2B              jge         100058F2
  100058C7: BE 03 00 00 F0     mov         esi,0F0000003h
  100058CC: A1 74 F6 00 10     mov         eax,dword ptr ds:[1000F674h]
  100058D1: 55                 push        ebp
  100058D2: 6A 00              push        0
  100058D4: 50                 push        eax
  100058D5: FF 15 C8 90 00 10  call        dword ptr ds:[100090C8h]
  100058DB: 8B 7F 64           mov         edi,dword ptr [edi+64h]
  100058DE: 85 FF              test        edi,edi
  100058E0: 74 07              je          100058E9
  100058E2: 57                 push        edi
  100058E3: FF 15 54 90 00 10  call        dword ptr ds:[10009054h]
  100058E9: 5F                 pop         edi
  100058EA: 8B C6              mov         eax,esi
  100058EC: 5E                 pop         esi
  100058ED: 5D                 pop         ebp
  100058EE: 5B                 pop         ebx
  100058EF: C2 04 00           ret         4
  100058F2: 83 7F 60 00        cmp         dword ptr [edi+60h],0
  100058F6: 74 0E              je          10005906
  100058F8: 8B F7              mov         esi,edi
  100058FA: E8 D1 FC FF FF     call        100055D0
  100058FF: 5F                 pop         edi
  10005900: 5E                 pop         esi
  10005901: 5D                 pop         ebp
  10005902: 5B                 pop         ebx
  10005903: C2 04 00           ret         4
  10005906: E8 F5 FD FF FF     call        10005700
  1000590B: 5F                 pop         edi
  1000590C: 5E                 pop         esi
  1000590D: 5D                 pop         ebp
  1000590E: 5B                 pop         ebx
  1000590F: C2 04 00           ret         4
  10005912: CC                 int         3
  10005913: CC                 int         3
  10005914: CC                 int         3
  10005915: CC                 int         3
  10005916: CC                 int         3
  10005917: CC                 int         3
  10005918: CC                 int         3
  10005919: CC                 int         3
  1000591A: CC                 int         3
  1000591B: CC                 int         3
  1000591C: CC                 int         3
  1000591D: CC                 int         3
  1000591E: CC                 int         3
  1000591F: CC                 int         3
  10005920: 8B 4C 24 04        mov         ecx,dword ptr [esp+4]
  10005924: 81 EC 0C 02 00 00  sub         esp,20Ch
  1000592A: 56                 push        esi
  1000592B: 6A 00              push        0
  1000592D: 8D 44 24 08        lea         eax,[esp+8]
  10005931: 50                 push        eax
  10005932: 68 04 01 00 00     push        104h
  10005937: 51                 push        ecx
  10005938: FF 15 3C 90 00 10  call        dword ptr ds:[1000903Ch]
  1000593E: 6A 00              push        0
  10005940: 6A 00              push        0
  10005942: 6A 03              push        3
  10005944: 6A 00              push        0
  10005946: 6A 03              push        3
  10005948: 6A 00              push        0
  1000594A: 8D 54 24 1C        lea         edx,[esp+1Ch]
  1000594E: 52                 push        edx
  1000594F: FF 15 C0 90 00 10  call        dword ptr ds:[100090C0h]
  10005955: 83 F8 FF           cmp         eax,0FFFFFFFFh
  10005958: 74 41              je          1000599B
  1000595A: 50                 push        eax
  1000595B: FF 15 54 90 00 10  call        dword ptr ds:[10009054h]
  10005961: 53                 push        ebx
  10005962: 57                 push        edi
  10005963: 68 3F 00 0F 00     push        0F003Fh
  10005968: 6A 00              push        0
  1000596A: 6A 00              push        0
  1000596C: FF 15 08 90 00 10  call        dword ptr ds:[10009008h]
  10005972: 8B D8              mov         ebx,eax
  10005974: 85 DB              test        ebx,ebx
  10005976: 75 70              jne         100059E8
  10005978: BF 22 00 00 C0     mov         edi,0C0000022h
  1000597D: FF 15 2C 90 00 10  call        dword ptr ds:[1000902Ch]
  10005983: 85 C0              test        eax,eax
  10005985: A3 B8 F6 00 10     mov         dword ptr ds:[1000F6B8h],eax
  1000598A: 75 4D              jne         100059D9
  1000598C: C7 05 08 D0 00 10  mov         dword ptr ds:[1000D008h],100091F0h
            F0 91 00 10
  10005996: E9 2D 01 00 00     jmp         10005AC8
  1000599B: BE 25 02 00 C0     mov         esi,0C0000225h
  100059A0: FF 15 2C 90 00 10  call        dword ptr ds:[1000902Ch]
  100059A6: A3 B8 F6 00 10     mov         dword ptr ds:[1000F6B8h],eax
  100059AB: 85 C0              test        eax,eax
  100059AD: 8B C6              mov         eax,esi
  100059AF: 75 14              jne         100059C5
  100059B1: C7 05 08 D0 00 10  mov         dword ptr ds:[1000D008h],100091F0h
            F0 91 00 10
  100059BB: 5E                 pop         esi
  100059BC: 81 C4 0C 02 00 00  add         esp,20Ch
  100059C2: C2 08 00           ret         8
  100059C5: C7 05 08 D0 00 10  mov         dword ptr ds:[1000D008h],1000A038h
            38 A0 00 10
  100059CF: 5E                 pop         esi
  100059D0: 81 C4 0C 02 00 00  add         esp,20Ch
  100059D6: C2 08 00           ret         8
  100059D9: C7 05 08 D0 00 10  mov         dword ptr ds:[1000D008h],1000A090h
            90 A0 00 10
  100059E3: E9 E0 00 00 00     jmp         10005AC8
  100059E8: 8B BC 24 20 02 00  mov         edi,dword ptr [esp+00000220h]
            00
  100059EF: 55                 push        ebp
  100059F0: 68 FF 01 0F 00     push        0F01FFh
  100059F5: 57                 push        edi
  100059F6: 53                 push        ebx
  100059F7: FF 15 18 90 00 10  call        dword ptr ds:[10009018h]
  100059FD: 8B 2D 2C 90 00 10  mov         ebp,dword ptr ds:[1000902Ch]
  10005A03: 8B F0              mov         esi,eax
  10005A05: 85 F6              test        esi,esi
  10005A07: 75 68              jne         10005A71
  10005A09: FF D5              call        ebp
  10005A0B: 3D 24 04 00 00     cmp         eax,424h
  10005A10: 74 23              je          10005A35
  10005A12: BF E5 00 00 C0     mov         edi,0C00000E5h
  10005A17: FF D5              call        ebp
  10005A19: 85 C0              test        eax,eax
  10005A1B: A3 B8 F6 00 10     mov         dword ptr ds:[1000F6B8h],eax
  10005A20: 0F 84 85 00 00 00  je          10005AAB
  10005A26: C7 05 08 D0 00 10  mov         dword ptr ds:[1000D008h],1000A128h
            28 A1 00 10
  10005A30: E9 80 00 00 00     jmp         10005AB5
  10005A35: 6A 00              push        0
  10005A37: 6A 00              push        0
  10005A39: 6A 00              push        0
  10005A3B: 6A 00              push        0
  10005A3D: 6A 00              push        0
  10005A3F: 8D 44 24 24        lea         eax,[esp+24h]
  10005A43: 50                 push        eax
  10005A44: 6A 01              push        1
  10005A46: 6A 03              push        3
  10005A48: 6A 01              push        1
  10005A4A: 68 FF 01 0F 00     push        0F01FFh
  10005A4F: 57                 push        edi
  10005A50: 57                 push        edi
  10005A51: 53                 push        ebx
  10005A52: FF 15 14 90 00 10  call        dword ptr ds:[10009014h]
  10005A58: 8B F0              mov         esi,eax
  10005A5A: 85 F6              test        esi,esi
  10005A5C: 75 13              jne         10005A71
  10005A5E: 68 9C A1 00 10     push        1000A19Ch
  10005A63: BF E5 00 00 C0     mov         edi,0C00000E5h
  10005A68: FF D5              call        ebp
  10005A6A: E8 51 E2 FF FF     call        10003CC0
  10005A6F: EB 44              jmp         10005AB5
  10005A71: 33 FF              xor         edi,edi
  10005A73: 57                 push        edi
  10005A74: 57                 push        edi
  10005A75: 56                 push        esi
  10005A76: FF 15 04 90 00 10  call        dword ptr ds:[10009004h]
  10005A7C: 85 C0              test        eax,eax
  10005A7E: 75 25              jne         10005AA5
  10005A80: FF D5              call        ebp
  10005A82: 3D 20 04 00 00     cmp         eax,420h
  10005A87: 74 1C              je          10005AA5
  10005A89: FF D5              call        ebp
  10005A8B: 3D 22 04 00 00     cmp         eax,422h
  10005A90: 74 13              je          10005AA5
  10005A92: 68 D0 A1 00 10     push        1000A1D0h
  10005A97: BF E5 00 00 C0     mov         edi,0C00000E5h
  10005A9C: FF D5              call        ebp
  10005A9E: E8 1D E2 FF FF     call        10003CC0
  10005AA3: EB 10              jmp         10005AB5
  10005AA5: 89 3D B8 F6 00 10  mov         dword ptr ds:[1000F6B8h],edi
  10005AAB: C7 05 08 D0 00 10  mov         dword ptr ds:[1000D008h],100091F0h
            F0 91 00 10
  10005AB5: 85 F6              test        esi,esi
  10005AB7: 5D                 pop         ebp
  10005AB8: 74 0E              je          10005AC8
  10005ABA: 56                 push        esi
  10005ABB: FF 15 0C 90 00 10  call        dword ptr ds:[1000900Ch]
  10005AC1: 56                 push        esi
  10005AC2: FF 15 10 90 00 10  call        dword ptr ds:[10009010h]
  10005AC8: 85 DB              test        ebx,ebx
  10005ACA: 74 07              je          10005AD3
  10005ACC: 53                 push        ebx
  10005ACD: FF 15 10 90 00 10  call        dword ptr ds:[10009010h]
  10005AD3: 8B C7              mov         eax,edi
  10005AD5: 5F                 pop         edi
  10005AD6: 5B                 pop         ebx
  10005AD7: 5E                 pop         esi
  10005AD8: 81 C4 0C 02 00 00  add         esp,20Ch
  10005ADE: C2 08 00           ret         8
  10005AE1: CC                 int         3
  10005AE2: CC                 int         3
  10005AE3: CC                 int         3
  10005AE4: CC                 int         3
  10005AE5: CC                 int         3
  10005AE6: CC                 int         3
  10005AE7: CC                 int         3
  10005AE8: CC                 int         3
  10005AE9: CC                 int         3
  10005AEA: CC                 int         3
  10005AEB: CC                 int         3
  10005AEC: CC                 int         3
  10005AED: CC                 int         3
  10005AEE: CC                 int         3
  10005AEF: CC                 int         3
  10005AF0: 56                 push        esi
  10005AF1: BE 00 A2 00 10     mov         esi,1000A200h
  10005AF6: E8 35 E2 FF FF     call        10003D30
  10005AFB: 85 C0              test        eax,eax
  10005AFD: 74 05              je          10005B04
  10005AFF: BE 24 A2 00 10     mov         esi,1000A224h
  10005B04: 56                 push        esi
  10005B05: 56                 push        esi
  10005B06: E8 15 FE FF FF     call        10005920
  10005B0B: 5E                 pop         esi
  10005B0C: C3                 ret
  10005B0D: CC                 int         3
  10005B0E: CC                 int         3
  10005B0F: CC                 int         3
  10005B10: 6A 00              push        0
  10005B12: 50                 push        eax
  10005B13: E8 64 B6 FF FF     call        1000117C
  10005B18: 85 C0              test        eax,eax
  10005B1A: 7F 05              jg          10005B21
  10005B1C: B8 0D 00 00 C0     mov         eax,0C000000Dh
  10005B21: C3                 ret
  10005B22: CC                 int         3
  10005B23: CC                 int         3
  10005B24: CC                 int         3
  10005B25: CC                 int         3
  10005B26: CC                 int         3
  10005B27: CC                 int         3
  10005B28: CC                 int         3
  10005B29: CC                 int         3
  10005B2A: CC                 int         3
  10005B2B: CC                 int         3
  10005B2C: CC                 int         3
  10005B2D: CC                 int         3
  10005B2E: CC                 int         3
  10005B2F: CC                 int         3
  10005B30: 83 EC 0C           sub         esp,0Ch
  10005B33: 53                 push        ebx
  10005B34: 55                 push        ebp
  10005B35: 8B 6C 24 18        mov         ebp,dword ptr [esp+18h]
  10005B39: 56                 push        esi
  10005B3A: 8B 74 24 24        mov         esi,dword ptr [esp+24h]
  10005B3E: 57                 push        edi
  10005B3F: 8B 7C 24 24        mov         edi,dword ptr [esp+24h]
  10005B43: 83 FF 14           cmp         edi,14h
  10005B46: 72 0D              jb          10005B55
  10005B48: 68 D4 BC 00 10     push        1000BCD4h
  10005B4D: 6A 00              push        0
  10005B4F: FF 15 B8 90 00 10  call        dword ptr ds:[100090B8h]
  10005B55: 03 FD              add         edi,ebp
  10005B57: 3B EF              cmp         ebp,edi
  10005B59: 89 7C 24 18        mov         dword ptr [esp+18h],edi
  10005B5D: 0F 83 1E 01 00 00  jae         10005C81
  10005B63: 8A 45 00           mov         al,byte ptr [ebp]
  10005B66: 8A 55 01           mov         dl,byte ptr [ebp+1]
  10005B69: 33 DB              xor         ebx,ebx
  10005B6B: 33 C9              xor         ecx,ecx
  10005B6D: 3C 67              cmp         al,67h
  10005B6F: 89 5C 24 10        mov         dword ptr [esp+10h],ebx
  10005B73: 0F 84 00 01 00 00  je          10005C79
  10005B79: 0F B6 F8           movzx       edi,al
  10005B7C: 89 7C 24 14        mov         dword ptr [esp+14h],edi
  10005B80: 83 C7 F1           add         edi,0FFFFFFF1h
  10005B83: 81 FF DC 00 00 00  cmp         edi,0DCh
  10005B89: 77 35              ja          10005BC0
  10005B8B: 0F B6 BF 98 5D 00  movzx       edi,byte ptr [edi+10005D98h]
            10
  10005B92: FF 24 BD 84 5D 00  jmp         dword ptr [edi*4+10005D84h]
            10
  10005B99: 3B 6C 24 20        cmp         ebp,dword ptr [esp+20h]
  10005B9D: 0F 85 06 01 00 00  jne         10005CA9
  10005BA3: 8B 4D 01           mov         ecx,dword ptr [ebp+1]
  10005BA6: C7 44 24 10 05 00  mov         dword ptr [esp+10h],5
            00 00
  10005BAE: 8B 5C 24 10        mov         ebx,dword ptr [esp+10h]
  10005BB2: EB 0C              jmp         10005BC0
  10005BB4: 80 E2 F0           and         dl,0F0h
  10005BB7: 80 FA 80           cmp         dl,80h
  10005BBA: 0F 84 3D 01 00 00  je          10005CFD
  10005BC0: 24 F0              and         al,0F0h
  10005BC2: 3C 70              cmp         al,70h
  10005BC4: 0F 84 5D 01 00 00  je          10005D27
  10005BCA: 85 DB              test        ebx,ebx
  10005BCC: 76 73              jbe         10005C41
  10005BCE: 03 DD              add         ebx,ebp
  10005BD0: 03 CB              add         ecx,ebx
  10005BD2: 8B C1              mov         eax,ecx
  10005BD4: 99                 cdq
  10005BD5: C6 06 B8           mov         byte ptr [esi],0B8h
  10005BD8: 83 C6 01           add         esi,1
  10005BDB: 8B D8              mov         ebx,eax
  10005BDD: 8B 44 24 20        mov         eax,dword ptr [esp+20h]
  10005BE1: 8B FA              mov         edi,edx
  10005BE3: 89 1E              mov         dword ptr [esi],ebx
  10005BE5: 89 7E 04           mov         dword ptr [esi+4],edi
  10005BE8: 83 C6 04           add         esi,4
  10005BEB: 3B C8              cmp         ecx,eax
  10005BED: 7C 1B              jl          10005C0A
  10005BEF: 99                 cdq
  10005BF0: 33 C9              xor         ecx,ecx
  10005BF2: 03 44 24 24        add         eax,dword ptr [esp+24h]
  10005BF6: 13 D1              adc         edx,ecx
  10005BF8: 3B FA              cmp         edi,edx
  10005BFA: 0F 8C 55 01 00 00  jl          10005D55
  10005C00: 7F 08              jg          10005C0A
  10005C02: 3B D8              cmp         ebx,eax
  10005C04: 0F 82 4B 01 00 00  jb          10005D55
  10005C0A: 8B 44 24 14        mov         eax,dword ptr [esp+14h]
  10005C0E: 2D E8 00 00 00     sub         eax,0E8h
  10005C13: 74 10              je          10005C25
  10005C15: 83 E8 01           sub         eax,1
  10005C18: 75 17              jne         10005C31
  10005C1A: C6 06 FF           mov         byte ptr [esi],0FFh
  10005C1D: 83 C6 01           add         esi,1
  10005C20: C6 06 E0           mov         byte ptr [esi],0E0h
  10005C23: EB 09              jmp         10005C2E
  10005C25: C6 06 FF           mov         byte ptr [esi],0FFh
  10005C28: 83 C6 01           add         esi,1
  10005C2B: C6 06 D0           mov         byte ptr [esi],0D0h
  10005C2E: 83 C6 01           add         esi,1
  10005C31: 8B 44 24 2C        mov         eax,dword ptr [esp+2Ch]
  10005C35: 8B 5C 24 10        mov         ebx,dword ptr [esp+10h]
  10005C39: 8B D6              mov         edx,esi
  10005C3B: 2B 54 24 28        sub         edx,dword ptr [esp+28h]
  10005C3F: 89 10              mov         dword ptr [eax],edx
  10005C41: 6A 00              push        0
  10005C43: 55                 push        ebp
  10005C44: E8 33 B5 FF FF     call        1000117C
  10005C49: 85 C0              test        eax,eax
  10005C4B: 8B C8              mov         ecx,eax
  10005C4D: 7F 05              jg          10005C54
  10005C4F: B9 0D 00 00 C0     mov         ecx,0C000000Dh
  10005C54: 85 C9              test        ecx,ecx
  10005C56: 8B F9              mov         edi,ecx
  10005C58: 7C 43              jl          10005C9D
  10005C5A: 85 DB              test        ebx,ebx
  10005C5C: 75 15              jne         10005C73
  10005C5E: 33 C0              xor         eax,eax
  10005C60: 85 C9              test        ecx,ecx
  10005C62: 76 0D              jbe         10005C71
  10005C64: 8A 14 28           mov         dl,byte ptr [eax+ebp]
  10005C67: 88 14 30           mov         byte ptr [eax+esi],dl
  10005C6A: 83 C0 01           add         eax,1
  10005C6D: 3B C1              cmp         eax,ecx
  10005C6F: 72 F3              jb          10005C64
  10005C71: 03 F1              add         esi,ecx
  10005C73: 8B 7C 24 18        mov         edi,dword ptr [esp+18h]
  10005C77: 03 E9              add         ebp,ecx
  10005C79: 3B EF              cmp         ebp,edi
  10005C7B: 0F 82 E2 FE FF FF  jb          10005B63
  10005C81: 2B 74 24 28        sub         esi,dword ptr [esp+28h]
  10005C85: 8B 44 24 2C        mov         eax,dword ptr [esp+2Ch]
  10005C89: 33 FF              xor         edi,edi
  10005C8B: 89 30              mov         dword ptr [eax],esi
  10005C8D: 89 3D B8 F6 00 10  mov         dword ptr ds:[1000F6B8h],edi
  10005C93: C7 05 08 D0 00 10  mov         dword ptr ds:[1000D008h],100091F0h
            F0 91 00 10
  10005C9D: 8B C7              mov         eax,edi
  10005C9F: 5F                 pop         edi
  10005CA0: 5E                 pop         esi
  10005CA1: 5D                 pop         ebp
  10005CA2: 5B                 pop         ebx
  10005CA3: 83 C4 0C           add         esp,0Ch
  10005CA6: C2 10 00           ret         10h
  10005CA9: BF BB 00 00 C0     mov         edi,0C00000BBh
  10005CAE: FF 15 2C 90 00 10  call        dword ptr ds:[1000902Ch]
  10005CB4: 85 C0              test        eax,eax
  10005CB6: A3 B8 F6 00 10     mov         dword ptr ds:[1000F6B8h],eax
  10005CBB: 74 D6              je          10005C93
  10005CBD: C7 05 08 D0 00 10  mov         dword ptr ds:[1000D008h],10009E00h
            00 9E 00 10
  10005CC7: 8B C7              mov         eax,edi
  10005CC9: 5F                 pop         edi
  10005CCA: 5E                 pop         esi
  10005CCB: 5D                 pop         ebp
  10005CCC: 5B                 pop         ebx
  10005CCD: 83 C4 0C           add         esp,0Ch
  10005CD0: C2 10 00           ret         10h
  10005CD3: BF BB 00 00 C0     mov         edi,0C00000BBh
  10005CD8: FF 15 2C 90 00 10  call        dword ptr ds:[1000902Ch]
  10005CDE: 85 C0              test        eax,eax
  10005CE0: A3 B8 F6 00 10     mov         dword ptr ds:[1000F6B8h],eax
  10005CE5: 74 AC              je          10005C93
  10005CE7: C7 05 08 D0 00 10  mov         dword ptr ds:[1000D008h],10009E90h
            90 9E 00 10
  10005CF1: 8B C7              mov         eax,edi
  10005CF3: 5F                 pop         edi
  10005CF4: 5E                 pop         esi
  10005CF5: 5D                 pop         ebp
  10005CF6: 5B                 pop         ebx
  10005CF7: 83 C4 0C           add         esp,0Ch
  10005CFA: C2 10 00           ret         10h
  10005CFD: BF BB 00 00 C0     mov         edi,0C00000BBh
  10005D02: FF 15 2C 90 00 10  call        dword ptr ds:[1000902Ch]
  10005D08: 85 C0              test        eax,eax
  10005D0A: A3 B8 F6 00 10     mov         dword ptr ds:[1000F6B8h],eax
  10005D0F: 74 82              je          10005C93
  10005D11: C7 05 08 D0 00 10  mov         dword ptr ds:[1000D008h],10009EF8h
            F8 9E 00 10
  10005D1B: 8B C7              mov         eax,edi
  10005D1D: 5F                 pop         edi
  10005D1E: 5E                 pop         esi
  10005D1F: 5D                 pop         ebp
  10005D20: 5B                 pop         ebx
  10005D21: 83 C4 0C           add         esp,0Ch
  10005D24: C2 10 00           ret         10h
  10005D27: BF BB 00 00 C0     mov         edi,0C00000BBh
  10005D2C: FF 15 2C 90 00 10  call        dword ptr ds:[1000902Ch]
  10005D32: 85 C0              test        eax,eax
  10005D34: A3 B8 F6 00 10     mov         dword ptr ds:[1000F6B8h],eax
  10005D39: 0F 84 54 FF FF FF  je          10005C93
  10005D3F: C7 05 08 D0 00 10  mov         dword ptr ds:[1000D008h],10009F58h
            58 9F 00 10
  10005D49: 8B C7              mov         eax,edi
  10005D4B: 5F                 pop         edi
  10005D4C: 5E                 pop         esi
  10005D4D: 5D                 pop         ebp
  10005D4E: 5B                 pop         ebx
  10005D4F: 83 C4 0C           add         esp,0Ch
  10005D52: C2 10 00           ret         10h
  10005D55: BF BB 00 00 C0     mov         edi,0C00000BBh
  10005D5A: FF 15 2C 90 00 10  call        dword ptr ds:[1000902Ch]
  10005D60: 85 C0              test        eax,eax
  10005D62: A3 B8 F6 00 10     mov         dword ptr ds:[1000F6B8h],eax
  10005D67: 0F 84 26 FF FF FF  je          10005C93
  10005D6D: 8B C7              mov         eax,edi
  10005D6F: 5F                 pop         edi
  10005D70: 5E                 pop         esi
  10005D71: 5D                 pop         ebp
  10005D72: C7 05 08 D0 00 10  mov         dword ptr ds:[1000D008h],10009FC0h
            C0 9F 00 10
  10005D7C: 5B                 pop         ebx
  10005D7D: 83 C4 0C           add         esp,0Ch
  10005D80: C2 10 00           ret         10h
  10005D83: 90                 nop
  10005D84: B4 5B              mov         ah,5Bh
  10005D86: 00 10              add         byte ptr [eax],dl
  10005D88: D3 5C 00 10        rcr         dword ptr [eax+eax+10h],cl
  10005D8C: A3 5B 00 10 99     mov         dword ptr ds:[9910005Bh],eax
  10005D91: 5B                 pop         ebx
  10005D92: 00 10              add         byte ptr [eax],dl
  10005D94: C0 5B 00 10        rcr         byte ptr [ebx],10h
  10005D98: 00 04 04           add         byte ptr [esp+eax],al
  10005D9B: 04 04              add         al,4
  10005D9D: 04 04              add         al,4
  10005D9F: 04 04              add         al,4
  10005DA1: 04 04              add         al,4
  10005DA3: 04 04              add         al,4
  10005DA5: 04 04              add         al,4
  10005DA7: 04 04              add         al,4
  10005DA9: 04 04              add         al,4
  10005DAB: 04 04              add         al,4
  10005DAD: 04 04              add         al,4
  10005DAF: 04 04              add         al,4
  10005DB1: 04 04              add         al,4
  10005DB3: 04 04              add         al,4
  10005DB5: 04 04              add         al,4
  10005DB7: 04 04              add         al,4
  10005DB9: 04 04              add         al,4
  10005DBB: 04 04              add         al,4
  10005DBD: 04 04              add         al,4
  10005DBF: 04 04              add         al,4
  10005DC1: 04 04              add         al,4
  10005DC3: 04 04              add         al,4
  10005DC5: 04 04              add         al,4
  10005DC7: 04 04              add         al,4
  10005DC9: 04 04              add         al,4
  10005DCB: 04 04              add         al,4
  10005DCD: 04 04              add         al,4
  10005DCF: 04 04              add         al,4
  10005DD1: 04 04              add         al,4
  10005DD3: 04 04              add         al,4
  10005DD5: 04 04              add         al,4
  10005DD7: 04 04              add         al,4
  10005DD9: 04 04              add         al,4
  10005DDB: 04 04              add         al,4
  10005DDD: 04 04              add         al,4
  10005DDF: 04 04              add         al,4
  10005DE1: 04 04              add         al,4
  10005DE3: 04 04              add         al,4
  10005DE5: 04 04              add         al,4
  10005DE7: 04 04              add         al,4
  10005DE9: 04 04              add         al,4
  10005DEB: 04 04              add         al,4
  10005DED: 04 04              add         al,4
  10005DEF: 04 04              add         al,4
  10005DF1: 04 04              add         al,4
  10005DF3: 04 04              add         al,4
  10005DF5: 04 04              add         al,4
  10005DF7: 04 04              add         al,4
  10005DF9: 04 04              add         al,4
  10005DFB: 04 04              add         al,4
  10005DFD: 04 04              add         al,4
  10005DFF: 04 04              add         al,4
  10005E01: 04 04              add         al,4
  10005E03: 04 04              add         al,4
  10005E05: 04 04              add         al,4
  10005E07: 04 04              add         al,4
  10005E09: 04 04              add         al,4
  10005E0B: 04 04              add         al,4
  10005E0D: 04 04              add         al,4
  10005E0F: 04 04              add         al,4
  10005E11: 04 04              add         al,4
  10005E13: 04 04              add         al,4
  10005E15: 04 04              add         al,4
  10005E17: 04 04              add         al,4
  10005E19: 04 04              add         al,4
  10005E1B: 04 04              add         al,4
  10005E1D: 04 04              add         al,4
  10005E1F: 04 04              add         al,4
  10005E21: 04 04              add         al,4
  10005E23: 04 04              add         al,4
  10005E25: 04 04              add         al,4
  10005E27: 04 04              add         al,4
  10005E29: 04 04              add         al,4
  10005E2B: 04 04              add         al,4
  10005E2D: 04 04              add         al,4
  10005E2F: 04 04              add         al,4
  10005E31: 04 04              add         al,4
  10005E33: 04 04              add         al,4
  10005E35: 04 04              add         al,4
  10005E37: 04 04              add         al,4
  10005E39: 04 04              add         al,4
  10005E3B: 04 04              add         al,4
  10005E3D: 04 04              add         al,4
  10005E3F: 04 04              add         al,4
  10005E41: 04 04              add         al,4
  10005E43: 04 04              add         al,4
  10005E45: 04 04              add         al,4
  10005E47: 04 04              add         al,4
  10005E49: 04 04              add         al,4
  10005E4B: 04 04              add         al,4
  10005E4D: 04 04              add         al,4
  10005E4F: 04 04              add         al,4
  10005E51: 04 04              add         al,4
  10005E53: 04 04              add         al,4
  10005E55: 04 04              add         al,4
  10005E57: 04 04              add         al,4
  10005E59: 04 04              add         al,4
  10005E5B: 04 04              add         al,4
  10005E5D: 04 04              add         al,4
  10005E5F: 04 04              add         al,4
  10005E61: 04 04              add         al,4
  10005E63: 04 04              add         al,4
  10005E65: 04 04              add         al,4
  10005E67: 04 04              add         al,4
  10005E69: 04 04              add         al,4
  10005E6B: 04 01              add         al,1
  10005E6D: 04 04              add         al,4
  10005E6F: 04 04              add         al,4
  10005E71: 02 03              add         al,byte ptr [ebx]
  10005E73: 04 01              add         al,1
  10005E75: CC                 int         3
  10005E76: CC                 int         3
  10005E77: CC                 int         3
  10005E78: CC                 int         3
  10005E79: CC                 int         3
  10005E7A: CC                 int         3
  10005E7B: CC                 int         3
  10005E7C: CC                 int         3
  10005E7D: CC                 int         3
  10005E7E: CC                 int         3
  10005E7F: CC                 int         3
  10005E80: 56                 push        esi
  10005E81: 57                 push        edi
  10005E82: 8D 7B 05           lea         edi,[ebx+5]
  10005E85: 3B FB              cmp         edi,ebx
  10005E87: 8B F3              mov         esi,ebx
  10005E89: 76 17              jbe         10005EA2
  10005E8B: EB 03              jmp         10005E90
  10005E8D: 8D 49 00           lea         ecx,[ecx]
  10005E90: 6A 00              push        0
  10005E92: 56                 push        esi
  10005E93: E8 E4 B2 FF FF     call        1000117C
  10005E98: 85 C0              test        eax,eax
  10005E9A: 7E 0D              jle         10005EA9
  10005E9C: 03 F0              add         esi,eax
  10005E9E: 3B FE              cmp         edi,esi
  10005EA0: 77 EE              ja          10005E90
  10005EA2: 8B C6              mov         eax,esi
  10005EA4: 5F                 pop         edi
  10005EA5: 2B C3              sub         eax,ebx
  10005EA7: 5E                 pop         esi
  10005EA8: C3                 ret
  10005EA9: 5F                 pop         edi
  10005EAA: B8 0D 00 00 C0     mov         eax,0C000000Dh
  10005EAF: 5E                 pop         esi
  10005EB0: C3                 ret
  10005EB1: CC                 int         3
  10005EB2: CC                 int         3
  10005EB3: CC                 int         3
  10005EB4: CC                 int         3
  10005EB5: CC                 int         3
  10005EB6: CC                 int         3
  10005EB7: CC                 int         3
  10005EB8: CC                 int         3
  10005EB9: CC                 int         3
  10005EBA: CC                 int         3
  10005EBB: CC                 int         3
  10005EBC: CC                 int         3
  10005EBD: CC                 int         3
  10005EBE: CC                 int         3
  10005EBF: CC                 int         3
  10005EC0: B8 5D 10 00 10     mov         eax,1000105Dh
  10005EC5: 80 38 E9           cmp         byte ptr [eax],0E9h
  10005EC8: 75 10              jne         10005EDA
  10005ECA: B8 5D 10 00 10     mov         eax,1000105Dh
  10005ECF: 8B 40 01           mov         eax,dword ptr [eax+1]
  10005ED2: 05 5D 10 00 10     add         eax,1000105Dh
  10005ED7: 83 C0 05           add         eax,5
  10005EDA: C3                 ret
  10005EDB: CC                 int         3
  10005EDC: CC                 int         3
  10005EDD: CC                 int         3
  10005EDE: CC                 int         3
  10005EDF: CC                 int         3
  10005EE0: 68 68 02 00 00     push        268h
  10005EE5: 68 00 F4 00 10     push        1000F400h
  10005EEA: E8 71 DA FF FF     call        10003960
  10005EEF: 68 68 02 00 00     push        268h
  10005EF4: 68 98 F1 00 10     push        1000F198h
  10005EF9: E8 62 DA FF FF     call        10003960
  10005EFE: 6A 1C              push        1Ch
  10005F00: 68 54 D3 00 10     push        1000D354h
  10005F05: E8 56 DA FF FF     call        10003960
  10005F0A: 68 54 D3 00 10     push        1000D354h
  10005F0F: FF 15 D0 90 00 10  call        dword ptr ds:[100090D0h]
  10005F15: C3                 ret
  10005F16: CC                 int         3
  10005F17: CC                 int         3
  10005F18: CC                 int         3
  10005F19: CC                 int         3
  10005F1A: CC                 int         3
  10005F1B: CC                 int         3
  10005F1C: CC                 int         3
  10005F1D: CC                 int         3
  10005F1E: CC                 int         3
  10005F1F: CC                 int         3
  10005F20: BA 5D 10 00 10     mov         edx,1000105Dh
  10005F25: 80 3A E9           cmp         byte ptr [edx],0E9h
  10005F28: 75 11              jne         10005F3B
  10005F2A: B8 5D 10 00 10     mov         eax,1000105Dh
  10005F2F: 8B 50 01           mov         edx,dword ptr [eax+1]
  10005F32: 81 C2 5D 10 00 10  add         edx,1000105Dh
  10005F38: 83 C2 05           add         edx,5
  10005F3B: A1 AC F6 00 10     mov         eax,dword ptr ds:[1000F6ACh]
  10005F40: 85 C0              test        eax,eax
  10005F42: 8B CA              mov         ecx,edx
  10005F44: 75 24              jne         10005F6A
  10005F46: 81 39 78 56 34 12  cmp         dword ptr [ecx],12345678h
  10005F4C: 74 1D              je          10005F6B
  10005F4E: 83 C0 01           add         eax,1
  10005F51: 83 C1 01           add         ecx,1
  10005F54: 3D D0 07 00 00     cmp         eax,7D0h
  10005F59: 72 EB              jb          10005F46
  10005F5B: 68 D4 BC 00 10     push        1000BCD4h
  10005F60: 6A 00              push        0
  10005F62: FF 15 B8 90 00 10  call        dword ptr ds:[100090B8h]
  10005F68: 33 C0              xor         eax,eax
  10005F6A: C3                 ret
  10005F6B: 2B CA              sub         ecx,edx
  10005F6D: 8B C1              mov         eax,ecx
  10005F6F: A3 AC F6 00 10     mov         dword ptr ds:[1000F6ACh],eax
  10005F74: C3                 ret
  10005F75: CC                 int         3
  10005F76: CC                 int         3
  10005F77: CC                 int         3
  10005F78: CC                 int         3
  10005F79: CC                 int         3
  10005F7A: CC                 int         3
  10005F7B: CC                 int         3
  10005F7C: CC                 int         3
  10005F7D: CC                 int         3
  10005F7E: CC                 int         3
  10005F7F: CC                 int         3
  10005F80: 85 F6              test        esi,esi
  10005F82: 55                 push        ebp
  10005F83: 8B 6C 24 08        mov         ebp,dword ptr [esp+8]
  10005F87: 0F 84 83 00 00 00  je          10006010
  10005F8D: 83 FE FF           cmp         esi,0FFFFFFFFh
  10005F90: 74 7E              je          10006010
  10005F92: 53                 push        ebx
  10005F93: 8B 1D CC 90 00 10  mov         ebx,dword ptr ds:[100090CCh]
  10005F99: 57                 push        edi
  10005F9A: 6A 04              push        4
  10005F9C: 56                 push        esi
  10005F9D: FF D3              call        ebx
  10005F9F: 85 C0              test        eax,eax
  10005FA1: 8B 3D B8 90 00 10  mov         edi,dword ptr ds:[100090B8h]
  10005FA7: 74 09              je          10005FB2
  10005FA9: 68 D4 BC 00 10     push        1000BCD4h
  10005FAE: 6A 00              push        0
  10005FB0: FF D7              call        edi
  10005FB2: 8B 06              mov         eax,dword ptr [esi]
  10005FB4: 85 C0              test        eax,eax
  10005FB6: 74 50              je          10006008
  10005FB8: 83 F8 FF           cmp         eax,0FFFFFFFFh
  10005FBB: 74 4B              je          10006008
  10005FBD: 68 68 02 00 00     push        268h
  10005FC2: 50                 push        eax
  10005FC3: FF D3              call        ebx
  10005FC5: 85 C0              test        eax,eax
  10005FC7: 74 09              je          10005FD2
  10005FC9: 68 D4 BC 00 10     push        1000BCD4h
  10005FCE: 6A 00              push        0
  10005FD0: FF D7              call        edi
  10005FD2: 8B 06              mov         eax,dword ptr [esi]
  10005FD4: 81 B8 44 02 00 00  cmp         dword ptr [eax+00000244h],6A910BE2h
            E2 0B 91 6A
  10005FDE: 75 28              jne         10006008
  10005FE0: 85 C0              test        eax,eax
  10005FE2: 8B 48 04           mov         ecx,dword ptr [eax+4]
  10005FE5: 74 21              je          10006008
  10005FE7: 83 F8 FF           cmp         eax,0FFFFFFFFh
  10005FEA: 74 1C              je          10006008
  10005FEC: 51                 push        ecx
  10005FED: 50                 push        eax
  10005FEE: FF D3              call        ebx
  10005FF0: 85 C0              test        eax,eax
  10005FF2: 74 09              je          10005FFD
  10005FF4: 68 D4 BC 00 10     push        1000BCD4h
  10005FF9: 6A 00              push        0
  10005FFB: FF D7              call        edi
  10005FFD: 8B 06              mov         eax,dword ptr [esi]
  10005FFF: 83 B8 58 02 00 00  cmp         dword ptr [eax+00000258h],0
            00
  10006006: 75 0E              jne         10006016
  10006008: 5F                 pop         edi
  10006009: 5B                 pop         ebx
  1000600A: 33 C0              xor         eax,eax
  1000600C: 5D                 pop         ebp
  1000600D: C2 04 00           ret         4
  10006010: 33 C0              xor         eax,eax
  10006012: 5D                 pop         ebp
  10006013: C2 04 00           ret         4
  10006016: 85 ED              test        ebp,ebp
  10006018: 74 03              je          1000601D
  1000601A: 89 45 00           mov         dword ptr [ebp],eax
  1000601D: 5F                 pop         edi
  1000601E: 5B                 pop         ebx
  1000601F: B8 01 00 00 00     mov         eax,1
  10006024: 5D                 pop         ebp
  10006025: C2 04 00           ret         4
  10006028: CC                 int         3
  10006029: CC                 int         3
  1000602A: CC                 int         3
  1000602B: CC                 int         3
  1000602C: CC                 int         3
  1000602D: CC                 int         3
  1000602E: CC                 int         3
  1000602F: CC                 int         3
  10006030: 55                 push        ebp
  10006031: 8B EC              mov         ebp,esp
  10006033: 83 E4 F8           and         esp,0FFFFFFF8h
  10006036: 83 EC 1C           sub         esp,1Ch
  10006039: 8B 45 08           mov         eax,dword ptr [ebp+8]
  1000603C: 85 C0              test        eax,eax
  1000603E: 53                 push        ebx
  1000603F: 56                 push        esi
  10006040: 57                 push        edi
  10006041: C6 44 24 1C E9     mov         byte ptr [esp+1Ch],0E9h
  10006046: C6 44 24 1D 00     mov         byte ptr [esp+1Dh],0
  1000604B: C6 44 24 1E 00     mov         byte ptr [esp+1Eh],0
  10006050: C6 44 24 1F 00     mov         byte ptr [esp+1Fh],0
  10006055: C6 44 24 20 00     mov         byte ptr [esp+20h],0
  1000605A: C6 44 24 21 00     mov         byte ptr [esp+21h],0
  1000605F: C6 44 24 22 00     mov         byte ptr [esp+22h],0
  10006064: C6 44 24 23 00     mov         byte ptr [esp+23h],0
  10006069: C6 44 24 24 00     mov         byte ptr [esp+24h],0
  1000606E: C6 44 24 25 00     mov         byte ptr [esp+25h],0
  10006073: C6 44 24 26 00     mov         byte ptr [esp+26h],0
  10006078: C6 44 24 27 00     mov         byte ptr [esp+27h],0
  1000607D: 0F 84 A9 00 00 00  je          1000612C
  10006083: 83 F8 FF           cmp         eax,0FFFFFFFFh
  10006086: 0F 84 A0 00 00 00  je          1000612C
  1000608C: 8B 3D CC 90 00 10  mov         edi,dword ptr ds:[100090CCh]
  10006092: 6A 01              push        1
  10006094: 50                 push        eax
  10006095: FF D7              call        edi
  10006097: 85 C0              test        eax,eax
  10006099: 8B 1D B8 90 00 10  mov         ebx,dword ptr ds:[100090B8h]
  1000609F: 74 09              je          100060AA
  100060A1: 68 D4 BC 00 10     push        1000BCD4h
  100060A6: 6A 00              push        0
  100060A8: FF D3              call        ebx
  100060AA: 8B 45 0C           mov         eax,dword ptr [ebp+0Ch]
  100060AD: 85 C0              test        eax,eax
  100060AF: 0F 84 A4 00 00 00  je          10006159
  100060B5: 83 F8 FF           cmp         eax,0FFFFFFFFh
  100060B8: 0F 84 9B 00 00 00  je          10006159
  100060BE: 6A 01              push        1
  100060C0: 50                 push        eax
  100060C1: FF D7              call        edi
  100060C3: 85 C0              test        eax,eax
  100060C5: 74 09              je          100060D0
  100060C7: 68 D4 BC 00 10     push        1000BCD4h
  100060CC: 6A 00              push        0
  100060CE: FF D3              call        ebx
  100060D0: 8B 75 14           mov         esi,dword ptr [ebp+14h]
  100060D3: 85 F6              test        esi,esi
  100060D5: 0F 84 AB 00 00 00  je          10006186
  100060DB: 83 FE FF           cmp         esi,0FFFFFFFFh
  100060DE: 0F 84 A2 00 00 00  je          10006186
  100060E4: 6A 04              push        4
  100060E6: 56                 push        esi
  100060E7: FF D7              call        edi
  100060E9: 85 C0              test        eax,eax
  100060EB: 74 09              je          100060F6
  100060ED: 68 D4 BC 00 10     push        1000BCD4h
  100060F2: 6A 00              push        0
  100060F4: FF D3              call        ebx
  100060F6: 83 3E 00           cmp         dword ptr [esi],0
  100060F9: 0F 84 B4 00 00 00  je          100061B3
  100060FF: BB F2 00 00 C0     mov         ebx,0C00000F2h
  10006104: FF 15 2C 90 00 10  call        dword ptr ds:[1000902Ch]
  1000610A: 85 C0              test        eax,eax
  1000610C: A3 B8 F6 00 10     mov         dword ptr ds:[1000F6B8h],eax
  10006111: 0F 84 A2 03 00 00  je          100064B9
  10006117: C7 05 08 D0 00 10  mov         dword ptr ds:[1000D008h],10009C68h
            68 9C 00 10
  10006121: 8B C3              mov         eax,ebx
  10006123: 5F                 pop         edi
  10006124: 5E                 pop         esi
  10006125: 5B                 pop         ebx
  10006126: 8B E5              mov         esp,ebp
  10006128: 5D                 pop         ebp
  10006129: C2 10 00           ret         10h
  1000612C: BB EF 00 00 C0     mov         ebx,0C00000EFh
  10006131: FF 15 2C 90 00 10  call        dword ptr ds:[1000902Ch]
  10006137: 85 C0              test        eax,eax
  10006139: A3 B8 F6 00 10     mov         dword ptr ds:[1000F6B8h],eax
  1000613E: 0F 84 75 03 00 00  je          100064B9
  10006144: C7 05 08 D0 00 10  mov         dword ptr ds:[1000D008h],10009B84h
            84 9B 00 10
  1000614E: 8B C3              mov         eax,ebx
  10006150: 5F                 pop         edi
  10006151: 5E                 pop         esi
  10006152: 5B                 pop         ebx
  10006153: 8B E5              mov         esp,ebp
  10006155: 5D                 pop         ebp
  10006156: C2 10 00           ret         10h
  10006159: BB F0 00 00 C0     mov         ebx,0C00000F0h
  1000615E: FF 15 2C 90 00 10  call        dword ptr ds:[1000902Ch]
  10006164: 85 C0              test        eax,eax
  10006166: A3 B8 F6 00 10     mov         dword ptr ds:[1000F6B8h],eax
  1000616B: 0F 84 48 03 00 00  je          100064B9
  10006171: C7 05 08 D0 00 10  mov         dword ptr ds:[1000D008h],10009BB0h
            B0 9B 00 10
  1000617B: 8B C3              mov         eax,ebx
  1000617D: 5F                 pop         edi
  1000617E: 5E                 pop         esi
  1000617F: 5B                 pop         ebx
  10006180: 8B E5              mov         esp,ebp
  10006182: 5D                 pop         ebp
  10006183: C2 10 00           ret         10h
  10006186: BB F2 00 00 C0     mov         ebx,0C00000F2h
  1000618B: FF 15 2C 90 00 10  call        dword ptr ds:[1000902Ch]
  10006191: 85 C0              test        eax,eax
  10006193: A3 B8 F6 00 10     mov         dword ptr ds:[1000F6B8h],eax
  10006198: 0F 84 1B 03 00 00  je          100064B9
  1000619E: C7 05 08 D0 00 10  mov         dword ptr ds:[1000D008h],10009BE0h
            E0 9B 00 10
  100061A8: 8B C3              mov         eax,ebx
  100061AA: 5F                 pop         edi
  100061AB: 5E                 pop         esi
  100061AC: 5B                 pop         ebx
  100061AD: 8B E5              mov         esp,ebp
  100061AF: 5D                 pop         ebp
  100061B0: C2 10 00           ret         10h
  100061B3: E8 78 1C 00 00     call        10007E30
  100061B8: 8B F8              mov         edi,eax
  100061BA: 85 FF              test        edi,edi
  100061BC: 75 34              jne         100061F2
  100061BE: BB 17 00 00 C0     mov         ebx,0C0000017h
  100061C3: 68 F0 9C 00 10     push        10009CF0h
  100061C8: FF 15 2C 90 00 10  call        dword ptr ds:[1000902Ch]
  100061CE: E8 ED DA FF FF     call        10003CC0
  100061D3: 85 FF              test        edi,edi
  100061D5: 74 10              je          100061E7
  100061D7: 8B 0D 74 F6 00 10  mov         ecx,dword ptr ds:[1000F674h]
  100061DD: 57                 push        edi
  100061DE: 6A 00              push        0
  100061E0: 51                 push        ecx
  100061E1: FF 15 C8 90 00 10  call        dword ptr ds:[100090C8h]
  100061E7: 8B C3              mov         eax,ebx
  100061E9: 5F                 pop         edi
  100061EA: 5E                 pop         esi
  100061EB: 5B                 pop         ebx
  100061EC: 8B E5              mov         esp,ebp
  100061EE: 5D                 pop         ebp
  100061EF: C2 10 00           ret         10h
  100061F2: B9 00 10 00 00     mov         ecx,1000h
  100061F7: 8B D7              mov         edx,edi
  100061F9: E8 32 D8 FF FF     call        10003A30
  100061FE: 8B D8              mov         ebx,eax
  10006200: 85 DB              test        ebx,ebx
  10006202: 7C CF              jl          100061D3
  10006204: 8B 5D 08           mov         ebx,dword ptr [ebp+8]
  10006207: 8D B7 68 02 00 00  lea         esi,[edi+00000268h]
  1000620D: E8 6E FC FF FF     call        10005E80
  10006212: 8B D8              mov         ebx,eax
  10006214: 85 DB              test        ebx,ebx
  10006216: 7C BB              jl          100061D3
  10006218: 8B 45 0C           mov         eax,dword ptr [ebp+0Ch]
  1000621B: 8B 4D 08           mov         ecx,dword ptr [ebp+8]
  1000621E: 8B 55 10           mov         edx,dword ptr [ebp+10h]
  10006221: 89 87 58 02 00 00  mov         dword ptr [edi+00000258h],eax
  10006227: 8D 87 00 08 00 00  lea         eax,[edi+00000800h]
  1000622D: C7 47 04 68 02 00  mov         dword ptr [edi+4],268h
            00
  10006234: C7 87 4C 02 00 00  mov         dword ptr [edi+0000024Ch],962376EFh
            EF 76 23 96
  1000623E: 89 4F 08           mov         dword ptr [edi+8],ecx
  10006241: 89 5F 28           mov         dword ptr [edi+28h],ebx
  10006244: 89 87 60 02 00 00  mov         dword ptr [edi+00000260h],eax
  1000624A: 89 57 38           mov         dword ptr [edi+38h],edx
  1000624D: C7 00 00 00 00 00  mov         dword ptr [eax],0
  10006253: C7 87 50 02 00 00  mov         dword ptr [edi+00000250h],100071F0h
            F0 71 00 10
  1000625D: C7 87 5C 02 00 00  mov         dword ptr [edi+0000025Ch],10007110h
            10 71 00 10
  10006267: 89 77 2C           mov         dword ptr [edi+2Ch],esi
  1000626A: E8 B1 FC FF FF     call        10005F20
  1000626F: 03 F0              add         esi,eax
  10006271: E8 AA FC FF FF     call        10005F20
  10006276: 01 47 04           add         dword ptr [edi+4],eax
  10006279: E8 A2 FC FF FF     call        10005F20
  1000627E: 8B 4F 2C           mov         ecx,dword ptr [edi+2Ch]
  10006281: 8B D0              mov         edx,eax
  10006283: E8 38 FC FF FF     call        10005EC0
  10006288: 85 D2              test        edx,edx
  1000628A: 76 15              jbe         100062A1
  1000628C: 89 54 24 10        mov         dword ptr [esp+10h],edx
  10006290: 8A 10              mov         dl,byte ptr [eax]
  10006292: 88 11              mov         byte ptr [ecx],dl
  10006294: 83 C1 01           add         ecx,1
  10006297: 83 C0 01           add         eax,1
  1000629A: 83 6C 24 10 01     sub         dword ptr [esp+10h],1
  1000629F: 75 EF              jne         10006290
  100062A1: 8B 4F 08           mov         ecx,dword ptr [edi+8]
  100062A4: 8D 44 24 10        lea         eax,[esp+10h]
  100062A8: 50                 push        eax
  100062A9: 56                 push        esi
  100062AA: 53                 push        ebx
  100062AB: 51                 push        ecx
  100062AC: C7 44 24 20 00 00  mov         dword ptr [esp+20h],0
            00 00
  100062B4: 89 B7 54 02 00 00  mov         dword ptr [edi+00000254h],esi
  100062BA: E8 71 F8 FF FF     call        10005B30
  100062BF: 8B D8              mov         ebx,eax
  100062C1: 85 DB              test        ebx,ebx
  100062C3: 0F 8C 0A FF FF FF  jl          100061D3
  100062C9: 8B 74 24 10        mov         esi,dword ptr [esp+10h]
  100062CD: 8B 47 28           mov         eax,dword ptr [edi+28h]
  100062D0: 03 47 08           add         eax,dword ptr [edi+8]
  100062D3: 8D 56 0C           lea         edx,[esi+0Ch]
  100062D6: 01 57 04           add         dword ptr [edi+4],edx
  100062D9: 99                 cdq
  100062DA: 8B C8              mov         ecx,eax
  100062DC: 8B 87 54 02 00 00  mov         eax,dword ptr [edi+00000254h]
  100062E2: 8B DA              mov         ebx,edx
  100062E4: 99                 cdq
  100062E5: 2B C8              sub         ecx,eax
  100062E7: 1B DA              sbb         ebx,edx
  100062E9: 33 C0              xor         eax,eax
  100062EB: 2B CE              sub         ecx,esi
  100062ED: 1B D8              sbb         ebx,eax
  100062EF: 83 E9 05           sub         ecx,5
  100062F2: 1B D8              sbb         ebx,eax
  100062F4: 8B C1              mov         eax,ecx
  100062F6: 99                 cdq
  100062F7: 3B C8              cmp         ecx,eax
  100062F9: 75 04              jne         100062FF
  100062FB: 3B DA              cmp         ebx,edx
  100062FD: 74 0F              je          1000630E
  100062FF: BB BB 00 00 C0     mov         ebx,0C00000BBh
  10006304: 68 28 9D 00 10     push        10009D28h
  10006309: E9 BA FE FF FF     jmp         100061C8
  1000630E: 8B 87 54 02 00 00  mov         eax,dword ptr [edi+00000254h]
  10006314: C6 04 30 E9        mov         byte ptr [eax+esi],0E9h
  10006318: 8B 97 54 02 00 00  mov         edx,dword ptr [edi+00000254h]
  1000631E: 89 4C 32 01        mov         dword ptr [edx+esi+1],ecx
  10006322: 8B 47 08           mov         eax,dword ptr [edi+8]
  10006325: 8B 08              mov         ecx,dword ptr [eax]
  10006327: 8B 5F 2C           mov         ebx,dword ptr [edi+2Ch]
  1000632A: 8D 74 32 01        lea         esi,[edx+esi+1]
  1000632E: 89 4F 10           mov         dword ptr [edi+10h],ecx
  10006331: 8B 50 04           mov         edx,dword ptr [eax+4]
  10006334: 89 57 14           mov         dword ptr [edi+14h],edx
  10006337: 33 F6              xor         esi,esi
  10006339: E8 E2 FB FF FF     call        10005F20
  1000633E: 85 C0              test        eax,eax
  10006340: 76 68              jbe         100063AA
  10006342: 8B 03              mov         eax,dword ptr [ebx]
  10006344: 05 00 C4 D4 E5     add         eax,0E5D4C400h
  10006349: 83 F8 07           cmp         eax,7
  1000634C: 77 4D              ja          1000639B
  1000634E: FF 24 85 D0 64 00  jmp         dword ptr [eax*4+100064D0h]
            10
  10006355: 89 3B              mov         dword ptr [ebx],edi
  10006357: EB 42              jmp         1000639B
  10006359: 8B 87 50 02 00 00  mov         eax,dword ptr [edi+00000250h]
  1000635F: 89 03              mov         dword ptr [ebx],eax
  10006361: EB 38              jmp         1000639B
  10006363: 8B 8F 54 02 00 00  mov         ecx,dword ptr [edi+00000254h]
  10006369: 89 0B              mov         dword ptr [ebx],ecx
  1000636B: EB 2E              jmp         1000639B
  1000636D: 8D 87 58 02 00 00  lea         eax,[edi+00000258h]
  10006373: 89 03              mov         dword ptr [ebx],eax
  10006375: EB 24              jmp         1000639B
  10006377: 8B 97 58 02 00 00  mov         edx,dword ptr [edi+00000258h]
  1000637D: EB 1A              jmp         10006399
  1000637F: 8B 87 5C 02 00 00  mov         eax,dword ptr [edi+0000025Ch]
  10006385: 89 03              mov         dword ptr [ebx],eax
  10006387: EB 12              jmp         1000639B
  10006389: 8B 8F 60 02 00 00  mov         ecx,dword ptr [edi+00000260h]
  1000638F: 89 0B              mov         dword ptr [ebx],ecx
  10006391: EB 08              jmp         1000639B
  10006393: 8B 57 2C           mov         edx,dword ptr [edi+2Ch]
  10006396: 83 C2 5C           add         edx,5Ch
  10006399: 89 13              mov         dword ptr [ebx],edx
  1000639B: 83 C3 01           add         ebx,1
  1000639E: 83 C6 01           add         esi,1
  100063A1: E8 7A FB FF FF     call        10005F20
  100063A6: 3B F0              cmp         esi,eax
  100063A8: 72 98              jb          10006342
  100063AA: 8B 47 2C           mov         eax,dword ptr [edi+2Ch]
  100063AD: 8B 5F 08           mov         ebx,dword ptr [edi+8]
  100063B0: 99                 cdq
  100063B1: 8B C8              mov         ecx,eax
  100063B3: 8B F2              mov         esi,edx
  100063B5: 8B C3              mov         eax,ebx
  100063B7: 99                 cdq
  100063B8: 2B C8              sub         ecx,eax
  100063BA: 1B F2              sbb         esi,edx
  100063BC: 83 E9 05           sub         ecx,5
  100063BF: 8B C1              mov         eax,ecx
  100063C1: 99                 cdq
  100063C2: 83 DE 00           sbb         esi,0
  100063C5: 3B C8              cmp         ecx,eax
  100063C7: 0F 85 32 FF FF FF  jne         100062FF
  100063CD: 3B F2              cmp         esi,edx
  100063CF: 0F 85 2A FF FF FF  jne         100062FF
  100063D5: 89 4C 24 1D        mov         dword ptr [esp+1Dh],ecx
  100063D9: 8B 4F 28           mov         ecx,dword ptr [edi+28h]
  100063DC: 8B D3              mov         edx,ebx
  100063DE: E8 4D D6 FF FF     call        10003A30
  100063E3: 8B D8              mov         ebx,eax
  100063E5: 85 DB              test        ebx,ebx
  100063E7: 0F 8C E6 FD FF FF  jl          100061D3
  100063ED: BE 54 D3 00 10     mov         esi,1000D354h
  100063F2: E8 59 D7 FF FF     call        10003B50
  100063F7: A1 0C D0 00 10     mov         eax,dword ptr ds:[1000D00Ch]
  100063FC: 89 47 34           mov         dword ptr [edi+34h],eax
  100063FF: 83 C0 01           add         eax,1
  10006402: A3 0C D0 00 10     mov         dword ptr ds:[1000D00Ch],eax
  10006407: 33 DB              xor         ebx,ebx
  10006409: 33 C0              xor         eax,eax
  1000640B: EB 03              jmp         10006410
  1000640D: 8D 49 00           lea         ecx,[ecx]
  10006410: 83 3C 85 98 EF 00  cmp         dword ptr [eax*4+1000EF98h],0
            10 00
  10006418: 74 0C              je          10006426
  1000641A: 83 C0 01           add         eax,1
  1000641D: 3D 80 00 00 00     cmp         eax,80h
  10006422: 7C EC              jl          10006410
  10006424: EB 12              jmp         10006438
  10006426: 8B 4F 34           mov         ecx,dword ptr [edi+34h]
  10006429: 89 0C 85 98 EF 00  mov         dword ptr [eax*4+1000EF98h],ecx
            10
  10006430: 89 47 30           mov         dword ptr [edi+30h],eax
  10006433: BB 01 00 00 00     mov         ebx,1
  10006438: BE 54 D3 00 10     mov         esi,1000D354h
  1000643D: E8 DE D6 FF FF     call        10003B20
  10006442: 85 DB              test        ebx,ebx
  10006444: 75 0F              jne         10006455
  10006446: BB 9A 00 00 C0     mov         ebx,0C000009Ah
  1000644B: 68 78 9D 00 10     push        10009D78h
  10006450: E9 73 FD FF FF     jmp         100061C8
  10006455: 8B 47 08           mov         eax,dword ptr [edi+8]
  10006458: 8B 10              mov         edx,dword ptr [eax]
  1000645A: 8B 48 04           mov         ecx,dword ptr [eax+4]
  1000645D: 89 54 24 10        mov         dword ptr [esp+10h],edx
  10006461: 8A 54 24 20        mov         dl,byte ptr [esp+20h]
  10006465: 89 4C 24 14        mov         dword ptr [esp+14h],ecx
  10006469: 8B 4C 24 1C        mov         ecx,dword ptr [esp+1Ch]
  1000646D: 88 54 24 14        mov         byte ptr [esp+14h],dl
  10006471: 8B 54 24 14        mov         edx,dword ptr [esp+14h]
  10006475: 89 4F 20           mov         dword ptr [edi+20h],ecx
  10006478: 89 57 24           mov         dword ptr [edi+24h],edx
  1000647B: 89 08              mov         dword ptr [eax],ecx
  1000647D: BE 54 D3 00 10     mov         esi,1000D354h
  10006482: 89 50 04           mov         dword ptr [eax+4],edx
  10006485: E8 C6 D6 FF FF     call        10003B50
  1000648A: A1 00 F4 00 10     mov         eax,dword ptr ds:[1000F400h]
  1000648F: 89 07              mov         dword ptr [edi],eax
  10006491: 89 3D 00 F4 00 10  mov         dword ptr ds:[1000F400h],edi
  10006497: E8 84 D6 FF FF     call        10003B20
  1000649C: 8B 45 14           mov         eax,dword ptr [ebp+14h]
  1000649F: 33 DB              xor         ebx,ebx
  100064A1: C7 87 44 02 00 00  mov         dword ptr [edi+00000244h],6A910BE2h
            E2 0B 91 6A
  100064AB: 89 87 48 02 00 00  mov         dword ptr [edi+00000248h],eax
  100064B1: 89 38              mov         dword ptr [eax],edi
  100064B3: 89 1D B8 F6 00 10  mov         dword ptr ds:[1000F6B8h],ebx
  100064B9: 5F                 pop         edi
  100064BA: 5E                 pop         esi
  100064BB: 8B C3              mov         eax,ebx
  100064BD: C7 05 08 D0 00 10  mov         dword ptr ds:[1000D008h],100091F0h
            F0 91 00 10
  100064C7: 5B                 pop         ebx
  100064C8: 8B E5              mov         esp,ebp
  100064CA: 5D                 pop         ebp
  100064CB: C2 10 00           ret         10h
  100064CE: 8B FF              mov         edi,edi
  100064D0: 77 63              ja          10006535
  100064D2: 00 10              add         byte ptr [eax],dl
  100064D4: 63 63 00           arpl        word ptr [ebx],sp
  100064D7: 10 89 63 00 10 59  adc         byte ptr [ecx+59100063h],cl
  100064DD: 63 00              arpl        word ptr [eax],ax
  100064DF: 10 93 63 00 10 55  adc         byte ptr [ebx+55100063h],dl
  100064E5: 63 00              arpl        word ptr [eax],ax
  100064E7: 10 7F 63           adc         byte ptr [edi+63h],bh
  100064EA: 00 10              add         byte ptr [eax],dl
  100064EC: 6D                 ins         dword ptr es:[edi],dx
  100064ED: 63 00              arpl        word ptr [eax],ax
  100064EF: 10 33              adc         byte ptr [ebx],dh
  100064F1: C0 C3 CC           rol         bl,0CCh
  100064F4: CC                 int         3
  100064F5: CC                 int         3
  100064F6: CC                 int         3
  100064F7: CC                 int         3
  100064F8: CC                 int         3
  100064F9: CC                 int         3
  100064FA: CC                 int         3
  100064FB: CC                 int         3
  100064FC: CC                 int         3
  100064FD: CC                 int         3
  100064FE: CC                 int         3
  100064FF: CC                 int         3
  10006500: A1 6C F6 00 10     mov         eax,dword ptr ds:[1000F66Ch]
  10006505: 56                 push        esi
  10006506: 8B 35 34 90 00 10  mov         esi,dword ptr ds:[10009034h]
  1000650C: 68 FC 97 00 10     push        100097FCh
  10006511: 50                 push        eax
  10006512: FF D6              call        esi
  10006514: 85 C0              test        eax,eax
  10006516: A3 9C F6 00 10     mov         dword ptr ds:[1000F69Ch],eax
  1000651B: 75 1E              jne         1000653B
  1000651D: 8B 0D 68 F6 00 10  mov         ecx,dword ptr ds:[1000F668h]
  10006523: 68 0C 98 00 10     push        1000980Ch
  10006528: 51                 push        ecx
  10006529: FF D6              call        esi
  1000652B: 85 C0              test        eax,eax
  1000652D: A3 A4 F6 00 10     mov         dword ptr ds:[1000F6A4h],eax
  10006532: 75 07              jne         1000653B
  10006534: B8 7A 00 00 C0     mov         eax,0C000007Ah
  10006539: 5E                 pop         esi
  1000653A: C3                 ret
  1000653B: 8B 15 6C F6 00 10  mov         edx,dword ptr ds:[1000F66Ch]
  10006541: 68 28 98 00 10     push        10009828h
  10006546: 52                 push        edx
  10006547: FF D6              call        esi
  10006549: 85 C0              test        eax,eax
  1000654B: A3 98 F6 00 10     mov         dword ptr ds:[1000F698h],eax
  10006550: 75 16              jne         10006568
  10006552: A1 68 F6 00 10     mov         eax,dword ptr ds:[1000F668h]
  10006557: 68 34 98 00 10     push        10009834h
  1000655C: 50                 push        eax
  1000655D: FF D6              call        esi
  1000655F: 85 C0              test        eax,eax
  10006561: A3 A0 F6 00 10     mov         dword ptr ds:[1000F6A0h],eax
  10006566: 74 CC              je          10006534
  10006568: 8B 0D 68 F6 00 10  mov         ecx,dword ptr ds:[1000F668h]
  1000656E: 68 50 98 00 10     push        10009850h
  10006573: 51                 push        ecx
  10006574: FF D6              call        esi
  10006576: A3 A8 F6 00 10     mov         dword ptr ds:[1000F6A8h],eax
  1000657B: F7 D8              neg         eax
  1000657D: 1B C0              sbb         eax,eax
  1000657F: 25 86 FF FF 3F     and         eax,3FFFFF86h
  10006584: 05 7A 00 00 C0     add         eax,0C000007Ah
  10006589: 5E                 pop         esi
  1000658A: C3                 ret
  1000658B: CC                 int         3
  1000658C: CC                 int         3
  1000658D: CC                 int         3
  1000658E: CC                 int         3
  1000658F: CC                 int         3
  10006590: B8 01 00 00 00     mov         eax,1
  10006595: C3                 ret
  10006596: CC                 int         3
  10006597: CC                 int         3
  10006598: CC                 int         3
  10006599: CC                 int         3
  1000659A: CC                 int         3
  1000659B: CC                 int         3
  1000659C: CC                 int         3
  1000659D: CC                 int         3
  1000659E: CC                 int         3
  1000659F: CC                 int         3
  100065A0: 33 C0              xor         eax,eax
  100065A2: 39 05 8C F6 00 10  cmp         dword ptr ds:[1000F68Ch],eax
  100065A8: 0F 95 C0           setne       al
  100065AB: C3                 ret
  100065AC: CC                 int         3
  100065AD: CC                 int         3
  100065AE: CC                 int         3
  100065AF: CC                 int         3
  100065B0: 33 C0              xor         eax,eax
  100065B2: A3 90 F6 00 10     mov         dword ptr ds:[1000F690h],eax
  100065B7: A3 94 F6 00 10     mov         dword ptr ds:[1000F694h],eax
  100065BC: A3 8C F6 00 10     mov         dword ptr ds:[1000F68Ch],eax
  100065C1: C3                 ret
  100065C2: CC                 int         3
  100065C3: CC                 int         3
  100065C4: CC                 int         3
  100065C5: CC                 int         3
  100065C6: CC                 int         3
  100065C7: CC                 int         3
  100065C8: CC                 int         3
  100065C9: CC                 int         3
  100065CA: CC                 int         3
  100065CB: CC                 int         3
  100065CC: CC                 int         3
  100065CD: CC                 int         3
  100065CE: CC                 int         3
  100065CF: CC                 int         3
  100065D0: 33 C0              xor         eax,eax
  100065D2: 39 05 8C F6 00 10  cmp         dword ptr ds:[1000F68Ch],eax
  100065D8: A3 B8 F6 00 10     mov         dword ptr ds:[1000F6B8h],eax
  100065DD: C7 05 08 D0 00 10  mov         dword ptr ds:[1000D008h],100091F0h
            F0 91 00 10
  100065E7: 75 0A              jne         100065F3
  100065E9: C7 05 8C F6 00 10  mov         dword ptr ds:[1000F68Ch],0FFFFFFFFh
            FF FF FF FF
  100065F3: 33 C0              xor         eax,eax
  100065F5: C3                 ret
  100065F6: CC                 int         3
  100065F7: CC                 int         3
  100065F8: CC                 int         3
  100065F9: CC                 int         3
  100065FA: CC                 int         3
  100065FB: CC                 int         3
  100065FC: CC                 int         3
  100065FD: CC                 int         3
  100065FE: CC                 int         3
  100065FF: CC                 int         3
  10006600: 53                 push        ebx
  10006601: 55                 push        ebp
  10006602: 8B 6C 24 0C        mov         ebp,dword ptr [esp+0Ch]
  10006606: 85 ED              test        ebp,ebp
  10006608: 56                 push        esi
  10006609: 57                 push        edi
  1000660A: 0F 84 64 01 00 00  je          10006774
  10006610: 83 FD FF           cmp         ebp,0FFFFFFFFh
  10006613: 0F 84 5B 01 00 00  je          10006774
  10006619: 8B 7C 24 18        mov         edi,dword ptr [esp+18h]
  1000661D: 85 FF              test        edi,edi
  1000661F: 0F 84 9C 00 00 00  je          100066C1
  10006625: 83 FF FF           cmp         edi,0FFFFFFFFh
  10006628: 0F 84 93 00 00 00  je          100066C1
  1000662E: 8B 5C 24 1C        mov         ebx,dword ptr [esp+1Ch]
  10006632: 53                 push        ebx
  10006633: 57                 push        edi
  10006634: FF 15 CC 90 00 10  call        dword ptr ds:[100090CCh]
  1000663A: 85 C0              test        eax,eax
  1000663C: 74 0D              je          1000664B
  1000663E: 68 D4 BC 00 10     push        1000BCD4h
  10006643: 6A 00              push        0
  10006645: FF 15 B8 90 00 10  call        dword ptr ds:[100090B8h]
  1000664B: 8D 44 24 1C        lea         eax,[esp+1Ch]
  1000664F: 50                 push        eax
  10006650: 6A 00              push        0
  10006652: 6A 00              push        0
  10006654: 6A 01              push        1
  10006656: 55                 push        ebp
  10006657: FF 15 A8 F6 00 10  call        dword ptr ds:[1000F6A8h]
  1000665D: 8B F0              mov         esi,eax
  1000665F: 81 FE 04 00 00 C0  cmp         esi,0C0000004h
  10006665: 74 08              je          1000666F
  10006667: 85 F6              test        esi,esi
  10006669: 0F 8C 2D 01 00 00  jl          1000679C
  1000666F: 85 FF              test        edi,edi
  10006671: 0F 84 CB 00 00 00  je          10006742
  10006677: 83 FF FF           cmp         edi,0FFFFFFFFh
  1000667A: 0F 84 C2 00 00 00  je          10006742
  10006680: 53                 push        ebx
  10006681: 57                 push        edi
  10006682: FF 15 CC 90 00 10  call        dword ptr ds:[100090CCh]
  10006688: 85 C0              test        eax,eax
  1000668A: 74 0D              je          10006699
  1000668C: 68 D4 BC 00 10     push        1000BCD4h
  10006691: 6A 00              push        0
  10006693: FF 15 B8 90 00 10  call        dword ptr ds:[100090B8h]
  10006699: 3B 5C 24 1C        cmp         ebx,dword ptr [esp+1Ch]
  1000669D: 0F 83 89 00 00 00  jae         1000672C
  100066A3: 68 10 9B 00 10     push        10009B10h
  100066A8: BE 23 00 00 C0     mov         esi,0C0000023h
  100066AD: FF 15 2C 90 00 10  call        dword ptr ds:[1000902Ch]
  100066B3: E8 08 D6 FF FF     call        10003CC0
  100066B8: 5F                 pop         edi
  100066B9: 8B C6              mov         eax,esi
  100066BB: 5E                 pop         esi
  100066BC: 5D                 pop         ebp
  100066BD: 5B                 pop         ebx
  100066BE: C2 10 00           ret         10h
  100066C1: 8B 5C 24 1C        mov         ebx,dword ptr [esp+1Ch]
  100066C5: 85 DB              test        ebx,ebx
  100066C7: 74 3A              je          10006703
  100066C9: BE F1 00 00 C0     mov         esi,0C00000F1h
  100066CE: FF 15 2C 90 00 10  call        dword ptr ds:[1000902Ch]
  100066D4: 85 C0              test        eax,eax
  100066D6: A3 B8 F6 00 10     mov         dword ptr ds:[1000F6B8h],eax
  100066DB: 75 13              jne         100066F0
  100066DD: 5F                 pop         edi
  100066DE: 8B C6              mov         eax,esi
  100066E0: 5E                 pop         esi
  100066E1: 5D                 pop         ebp
  100066E2: C7 05 08 D0 00 10  mov         dword ptr ds:[1000D008h],100091F0h
            F0 91 00 10
  100066EC: 5B                 pop         ebx
  100066ED: C2 10 00           ret         10h
  100066F0: 5F                 pop         edi
  100066F1: 8B C6              mov         eax,esi
  100066F3: 5E                 pop         esi
  100066F4: 5D                 pop         ebp
  100066F5: C7 05 08 D0 00 10  mov         dword ptr ds:[1000D008h],100099F8h
            F8 99 00 10
  100066FF: 5B                 pop         ebx
  10006700: C2 10 00           ret         10h
  10006703: 83 7C 24 20 00     cmp         dword ptr [esp+20h],0
  10006708: 0F 85 3D FF FF FF  jne         1000664B
  1000670E: 68 80 9A 00 10     push        10009A80h
  10006713: BE F2 00 00 C0     mov         esi,0C00000F2h
  10006718: FF 15 2C 90 00 10  call        dword ptr ds:[1000902Ch]
  1000671E: E8 9D D5 FF FF     call        10003CC0
  10006723: 5F                 pop         edi
  10006724: 8B C6              mov         eax,esi
  10006726: 5E                 pop         esi
  10006727: 5D                 pop         ebp
  10006728: 5B                 pop         ebx
  10006729: C2 10 00           ret         10h
  1000672C: 8D 4C 24 1C        lea         ecx,[esp+1Ch]
  10006730: 51                 push        ecx
  10006731: 53                 push        ebx
  10006732: 57                 push        edi
  10006733: 6A 01              push        1
  10006735: 55                 push        ebp
  10006736: FF 15 A8 F6 00 10  call        dword ptr ds:[1000F6A8h]
  1000673C: 8B F0              mov         esi,eax
  1000673E: 85 F6              test        esi,esi
  10006740: 7C 5A              jl          1000679C
  10006742: 8B 74 24 20        mov         esi,dword ptr [esp+20h]
  10006746: B9 04 00 00 00     mov         ecx,4
  1000674B: 8B C6              mov         eax,esi
  1000674D: E8 8E D2 FF FF     call        100039E0
  10006752: 85 C0              test        eax,eax
  10006754: 74 06              je          1000675C
  10006756: 8B 54 24 1C        mov         edx,dword ptr [esp+1Ch]
  1000675A: 89 16              mov         dword ptr [esi],edx
  1000675C: 5F                 pop         edi
  1000675D: 5E                 pop         esi
  1000675E: 33 C0              xor         eax,eax
  10006760: 5D                 pop         ebp
  10006761: A3 B8 F6 00 10     mov         dword ptr ds:[1000F6B8h],eax
  10006766: C7 05 08 D0 00 10  mov         dword ptr ds:[1000D008h],100091F0h
            F0 91 00 10
  10006770: 5B                 pop         ebx
  10006771: C2 10 00           ret         10h
  10006774: BE EF 00 00 C0     mov         esi,0C00000EFh
  10006779: FF 15 2C 90 00 10  call        dword ptr ds:[1000902Ch]
  1000677F: 85 C0              test        eax,eax
  10006781: A3 B8 F6 00 10     mov         dword ptr ds:[1000F6B8h],eax
  10006786: C7 05 08 D0 00 10  mov         dword ptr ds:[1000D008h],100091F0h
            F0 91 00 10
  10006790: 74 0A              je          1000679C
  10006792: C7 05 08 D0 00 10  mov         dword ptr ds:[1000D008h],100099B8h
            B8 99 00 10
  1000679C: 5F                 pop         edi
  1000679D: 8B C6              mov         eax,esi
  1000679F: 5E                 pop         esi
  100067A0: 5D                 pop         ebp
  100067A1: 5B                 pop         ebx
  100067A2: C2 10 00           ret         10h
  100067A5: CC                 int         3
  100067A6: CC                 int         3
  100067A7: CC                 int         3
  100067A8: CC                 int         3
  100067A9: CC                 int         3
  100067AA: CC                 int         3
  100067AB: CC                 int         3
  100067AC: CC                 int         3
  100067AD: CC                 int         3
  100067AE: CC                 int         3
  100067AF: CC                 int         3
  100067B0: 83 EC 18           sub         esp,18h
  100067B3: 56                 push        esi
  100067B4: 57                 push        edi
  100067B5: 8B 7C 24 28        mov         edi,dword ptr [esp+28h]
  100067B9: 85 FF              test        edi,edi
  100067BB: 74 64              je          10006821
  100067BD: 83 FF FF           cmp         edi,0FFFFFFFFh
  100067C0: 74 5F              je          10006821
  100067C2: 6A 04              push        4
  100067C4: 57                 push        edi
  100067C5: FF 15 CC 90 00 10  call        dword ptr ds:[100090CCh]
  100067CB: 85 C0              test        eax,eax
  100067CD: 8B 35 B8 90 00 10  mov         esi,dword ptr ds:[100090B8h]
  100067D3: 74 09              je          100067DE
  100067D5: 68 D4 BC 00 10     push        1000BCD4h
  100067DA: 6A 00              push        0
  100067DC: FF D6              call        esi
  100067DE: A1 A4 F6 00 10     mov         eax,dword ptr ds:[1000F6A4h]
  100067E3: 85 C0              test        eax,eax
  100067E5: 74 62              je          10006849
  100067E7: 8B 54 24 24        mov         edx,dword ptr [esp+24h]
  100067EB: 6A 00              push        0
  100067ED: 6A 18              push        18h
  100067EF: 8D 4C 24 10        lea         ecx,[esp+10h]
  100067F3: 51                 push        ecx
  100067F4: 6A 00              push        0
  100067F6: 52                 push        edx
  100067F7: FF D0              call        eax
  100067F9: 85 C0              test        eax,eax
  100067FB: 7C 1C              jl          10006819
  100067FD: 8B 44 24 18        mov         eax,dword ptr [esp+18h]
  10006801: 89 07              mov         dword ptr [edi],eax
  10006803: C7 05 B8 F6 00 10  mov         dword ptr ds:[1000F6B8h],0
            00 00 00 00
  1000680D: 33 C0              xor         eax,eax
  1000680F: C7 05 08 D0 00 10  mov         dword ptr ds:[1000D008h],100091F0h
            F0 91 00 10
  10006819: 5F                 pop         edi
  1000681A: 5E                 pop         esi
  1000681B: 83 C4 18           add         esp,18h
  1000681E: C2 08 00           ret         8
  10006821: BE F0 00 00 C0     mov         esi,0C00000F0h
  10006826: FF 15 2C 90 00 10  call        dword ptr ds:[1000902Ch]
  1000682C: A3 B8 F6 00 10     mov         dword ptr ds:[1000F6B8h],eax
  10006831: 85 C0              test        eax,eax
  10006833: 8B C6              mov         eax,esi
  10006835: 74 D8              je          1000680F
  10006837: 5F                 pop         edi
  10006838: C7 05 08 D0 00 10  mov         dword ptr ds:[1000D008h],10009900h
            00 99 00 10
  10006842: 5E                 pop         esi
  10006843: 83 C4 18           add         esp,18h
  10006846: C2 08 00           ret         8
  10006849: 83 3D 9C F6 00 10  cmp         dword ptr ds:[1000F69Ch],0
            00
  10006850: 75 09              jne         1000685B
  10006852: 68 D4 BC 00 10     push        1000BCD4h
  10006857: 6A 00              push        0
  10006859: FF D6              call        esi
  1000685B: 8B 4C 24 24        mov         ecx,dword ptr [esp+24h]
  1000685F: 51                 push        ecx
  10006860: FF 15 9C F6 00 10  call        dword ptr ds:[1000F69Ch]
  10006866: 85 C0              test        eax,eax
  10006868: 89 07              mov         dword ptr [edi],eax
  1000686A: 75 97              jne         10006803
  1000686C: BE EF 00 00 C0     mov         esi,0C00000EFh
  10006871: FF 15 2C 90 00 10  call        dword ptr ds:[1000902Ch]
  10006877: A3 B8 F6 00 10     mov         dword ptr ds:[1000F6B8h],eax
  1000687C: 85 C0              test        eax,eax
  1000687E: 8B C6              mov         eax,esi
  10006880: 74 8D              je          1000680F
  10006882: 5F                 pop         edi
  10006883: C7 05 08 D0 00 10  mov         dword ptr ds:[1000D008h],10009958h
            58 99 00 10
  1000688D: 5E                 pop         esi
  1000688E: 83 C4 18           add         esp,18h
  10006891: C2 08 00           ret         8
  10006894: CC                 int         3
  10006895: CC                 int         3
  10006896: CC                 int         3
  10006897: CC                 int         3
  10006898: CC                 int         3
  10006899: CC                 int         3
  1000689A: CC                 int         3
  1000689B: CC                 int         3
  1000689C: CC                 int         3
  1000689D: CC                 int         3
  1000689E: CC                 int         3
  1000689F: CC                 int         3
  100068A0: 83 EC 1C           sub         esp,1Ch
  100068A3: 56                 push        esi
  100068A4: 57                 push        edi
  100068A5: 8B 7C 24 2C        mov         edi,dword ptr [esp+2Ch]
  100068A9: 85 FF              test        edi,edi
  100068AB: 74 64              je          10006911
  100068AD: 83 FF FF           cmp         edi,0FFFFFFFFh
  100068B0: 74 5F              je          10006911
  100068B2: 6A 04              push        4
  100068B4: 57                 push        edi
  100068B5: FF 15 CC 90 00 10  call        dword ptr ds:[100090CCh]
  100068BB: 85 C0              test        eax,eax
  100068BD: 8B 35 B8 90 00 10  mov         esi,dword ptr ds:[100090B8h]
  100068C3: 74 09              je          100068CE
  100068C5: 68 D4 BC 00 10     push        1000BCD4h
  100068CA: 6A 00              push        0
  100068CC: FF D6              call        esi
  100068CE: A1 A0 F6 00 10     mov         eax,dword ptr ds:[1000F6A0h]
  100068D3: 85 C0              test        eax,eax
  100068D5: 74 62              je          10006939
  100068D7: 8B 54 24 28        mov         edx,dword ptr [esp+28h]
  100068DB: 6A 00              push        0
  100068DD: 6A 1C              push        1Ch
  100068DF: 8D 4C 24 10        lea         ecx,[esp+10h]
  100068E3: 51                 push        ecx
  100068E4: 6A 00              push        0
  100068E6: 52                 push        edx
  100068E7: FF D0              call        eax
  100068E9: 85 C0              test        eax,eax
  100068EB: 7C 1C              jl          10006909
  100068ED: 8B 44 24 14        mov         eax,dword ptr [esp+14h]
  100068F1: 89 07              mov         dword ptr [edi],eax
  100068F3: C7 05 B8 F6 00 10  mov         dword ptr ds:[1000F6B8h],0
            00 00 00 00
  100068FD: 33 C0              xor         eax,eax
  100068FF: C7 05 08 D0 00 10  mov         dword ptr ds:[1000D008h],100091F0h
            F0 91 00 10
  10006909: 5F                 pop         edi
  1000690A: 5E                 pop         esi
  1000690B: 83 C4 1C           add         esp,1Ch
  1000690E: C2 08 00           ret         8
  10006911: BE F0 00 00 C0     mov         esi,0C00000F0h
  10006916: FF 15 2C 90 00 10  call        dword ptr ds:[1000902Ch]
  1000691C: A3 B8 F6 00 10     mov         dword ptr ds:[1000F6B8h],eax
  10006921: 85 C0              test        eax,eax
  10006923: 8B C6              mov         eax,esi
  10006925: 74 D8              je          100068FF
  10006927: 5F                 pop         edi
  10006928: C7 05 08 D0 00 10  mov         dword ptr ds:[1000D008h],10009860h
            60 98 00 10
  10006932: 5E                 pop         esi
  10006933: 83 C4 1C           add         esp,1Ch
  10006936: C2 08 00           ret         8
  10006939: 83 3D 98 F6 00 10  cmp         dword ptr ds:[1000F698h],0
            00
  10006940: 75 09              jne         1000694B
  10006942: 68 D4 BC 00 10     push        1000BCD4h
  10006947: 6A 00              push        0
  10006949: FF D6              call        esi
  1000694B: 8B 4C 24 28        mov         ecx,dword ptr [esp+28h]
  1000694F: 51                 push        ecx
  10006950: FF 15 98 F6 00 10  call        dword ptr ds:[1000F698h]
  10006956: 85 C0              test        eax,eax
  10006958: 89 07              mov         dword ptr [edi],eax
  1000695A: 75 97              jne         100068F3
  1000695C: BE EF 00 00 C0     mov         esi,0C00000EFh
  10006961: FF 15 2C 90 00 10  call        dword ptr ds:[1000902Ch]
  10006967: A3 B8 F6 00 10     mov         dword ptr ds:[1000F6B8h],eax
  1000696C: 85 C0              test        eax,eax
  1000696E: 8B C6              mov         eax,esi
  10006970: 74 8D              je          100068FF
  10006972: 5F                 pop         edi
  10006973: C7 05 08 D0 00 10  mov         dword ptr ds:[1000D008h],100098A0h
            A0 98 00 10
  1000697D: 5E                 pop         esi
  1000697E: 83 C4 1C           add         esp,1Ch
  10006981: C2 08 00           ret         8
  10006984: CC                 int         3
  10006985: CC                 int         3
  10006986: CC                 int         3
  10006987: CC                 int         3
  10006988: CC                 int         3
  10006989: CC                 int         3
  1000698A: CC                 int         3
  1000698B: CC                 int         3
  1000698C: CC                 int         3
  1000698D: CC                 int         3
  1000698E: CC                 int         3
  1000698F: CC                 int         3
  10006990: 33 C0              xor         eax,eax
  10006992: A3 90 F6 00 10     mov         dword ptr ds:[1000F690h],eax
  10006997: A3 94 F6 00 10     mov         dword ptr ds:[1000F694h],eax
  1000699C: A3 8C F6 00 10     mov         dword ptr ds:[1000F68Ch],eax
  100069A1: C3                 ret
  100069A2: CC                 int         3
  100069A3: CC                 int         3
  100069A4: CC                 int         3
  100069A5: CC                 int         3
  100069A6: CC                 int         3
  100069A7: CC                 int         3
  100069A8: CC                 int         3
  100069A9: CC                 int         3
  100069AA: CC                 int         3
  100069AB: CC                 int         3
  100069AC: CC                 int         3
  100069AD: CC                 int         3
  100069AE: CC                 int         3
  100069AF: CC                 int         3
  100069B0: 68 28 0C 00 00     push        0C28h
  100069B5: 68 70 D3 00 10     push        1000D370h
  100069BA: E8 A1 CF FF FF     call        10003960
  100069BF: 6A 1C              push        1Ch
  100069C1: 68 7C DF 00 10     push        1000DF7Ch
  100069C6: C7 05 74 D3 00 10  mov         dword ptr ds:[1000D374h],1
            01 00 00 00
  100069D0: E8 8B CF FF FF     call        10003960
  100069D5: 68 7C DF 00 10     push        1000DF7Ch
  100069DA: FF 15 D0 90 00 10  call        dword ptr ds:[100090D0h]
  100069E0: E8 3B CA FF FF     call        10003420
  100069E5: F7 D8              neg         eax
  100069E7: 1B C0              sbb         eax,eax
  100069E9: F7 D8              neg         eax
  100069EB: A3 78 D5 00 10     mov         dword ptr ds:[1000D578h],eax
  100069F0: 33 C0              xor         eax,eax
  100069F2: C3                 ret
  100069F3: CC                 int         3
  100069F4: CC                 int         3
  100069F5: CC                 int         3
  100069F6: CC                 int         3
  100069F7: CC                 int         3
  100069F8: CC                 int         3
  100069F9: CC                 int         3
  100069FA: CC                 int         3
  100069FB: CC                 int         3
  100069FC: CC                 int         3
  100069FD: CC                 int         3
  100069FE: CC                 int         3
  100069FF: CC                 int         3
  10006A00: 8B 0A              mov         ecx,dword ptr [edx]
  10006A02: 33 C0              xor         eax,eax
  10006A04: 85 C9              test        ecx,ecx
  10006A06: 76 16              jbe         10006A1E
  10006A08: 83 C2 08           add         edx,8
  10006A0B: EB 03              jmp         10006A10
  10006A0D: 8D 49 00           lea         ecx,[ecx]
  10006A10: 39 32              cmp         dword ptr [edx],esi
  10006A12: 74 0D              je          10006A21
  10006A14: 83 C0 01           add         eax,1
  10006A17: 83 C2 04           add         edx,4
  10006A1A: 3B C1              cmp         eax,ecx
  10006A1C: 72 F2              jb          10006A10
  10006A1E: 33 C0              xor         eax,eax
  10006A20: C3                 ret
  10006A21: B8 01 00 00 00     mov         eax,1
  10006A26: C3                 ret
  10006A27: CC                 int         3
  10006A28: CC                 int         3
  10006A29: CC                 int         3
  10006A2A: CC                 int         3
  10006A2B: CC                 int         3
  10006A2C: CC                 int         3
  10006A2D: CC                 int         3
  10006A2E: CC                 int         3
  10006A2F: CC                 int         3
  10006A30: 51                 push        ecx
  10006A31: 8D 04 24           lea         eax,[esp]
  10006A34: 50                 push        eax
  10006A35: C7 44 24 04 00 00  mov         dword ptr [esp+4],0
            00 00
  10006A3D: E8 FE CB FF FF     call        10003640
  10006A42: 85 C0              test        eax,eax
  10006A44: 74 13              je          10006A59
  10006A46: 83 3C 24 00        cmp         dword ptr [esp],0
  10006A4A: 75 0D              jne         10006A59
  10006A4C: 83 3D 78 D5 00 10  cmp         dword ptr ds:[1000D578h],0
            00
  10006A53: 74 04              je          10006A59
  10006A55: 33 C0              xor         eax,eax
  10006A57: 59                 pop         ecx
  10006A58: C3                 ret
  10006A59: B8 01 00 00 00     mov         eax,1
  10006A5E: 59                 pop         ecx
  10006A5F: C3                 ret
  10006A60: FF 15 24 90 00 10  call        dword ptr ds:[10009024h]
  10006A66: 33 C9              xor         ecx,ecx
  10006A68: 8D 96 00 08 00 00  lea         edx,[esi+00000800h]
  10006A6E: 8B FF              mov         edi,edi
  10006A70: 39 02              cmp         dword ptr [edx],eax
  10006A72: 74 13              je          10006A87
  10006A74: 83 C1 01           add         ecx,1
  10006A77: 83 C2 04           add         edx,4
  10006A7A: 81 F9 80 00 00 00  cmp         ecx,80h
  10006A80: 7C EE              jl          10006A70
  10006A82: 33 C0              xor         eax,eax
  10006A84: C2 04 00           ret         4
  10006A87: 8B 44 24 04        mov         eax,dword ptr [esp+4]
  10006A8B: C1 E1 04           shl         ecx,4
  10006A8E: 03 CE              add         ecx,esi
  10006A90: 89 08              mov         dword ptr [eax],ecx
  10006A92: B8 01 00 00 00     mov         eax,1
  10006A97: C2 04 00           ret         4
  10006A9A: CC                 int         3
  10006A9B: CC                 int         3
  10006A9C: CC                 int         3
  10006A9D: CC                 int         3
  10006A9E: CC                 int         3
  10006A9F: CC                 int         3
  10006AA0: B8 70 D3 00 10     mov         eax,1000D370h
  10006AA5: C3                 ret
  10006AA6: CC                 int         3
  10006AA7: CC                 int         3
  10006AA8: CC                 int         3
  10006AA9: CC                 int         3
  10006AAA: CC                 int         3
  10006AAB: CC                 int         3
  10006AAC: CC                 int         3
  10006AAD: CC                 int         3
  10006AAE: CC                 int         3
  10006AAF: CC                 int         3
  10006AB0: 83 3D 94 DF 00 10  cmp         dword ptr ds:[1000DF94h],0
            00
  10006AB7: 74 0D              je          10006AC6
  10006AB9: 68 D4 BC 00 10     push        1000BCD4h
  10006ABE: 6A 00              push        0
  10006AC0: FF 15 B8 90 00 10  call        dword ptr ds:[100090B8h]
  10006AC6: 56                 push        esi
  10006AC7: 57                 push        edi
  10006AC8: 68 7C DF 00 10     push        1000DF7Ch
  10006ACD: FF 15 E4 90 00 10  call        dword ptr ds:[100090E4h]
  10006AD3: 8B 3D C8 90 00 10  mov         edi,dword ptr ds:[100090C8h]
  10006AD9: 33 F6              xor         esi,esi
  10006ADB: EB 03              jmp         10006AE0
  10006ADD: 8D 49 00           lea         ecx,[ecx]
  10006AE0: 8B 86 7C D5 00 10  mov         eax,dword ptr [esi+1000D57Ch]
  10006AE6: 85 C0              test        eax,eax
  10006AE8: 74 0B              je          10006AF5
  10006AEA: 50                 push        eax
  10006AEB: A1 74 F6 00 10     mov         eax,dword ptr ds:[1000F674h]
  10006AF0: 6A 00              push        0
  10006AF2: 50                 push        eax
  10006AF3: FF D7              call        edi
  10006AF5: 83 C6 10           add         esi,10h
  10006AF8: 81 FE 00 08 00 00  cmp         esi,800h
  10006AFE: 72 E0              jb          10006AE0
  10006B00: 68 28 0C 00 00     push        0C28h
  10006B05: 68 70 D3 00 10     push        1000D370h
  10006B0A: E8 51 CE FF FF     call        10003960
  10006B0F: 5F                 pop         edi
  10006B10: 5E                 pop         esi
  10006B11: C3                 ret
  10006B12: CC                 int         3
  10006B13: CC                 int         3
  10006B14: CC                 int         3
  10006B15: CC                 int         3
  10006B16: CC                 int         3
  10006B17: CC                 int         3
  10006B18: CC                 int         3
  10006B19: CC                 int         3
  10006B1A: CC                 int         3
  10006B1B: CC                 int         3
  10006B1C: CC                 int         3
  10006B1D: CC                 int         3
  10006B1E: CC                 int         3
  10006B1F: CC                 int         3
  10006B20: 56                 push        esi
  10006B21: 8B 74 24 08        mov         esi,dword ptr [esp+8]
  10006B25: 85 F6              test        esi,esi
  10006B27: 75 28              jne         10006B51
  10006B29: BE 0D 00 00 C0     mov         esi,0C000000Dh
  10006B2E: FF 15 2C 90 00 10  call        dword ptr ds:[1000902Ch]
  10006B34: A3 B8 F6 00 10     mov         dword ptr ds:[1000F6B8h],eax
  10006B39: 85 C0              test        eax,eax
  10006B3B: 8B C6              mov         eax,esi
  10006B3D: 0F 84 87 00 00 00  je          10006BCA
  10006B43: C7 05 08 D0 00 10  mov         dword ptr ds:[1000D008h],10009388h
            88 93 00 10
  10006B4D: 5E                 pop         esi
  10006B4E: C2 04 00           ret         4
  10006B51: FF 15 24 90 00 10  call        dword ptr ds:[10009024h]
  10006B57: 33 C9              xor         ecx,ecx
  10006B59: 8D A4 24 00 00 00  lea         esp,[esp+00000000h]
            00
  10006B60: 39 04 8D 7C DD 00  cmp         dword ptr [ecx*4+1000DD7Ch],eax
            10
  10006B67: 74 0D              je          10006B76
  10006B69: 83 C1 01           add         ecx,1
  10006B6C: 81 F9 80 00 00 00  cmp         ecx,80h
  10006B72: 7C EC              jl          10006B60
  10006B74: EB 0F              jmp         10006B85
  10006B76: C1 E1 04           shl         ecx,4
  10006B79: 81 C1 7C D5 00 10  add         ecx,1000D57Ch
  10006B7F: 83 79 04 00        cmp         dword ptr [ecx+4],0
  10006B83: 75 24              jne         10006BA9
  10006B85: BE BB 00 00 C0     mov         esi,0C00000BBh
  10006B8A: FF 15 2C 90 00 10  call        dword ptr ds:[1000902Ch]
  10006B90: A3 B8 F6 00 10     mov         dword ptr ds:[1000F6B8h],eax
  10006B95: 85 C0              test        eax,eax
  10006B97: 8B C6              mov         eax,esi
  10006B99: 74 2F              je          10006BCA
  10006B9B: C7 05 08 D0 00 10  mov         dword ptr ds:[1000D008h],100092F8h
            F8 92 00 10
  10006BA5: 5E                 pop         esi
  10006BA6: C2 04 00           ret         4
  10006BA9: 8B 41 04           mov         eax,dword ptr [ecx+4]
  10006BAC: 8B 50 0C           mov         edx,dword ptr [eax+0Ch]
  10006BAF: 8B 02              mov         eax,dword ptr [edx]
  10006BB1: 89 06              mov         dword ptr [esi],eax
  10006BB3: 8B 41 04           mov         eax,dword ptr [ecx+4]
  10006BB6: 8B 48 0C           mov         ecx,dword ptr [eax+0Ch]
  10006BB9: 8B 50 08           mov         edx,dword ptr [eax+8]
  10006BBC: 89 11              mov         dword ptr [ecx],edx
  10006BBE: C7 05 B8 F6 00 10  mov         dword ptr ds:[1000F6B8h],0
            00 00 00 00
  10006BC8: 33 C0              xor         eax,eax
  10006BCA: C7 05 08 D0 00 10  mov         dword ptr ds:[1000D008h],100091F0h
            F0 91 00 10
  10006BD4: 5E                 pop         esi
  10006BD5: C2 04 00           ret         4
  10006BD8: CC                 int         3
  10006BD9: CC                 int         3
  10006BDA: CC                 int         3
  10006BDB: CC                 int         3
  10006BDC: CC                 int         3
  10006BDD: CC                 int         3
  10006BDE: CC                 int         3
  10006BDF: CC                 int         3
  10006BE0: 56                 push        esi
  10006BE1: 8B 74 24 08        mov         esi,dword ptr [esp+8]
  10006BE5: 85 F6              test        esi,esi
  10006BE7: 75 34              jne         10006C1D
  10006BE9: BE 0D 00 00 C0     mov         esi,0C000000Dh
  10006BEE: FF 15 2C 90 00 10  call        dword ptr ds:[1000902Ch]
  10006BF4: 85 C0              test        eax,eax
  10006BF6: A3 B8 F6 00 10     mov         dword ptr ds:[1000F6B8h],eax
  10006BFB: 75 10              jne         10006C0D
  10006BFD: 8B C6              mov         eax,esi
  10006BFF: C7 05 08 D0 00 10  mov         dword ptr ds:[1000D008h],100091F0h
            F0 91 00 10
  10006C09: 5E                 pop         esi
  10006C0A: C2 04 00           ret         4
  10006C0D: 8B C6              mov         eax,esi
  10006C0F: C7 05 08 D0 00 10  mov         dword ptr ds:[1000D008h],1000934Ch
            4C 93 00 10
  10006C19: 5E                 pop         esi
  10006C1A: C2 04 00           ret         4
  10006C1D: FF 15 24 90 00 10  call        dword ptr ds:[10009024h]
  10006C23: 33 C9              xor         ecx,ecx
  10006C25: 39 04 8D 7C DD 00  cmp         dword ptr [ecx*4+1000DD7Ch],eax
            10
  10006C2C: 74 39              je          10006C67
  10006C2E: 83 C1 01           add         ecx,1
  10006C31: 81 F9 80 00 00 00  cmp         ecx,80h
  10006C37: 7C EC              jl          10006C25
  10006C39: BE BB 00 00 C0     mov         esi,0C00000BBh
  10006C3E: FF 15 2C 90 00 10  call        dword ptr ds:[1000902Ch]
  10006C44: 85 C0              test        eax,eax
  10006C46: A3 B8 F6 00 10     mov         dword ptr ds:[1000F6B8h],eax
  10006C4B: C7 05 08 D0 00 10  mov         dword ptr ds:[1000D008h],100091F0h
            F0 91 00 10
  10006C55: 74 0A              je          10006C61
  10006C57: C7 05 08 D0 00 10  mov         dword ptr ds:[1000D008h],100092F8h
            F8 92 00 10
  10006C61: 8B C6              mov         eax,esi
  10006C63: 5E                 pop         esi
  10006C64: C2 04 00           ret         4
  10006C67: C1 E1 04           shl         ecx,4
  10006C6A: 81 C1 7C D5 00 10  add         ecx,1000D57Ch
  10006C70: 8B 41 04           mov         eax,dword ptr [ecx+4]
  10006C73: 85 C0              test        eax,eax
  10006C75: 74 C2              je          10006C39
  10006C77: 8B 40 0C           mov         eax,dword ptr [eax+0Ch]
  10006C7A: 89 06              mov         dword ptr [esi],eax
  10006C7C: C7 05 B8 F6 00 10  mov         dword ptr ds:[1000F6B8h],0
            00 00 00 00
  10006C86: C7 05 08 D0 00 10  mov         dword ptr ds:[1000D008h],100091F0h
            F0 91 00 10
  10006C90: 33 C0              xor         eax,eax
  10006C92: 5E                 pop         esi
  10006C93: C2 04 00           ret         4
  10006C96: CC                 int         3
  10006C97: CC                 int         3
  10006C98: CC                 int         3
  10006C99: CC                 int         3
  10006C9A: CC                 int         3
  10006C9B: CC                 int         3
  10006C9C: CC                 int         3
  10006C9D: CC                 int         3
  10006C9E: CC                 int         3
  10006C9F: CC                 int         3
  10006CA0: 56                 push        esi
  10006CA1: 8B 74 24 08        mov         esi,dword ptr [esp+8]
  10006CA5: 85 F6              test        esi,esi
  10006CA7: 74 69              je          10006D12
  10006CA9: 83 FE FF           cmp         esi,0FFFFFFFFh
  10006CAC: 74 64              je          10006D12
  10006CAE: 6A 04              push        4
  10006CB0: 56                 push        esi
  10006CB1: FF 15 CC 90 00 10  call        dword ptr ds:[100090CCh]
  10006CB7: 85 C0              test        eax,eax
  10006CB9: 74 0D              je          10006CC8
  10006CBB: 68 D4 BC 00 10     push        1000BCD4h
  10006CC0: 6A 00              push        0
  10006CC2: FF 15 B8 90 00 10  call        dword ptr ds:[100090B8h]
  10006CC8: FF 15 24 90 00 10  call        dword ptr ds:[10009024h]
  10006CCE: 33 C9              xor         ecx,ecx
  10006CD0: 39 04 8D 7C DD 00  cmp         dword ptr [ecx*4+1000DD7Ch],eax
            10
  10006CD7: 74 6D              je          10006D46
  10006CD9: 83 C1 01           add         ecx,1
  10006CDC: 81 F9 80 00 00 00  cmp         ecx,80h
  10006CE2: 7C EC              jl          10006CD0
  10006CE4: BE BB 00 00 C0     mov         esi,0C00000BBh
  10006CE9: FF 15 2C 90 00 10  call        dword ptr ds:[1000902Ch]
  10006CEF: 85 C0              test        eax,eax
  10006CF1: A3 B8 F6 00 10     mov         dword ptr ds:[1000F6B8h],eax
  10006CF6: C7 05 08 D0 00 10  mov         dword ptr ds:[1000D008h],100091F0h
            F0 91 00 10
  10006D00: 74 0A              je          10006D0C
  10006D02: C7 05 08 D0 00 10  mov         dword ptr ds:[1000D008h],100092F8h
            F8 92 00 10
  10006D0C: 8B C6              mov         eax,esi
  10006D0E: 5E                 pop         esi
  10006D0F: C2 04 00           ret         4
  10006D12: BE 0D 00 00 C0     mov         esi,0C000000Dh
  10006D17: FF 15 2C 90 00 10  call        dword ptr ds:[1000902Ch]
  10006D1D: 85 C0              test        eax,eax
  10006D1F: A3 B8 F6 00 10     mov         dword ptr ds:[1000F6B8h],eax
  10006D24: 75 10              jne         10006D36
  10006D26: 8B C6              mov         eax,esi
  10006D28: C7 05 08 D0 00 10  mov         dword ptr ds:[1000D008h],100091F0h
            F0 91 00 10
  10006D32: 5E                 pop         esi
  10006D33: C2 04 00           ret         4
  10006D36: 8B C6              mov         eax,esi
  10006D38: C7 05 08 D0 00 10  mov         dword ptr ds:[1000D008h],100092B0h
            B0 92 00 10
  10006D42: 5E                 pop         esi
  10006D43: C2 04 00           ret         4
  10006D46: C1 E1 04           shl         ecx,4
  10006D49: 81 C1 7C D5 00 10  add         ecx,1000D57Ch
  10006D4F: 8B 41 04           mov         eax,dword ptr [ecx+4]
  10006D52: 85 C0              test        eax,eax
  10006D54: 74 8E              je          10006CE4
  10006D56: 8B 40 08           mov         eax,dword ptr [eax+8]
  10006D59: 89 06              mov         dword ptr [esi],eax
  10006D5B: C7 05 B8 F6 00 10  mov         dword ptr ds:[1000F6B8h],0
            00 00 00 00
  10006D65: C7 05 08 D0 00 10  mov         dword ptr ds:[1000D008h],100091F0h
            F0 91 00 10
  10006D6F: 33 C0              xor         eax,eax
  10006D71: 5E                 pop         esi
  10006D72: C2 04 00           ret         4
  10006D75: CC                 int         3
  10006D76: CC                 int         3
  10006D77: CC                 int         3
  10006D78: CC                 int         3
  10006D79: CC                 int         3
  10006D7A: CC                 int         3
  10006D7B: CC                 int         3
  10006D7C: CC                 int         3
  10006D7D: CC                 int         3
  10006D7E: CC                 int         3
  10006D7F: CC                 int         3
  10006D80: 56                 push        esi
  10006D81: 8B 74 24 08        mov         esi,dword ptr [esp+8]
  10006D85: 85 F6              test        esi,esi
  10006D87: 74 69              je          10006DF2
  10006D89: 83 FE FF           cmp         esi,0FFFFFFFFh
  10006D8C: 74 64              je          10006DF2
  10006D8E: 6A 04              push        4
  10006D90: 56                 push        esi
  10006D91: FF 15 CC 90 00 10  call        dword ptr ds:[100090CCh]
  10006D97: 85 C0              test        eax,eax
  10006D99: 74 0D              je          10006DA8
  10006D9B: 68 D4 BC 00 10     push        1000BCD4h
  10006DA0: 6A 00              push        0
  10006DA2: FF 15 B8 90 00 10  call        dword ptr ds:[100090B8h]
  10006DA8: FF 15 24 90 00 10  call        dword ptr ds:[10009024h]
  10006DAE: 33 C9              xor         ecx,ecx
  10006DB0: 39 04 8D 7C DD 00  cmp         dword ptr [ecx*4+1000DD7Ch],eax
            10
  10006DB7: 74 6D              je          10006E26
  10006DB9: 83 C1 01           add         ecx,1
  10006DBC: 81 F9 80 00 00 00  cmp         ecx,80h
  10006DC2: 7C EC              jl          10006DB0
  10006DC4: BE BB 00 00 C0     mov         esi,0C00000BBh
  10006DC9: FF 15 2C 90 00 10  call        dword ptr ds:[1000902Ch]
  10006DCF: 85 C0              test        eax,eax
  10006DD1: A3 B8 F6 00 10     mov         dword ptr ds:[1000F6B8h],eax
  10006DD6: C7 05 08 D0 00 10  mov         dword ptr ds:[1000D008h],100091F0h
            F0 91 00 10
  10006DE0: 74 0A              je          10006DEC
  10006DE2: C7 05 08 D0 00 10  mov         dword ptr ds:[1000D008h],100092F8h
            F8 92 00 10
  10006DEC: 8B C6              mov         eax,esi
  10006DEE: 5E                 pop         esi
  10006DEF: C2 04 00           ret         4
  10006DF2: BE 0D 00 00 C0     mov         esi,0C000000Dh
  10006DF7: FF 15 2C 90 00 10  call        dword ptr ds:[1000902Ch]
  10006DFD: 85 C0              test        eax,eax
  10006DFF: A3 B8 F6 00 10     mov         dword ptr ds:[1000F6B8h],eax
  10006E04: 75 10              jne         10006E16
  10006E06: 8B C6              mov         eax,esi
  10006E08: C7 05 08 D0 00 10  mov         dword ptr ds:[1000D008h],100091F0h
            F0 91 00 10
  10006E12: 5E                 pop         esi
  10006E13: C2 04 00           ret         4
  10006E16: 8B C6              mov         eax,esi
  10006E18: C7 05 08 D0 00 10  mov         dword ptr ds:[1000D008h],100092B0h
            B0 92 00 10
  10006E22: 5E                 pop         esi
  10006E23: C2 04 00           ret         4
  10006E26: C1 E1 04           shl         ecx,4
  10006E29: 81 C1 7C D5 00 10  add         ecx,1000D57Ch
  10006E2F: 83 79 04 00        cmp         dword ptr [ecx+4],0
  10006E33: 74 8F              je          10006DC4
  10006E35: 8B 41 08           mov         eax,dword ptr [ecx+8]
  10006E38: 89 06              mov         dword ptr [esi],eax
  10006E3A: C7 05 B8 F6 00 10  mov         dword ptr ds:[1000F6B8h],0
            00 00 00 00
  10006E44: C7 05 08 D0 00 10  mov         dword ptr ds:[1000D008h],100091F0h
            F0 91 00 10
  10006E4E: 33 C0              xor         eax,eax
  10006E50: 5E                 pop         esi
  10006E51: C2 04 00           ret         4
  10006E54: CC                 int         3
  10006E55: CC                 int         3
  10006E56: CC                 int         3
  10006E57: CC                 int         3
  10006E58: CC                 int         3
  10006E59: CC                 int         3
  10006E5A: CC                 int         3
  10006E5B: CC                 int         3
  10006E5C: CC                 int         3
  10006E5D: CC                 int         3
  10006E5E: CC                 int         3
  10006E5F: CC                 int         3
  10006E60: 85 C0              test        eax,eax
  10006E62: 75 06              jne         10006E6A
  10006E64: FF 15 24 90 00 10  call        dword ptr ds:[10009024h]
  10006E6A: 8B 15 70 D3 00 10  mov         edx,dword ptr ds:[1000D370h]
  10006E70: 33 C9              xor         ecx,ecx
  10006E72: 85 D2              test        edx,edx
  10006E74: 56                 push        esi
  10006E75: 76 10              jbe         10006E87
  10006E77: 39 04 8D 78 D3 00  cmp         dword ptr [ecx*4+1000D378h],eax
            10
  10006E7E: 74 2D              je          10006EAD
  10006E80: 83 C1 01           add         ecx,1
  10006E83: 3B CA              cmp         ecx,edx
  10006E85: 72 F0              jb          10006E77
  10006E87: 8B 37              mov         esi,dword ptr [edi]
  10006E89: 33 C9              xor         ecx,ecx
  10006E8B: 85 F6              test        esi,esi
  10006E8D: 76 11              jbe         10006EA0
  10006E8F: 8D 57 08           lea         edx,[edi+8]
  10006E92: 39 02              cmp         dword ptr [edx],eax
  10006E94: 74 4D              je          10006EE3
  10006E96: 83 C1 01           add         ecx,1
  10006E99: 83 C2 04           add         edx,4
  10006E9C: 3B CE              cmp         ecx,esi
  10006E9E: 72 F2              jb          10006E92
  10006EA0: 83 7F 04 00        cmp         dword ptr [edi+4],0
  10006EA4: 74 39              je          10006EDF
  10006EA6: A1 74 D3 00 10     mov         eax,dword ptr ds:[1000D374h]
  10006EAB: 5E                 pop         esi
  10006EAC: C3                 ret
  10006EAD: 8B 37              mov         esi,dword ptr [edi]
  10006EAF: 33 C9              xor         ecx,ecx
  10006EB1: 85 F6              test        esi,esi
  10006EB3: 76 11              jbe         10006EC6
  10006EB5: 8D 57 08           lea         edx,[edi+8]
  10006EB8: 39 02              cmp         dword ptr [edx],eax
  10006EBA: 74 1D              je          10006ED9
  10006EBC: 83 C1 01           add         ecx,1
  10006EBF: 83 C2 04           add         edx,4
  10006EC2: 3B CE              cmp         ecx,esi
  10006EC4: 72 F2              jb          10006EB8
  10006EC6: 83 7F 04 00        cmp         dword ptr [edi+4],0
  10006ECA: 74 13              je          10006EDF
  10006ECC: 33 C0              xor         eax,eax
  10006ECE: 39 05 74 D3 00 10  cmp         dword ptr ds:[1000D374h],eax
  10006ED4: 5E                 pop         esi
  10006ED5: 0F 94 C0           sete        al
  10006ED8: C3                 ret
  10006ED9: 83 7F 04 00        cmp         dword ptr [edi+4],0
  10006EDD: 74 ED              je          10006ECC
  10006EDF: 33 C0              xor         eax,eax
  10006EE1: 5E                 pop         esi
  10006EE2: C3                 ret
  10006EE3: 83 7F 04 00        cmp         dword ptr [edi+4],0
  10006EE7: 74 BD              je          10006EA6
  10006EE9: 33 C0              xor         eax,eax
  10006EEB: 5E                 pop         esi
  10006EEC: C3                 ret
  10006EED: CC                 int         3
  10006EEE: CC                 int         3
  10006EEF: CC                 int         3
  10006EF0: 56                 push        esi
  10006EF1: 33 F6              xor         esi,esi
  10006EF3: FF 15 24 90 00 10  call        dword ptr ds:[10009024h]
  10006EF9: 33 C9              xor         ecx,ecx
  10006EFB: EB 03              jmp         10006F00
  10006EFD: 8D 49 00           lea         ecx,[ecx]
  10006F00: 39 04 8D 7C DD 00  cmp         dword ptr [ecx*4+1000DD7Ch],eax
            10
  10006F07: 74 0D              je          10006F16
  10006F09: 83 C1 01           add         ecx,1
  10006F0C: 81 F9 80 00 00 00  cmp         ecx,80h
  10006F12: 7C EC              jl          10006F00
  10006F14: EB 11              jmp         10006F27
  10006F16: C1 E1 04           shl         ecx,4
  10006F19: 81 C1 7C D5 00 10  add         ecx,1000D57Ch
  10006F1F: 8B F1              mov         esi,ecx
  10006F21: 83 7E 0C 00        cmp         dword ptr [esi+0Ch],0
  10006F25: 75 0D              jne         10006F34
  10006F27: 68 D4 BC 00 10     push        1000BCD4h
  10006F2C: 6A 00              push        0
  10006F2E: FF 15 B8 90 00 10  call        dword ptr ds:[100090B8h]
  10006F34: C7 46 0C 00 00 00  mov         dword ptr [esi+0Ch],0
            00
  10006F3B: 5E                 pop         esi
  10006F3C: C3                 ret
  10006F3D: CC                 int         3
  10006F3E: CC                 int         3
  10006F3F: CC                 int         3
  10006F40: FF 15 24 90 00 10  call        dword ptr ds:[10009024h]
  10006F46: 33 C9              xor         ecx,ecx
  10006F48: EB 06              jmp         10006F50
  10006F4A: 8D 9B 00 00 00 00  lea         ebx,[ebx+00000000h]
  10006F50: 39 04 8D 7C DD 00  cmp         dword ptr [ecx*4+1000DD7Ch],eax
            10
  10006F57: 74 0E              je          10006F67
  10006F59: 83 C1 01           add         ecx,1
  10006F5C: 81 F9 80 00 00 00  cmp         ecx,80h
  10006F62: 7C EC              jl          10006F50
  10006F64: 33 C0              xor         eax,eax
  10006F66: C3                 ret
  10006F67: C1 E1 04           shl         ecx,4
  10006F6A: 81 C1 7C D5 00 10  add         ecx,1000D57Ch
  10006F70: 83 79 0C 00        cmp         dword ptr [ecx+0Ch],0
  10006F74: 75 EE              jne         10006F64
  10006F76: C7 41 0C 01 00 00  mov         dword ptr [ecx+0Ch],1
            00
  10006F7D: B8 01 00 00 00     mov         eax,1
  10006F82: C3                 ret
  10006F83: CC                 int         3
  10006F84: CC                 int         3
  10006F85: CC                 int         3
  10006F86: CC                 int         3
  10006F87: CC                 int         3
  10006F88: CC                 int         3
  10006F89: CC                 int         3
  10006F8A: CC                 int         3
  10006F8B: CC                 int         3
  10006F8C: CC                 int         3
  10006F8D: CC                 int         3
  10006F8E: CC                 int         3
  10006F8F: CC                 int         3
  10006F90: 51                 push        ecx
  10006F91: 53                 push        ebx
  10006F92: 57                 push        edi
  10006F93: 8B F8              mov         edi,eax
  10006F95: FF 15 24 90 00 10  call        dword ptr ds:[10009024h]
  10006F9B: 8D 9F 00 0A 00 00  lea         ebx,[edi+00000A00h]
  10006FA1: 53                 push        ebx
  10006FA2: 89 44 24 0C        mov         dword ptr [esp+0Ch],eax
  10006FA6: FF 15 DC 90 00 10  call        dword ptr ds:[100090DCh]
  10006FAC: 83 7B 18 00        cmp         dword ptr [ebx+18h],0
  10006FB0: 74 0D              je          10006FBF
  10006FB2: 68 D4 BC 00 10     push        1000BCD4h
  10006FB7: 6A 00              push        0
  10006FB9: FF 15 B8 90 00 10  call        dword ptr ds:[100090B8h]
  10006FBF: 55                 push        ebp
  10006FC0: 56                 push        esi
  10006FC1: C7 43 18 01 00 00  mov         dword ptr [ebx+18h],1
            00
  10006FC8: 8D B7 00 08 00 00  lea         esi,[edi+00000800h]
  10006FCE: BD 80 00 00 00     mov         ebp,80h
  10006FD3: 8B 44 24 10        mov         eax,dword ptr [esp+10h]
  10006FD7: 39 06              cmp         dword ptr [esi],eax
  10006FD9: 75 0E              jne         10006FE9
  10006FDB: 6A 10              push        10h
  10006FDD: 57                 push        edi
  10006FDE: C7 06 00 00 00 00  mov         dword ptr [esi],0
  10006FE4: E8 77 C9 FF FF     call        10003960
  10006FE9: 83 C6 04           add         esi,4
  10006FEC: 83 C7 10           add         edi,10h
  10006FEF: 83 ED 01           sub         ebp,1
  10006FF2: 75 DF              jne         10006FD3
  10006FF4: 83 7B 18 00        cmp         dword ptr [ebx+18h],0
  10006FF8: 5E                 pop         esi
  10006FF9: 5D                 pop         ebp
  10006FFA: 75 0D              jne         10007009
  10006FFC: 68 D4 BC 00 10     push        1000BCD4h
  10007001: 6A 00              push        0
  10007003: FF 15 B8 90 00 10  call        dword ptr ds:[100090B8h]
  10007009: 53                 push        ebx
  1000700A: C7 43 18 00 00 00  mov         dword ptr [ebx+18h],0
            00
  10007011: FF 15 D8 90 00 10  call        dword ptr ds:[100090D8h]
  10007017: 5F                 pop         edi
  10007018: 5B                 pop         ebx
  10007019: 59                 pop         ecx
  1000701A: C3                 ret
  1000701B: CC                 int         3
  1000701C: CC                 int         3
  1000701D: CC                 int         3
  1000701E: CC                 int         3
  1000701F: CC                 int         3
  10007020: 51                 push        ecx
  10007021: 53                 push        ebx
  10007022: 55                 push        ebp
  10007023: 56                 push        esi
  10007024: 57                 push        edi
  10007025: FF 15 24 90 00 10  call        dword ptr ds:[10009024h]
  1000702B: 8B 6C 24 18        mov         ebp,dword ptr [esp+18h]
  1000702F: 8D BD 00 0A 00 00  lea         edi,[ebp+00000A00h]
  10007035: 57                 push        edi
  10007036: 89 44 24 14        mov         dword ptr [esp+14h],eax
  1000703A: 83 CE FF           or          esi,0FFFFFFFFh
  1000703D: FF 15 DC 90 00 10  call        dword ptr ds:[100090DCh]
  10007043: 83 7F 18 00        cmp         dword ptr [edi+18h],0
  10007047: 74 0D              je          10007056
  10007049: 68 D4 BC 00 10     push        1000BCD4h
  1000704E: 6A 00              push        0
  10007050: FF 15 B8 90 00 10  call        dword ptr ds:[100090B8h]
  10007056: 33 DB              xor         ebx,ebx
  10007058: C7 47 18 01 00 00  mov         dword ptr [edi+18h],1
            00
  1000705F: 81 C5 00 08 00 00  add         ebp,800h
  10007065: 8B 45 00           mov         eax,dword ptr [ebp]
  10007068: 85 C0              test        eax,eax
  1000706A: 75 07              jne         10007073
  1000706C: 83 FE FF           cmp         esi,0FFFFFFFFh
  1000706F: 75 02              jne         10007073
  10007071: 8B F3              mov         esi,ebx
  10007073: 3B 44 24 10        cmp         eax,dword ptr [esp+10h]
  10007077: 75 0D              jne         10007086
  10007079: 68 D4 BC 00 10     push        1000BCD4h
  1000707E: 6A 00              push        0
  10007080: FF 15 B8 90 00 10  call        dword ptr ds:[100090B8h]
  10007086: 83 C3 01           add         ebx,1
  10007089: 83 C5 04           add         ebp,4
  1000708C: 81 FB 80 00 00 00  cmp         ebx,80h
  10007092: 7C D1              jl          10007065
  10007094: 83 FE FF           cmp         esi,0FFFFFFFFh
  10007097: 75 2B              jne         100070C4
  10007099: 83 7F 18 00        cmp         dword ptr [edi+18h],0
  1000709D: 75 0D              jne         100070AC
  1000709F: 68 D4 BC 00 10     push        1000BCD4h
  100070A4: 6A 00              push        0
  100070A6: FF 15 B8 90 00 10  call        dword ptr ds:[100090B8h]
  100070AC: 57                 push        edi
  100070AD: C7 47 18 00 00 00  mov         dword ptr [edi+18h],0
            00
  100070B4: FF 15 D8 90 00 10  call        dword ptr ds:[100090D8h]
  100070BA: 5F                 pop         edi
  100070BB: 5E                 pop         esi
  100070BC: 5D                 pop         ebp
  100070BD: 33 C0              xor         eax,eax
  100070BF: 5B                 pop         ebx
  100070C0: 59                 pop         ecx
  100070C1: C2 04 00           ret         4
  100070C4: 8B 44 24 18        mov         eax,dword ptr [esp+18h]
  100070C8: 8B 4C 24 10        mov         ecx,dword ptr [esp+10h]
  100070CC: 89 8C B0 00 08 00  mov         dword ptr [eax+esi*4+00000800h],ecx
            00
  100070D3: C1 E6 04           shl         esi,4
  100070D6: 6A 10              push        10h
  100070D8: 03 F0              add         esi,eax
  100070DA: 56                 push        esi
  100070DB: E8 80 C8 FF FF     call        10003960
  100070E0: 83 7F 18 00        cmp         dword ptr [edi+18h],0
  100070E4: 75 0D              jne         100070F3
  100070E6: 68 D4 BC 00 10     push        1000BCD4h
  100070EB: 6A 00              push        0
  100070ED: FF 15 B8 90 00 10  call        dword ptr ds:[100090B8h]
  100070F3: 57                 push        edi
  100070F4: C7 47 18 00 00 00  mov         dword ptr [edi+18h],0
            00
  100070FB: FF 15 D8 90 00 10  call        dword ptr ds:[100090D8h]
  10007101: 5F                 pop         edi
  10007102: 5E                 pop         esi
  10007103: 5D                 pop         ebp
  10007104: B8 01 00 00 00     mov         eax,1
  10007109: 5B                 pop         ebx
  1000710A: 59                 pop         ecx
  1000710B: C2 04 00           ret         4
  1000710E: CC                 int         3
  1000710F: CC                 int         3
  10007110: 53                 push        ebx
  10007111: 55                 push        ebp
  10007112: 56                 push        esi
  10007113: 8B 35 24 90 00 10  mov         esi,dword ptr ds:[10009024h]
  10007119: 57                 push        edi
  1000711A: FF D6              call        esi
  1000711C: 33 C9              xor         ecx,ecx
  1000711E: 8B FF              mov         edi,edi
  10007120: 39 04 8D 7C DD 00  cmp         dword ptr [ecx*4+1000DD7Ch],eax
            10
  10007127: 8B 2D B8 90 00 10  mov         ebp,dword ptr ds:[100090B8h]
  1000712D: 74 32              je          10007161
  1000712F: 83 C1 01           add         ecx,1
  10007132: 81 F9 80 00 00 00  cmp         ecx,80h
  10007138: 7C E6              jl          10007120
  1000713A: 68 D4 BC 00 10     push        1000BCD4h
  1000713F: 6A 00              push        0
  10007141: FF D5              call        ebp
  10007143: FF D6              call        esi
  10007145: 33 C9              xor         ecx,ecx
  10007147: 39 04 8D 7C DD 00  cmp         dword ptr [ecx*4+1000DD7Ch],eax
            10
  1000714E: 74 29              je          10007179
  10007150: 83 C1 01           add         ecx,1
  10007153: 81 F9 80 00 00 00  cmp         ecx,80h
  10007159: 7C EC              jl          10007147
  1000715B: 8B 7C 24 14        mov         edi,dword ptr [esp+14h]
  1000715F: EB 25              jmp         10007186
  10007161: C1 E1 04           shl         ecx,4
  10007164: 81 C1 7C D5 00 10  add         ecx,1000D57Ch
  1000716A: 83 79 0C 00        cmp         dword ptr [ecx+0Ch],0
  1000716E: 75 CA              jne         1000713A
  10007170: C7 41 0C 01 00 00  mov         dword ptr [ecx+0Ch],1
            00
  10007177: EB CA              jmp         10007143
  10007179: C1 E1 04           shl         ecx,4
  1000717C: 81 C1 7C D5 00 10  add         ecx,1000D57Ch
  10007182: 8B F9              mov         edi,ecx
  10007184: 75 09              jne         1000718F
  10007186: 68 D4 BC 00 10     push        1000BCD4h
  1000718B: 6A 00              push        0
  1000718D: FF D5              call        ebp
  1000718F: 8B 5C 24 14        mov         ebx,dword ptr [esp+14h]
  10007193: 8B 73 30           mov         esi,dword ptr [ebx+30h]
  10007196: C1 E6 04           shl         esi,4
  10007199: 03 37              add         esi,dword ptr [edi]
  1000719B: B8 00 00 00 00     mov         eax,0
  100071A0: 89 47 04           mov         dword ptr [edi+4],eax
  100071A3: 89 47 08           mov         dword ptr [edi+8],eax
  100071A6: 75 08              jne         100071B0
  100071A8: 68 D4 BC 00 10     push        1000BCD4h
  100071AD: 50                 push        eax
  100071AE: FF D5              call        ebp
  100071B0: 83 3E 00           cmp         dword ptr [esi],0
  100071B3: 75 09              jne         100071BE
  100071B5: 68 D4 BC 00 10     push        1000BCD4h
  100071BA: 6A 00              push        0
  100071BC: FF D5              call        ebp
  100071BE: 8B 7C 24 18        mov         edi,dword ptr [esp+18h]
  100071C2: C7 06 00 00 00 00  mov         dword ptr [esi],0
  100071C8: 83 3F 00           cmp         dword ptr [edi],0
  100071CB: 74 09              je          100071D6
  100071CD: 68 D4 BC 00 10     push        1000BCD4h
  100071D2: 6A 00              push        0
  100071D4: FF D5              call        ebp
  100071D6: 8B 46 08           mov         eax,dword ptr [esi+8]
  100071D9: 89 07              mov         dword ptr [edi],eax
  100071DB: E8 10 FD FF FF     call        10006EF0
  100071E0: 5F                 pop         edi
  100071E1: 5E                 pop         esi
  100071E2: 5D                 pop         ebp
  100071E3: 8B C3              mov         eax,ebx
  100071E5: 5B                 pop         ebx
  100071E6: C2 08 00           ret         8
  100071E9: CC                 int         3
  100071EA: CC                 int         3
  100071EB: CC                 int         3
  100071EC: CC                 int         3
  100071ED: CC                 int         3
  100071EE: CC                 int         3
  100071EF: CC                 int         3
  100071F0: 51                 push        ecx
  100071F1: 8D 04 24           lea         eax,[esp]
  100071F4: 50                 push        eax
  100071F5: C7 44 24 04 00 00  mov         dword ptr [esp+4],0
            00 00
  100071FD: E8 3E C4 FF FF     call        10003640
  10007202: 85 C0              test        eax,eax
  10007204: 74 0F              je          10007215
  10007206: 83 3C 24 00        cmp         dword ptr [esp],0
  1000720A: 75 09              jne         10007215
  1000720C: 83 3D 78 D5 00 10  cmp         dword ptr ds:[1000D578h],0
            00
  10007213: 75 08              jne         1000721D
  10007215: 33 C0              xor         eax,eax
  10007217: 33 D2              xor         edx,edx
  10007219: 59                 pop         ecx
  1000721A: C2 0C 00           ret         0Ch
  1000721D: FF 15 24 90 00 10  call        dword ptr ds:[10009024h]
  10007223: 53                 push        ebx
  10007224: 33 C9              xor         ecx,ecx
  10007226: 56                 push        esi
  10007227: 39 04 8D 7C DD 00  cmp         dword ptr [ecx*4+1000DD7Ch],eax
            10
  1000722E: 74 32              je          10007262
  10007230: 83 C1 01           add         ecx,1
  10007233: 81 F9 80 00 00 00  cmp         ecx,80h
  10007239: 7C EC              jl          10007227
  1000723B: 68 7C D5 00 10     push        1000D57Ch
  10007240: 33 F6              xor         esi,esi
  10007242: E8 D9 FD FF FF     call        10007020
  10007247: 85 C0              test        eax,eax
  10007249: 74 0D              je          10007258
  1000724B: 8B 5C 24 08        mov         ebx,dword ptr [esp+8]
  1000724F: E8 EC FC FF FF     call        10006F40
  10007254: 85 C0              test        eax,eax
  10007256: 75 20              jne         10007278
  10007258: 5E                 pop         esi
  10007259: 33 C0              xor         eax,eax
  1000725B: 5B                 pop         ebx
  1000725C: 33 D2              xor         edx,edx
  1000725E: 59                 pop         ecx
  1000725F: C2 0C 00           ret         0Ch
  10007262: C1 E1 04           shl         ecx,4
  10007265: 81 C1 7C D5 00 10  add         ecx,1000D57Ch
  1000726B: 8B D9              mov         ebx,ecx
  1000726D: 89 5C 24 08        mov         dword ptr [esp+8],ebx
  10007271: BE 01 00 00 00     mov         esi,1
  10007276: EB D7              jmp         1000724F
  10007278: 57                 push        edi
  10007279: 8B 7C 24 14        mov         edi,dword ptr [esp+14h]
  1000727D: 81 7F 30 80 00 00  cmp         dword ptr [edi+30h],80h
            00
  10007284: 72 0D              jb          10007293
  10007286: 68 D4 BC 00 10     push        1000BCD4h
  1000728B: 6A 00              push        0
  1000728D: FF 15 B8 90 00 10  call        dword ptr ds:[100090B8h]
  10007293: 85 F6              test        esi,esi
  10007295: 75 3E              jne         100072D5
  10007297: 8D 4C 24 0C        lea         ecx,[esp+0Ch]
  1000729B: 51                 push        ecx
  1000729C: BE 7C D5 00 10     mov         esi,1000D57Ch
  100072A1: E8 BA F7 FF FF     call        10006A60
  100072A6: 8B 15 74 F6 00 10  mov         edx,dword ptr ds:[1000F674h]
  100072AC: 68 00 08 00 00     push        800h
  100072B1: 6A 00              push        0
  100072B3: 52                 push        edx
  100072B4: FF 15 C4 90 00 10  call        dword ptr ds:[100090C4h]
  100072BA: 8B F0              mov         esi,eax
  100072BC: 85 F6              test        esi,esi
  100072BE: 74 0B              je          100072CB
  100072C0: 68 00 08 00 00     push        800h
  100072C5: 56                 push        esi
  100072C6: E8 95 C6 FF FF     call        10003960
  100072CB: 85 F6              test        esi,esi
  100072CD: 8B 5C 24 0C        mov         ebx,dword ptr [esp+0Ch]
  100072D1: 89 33              mov         dword ptr [ebx],esi
  100072D3: 74 3D              je          10007312
  100072D5: 8B 77 30           mov         esi,dword ptr [edi+30h]
  100072D8: 8B 47 34           mov         eax,dword ptr [edi+34h]
  100072DB: C1 E6 04           shl         esi,4
  100072DE: 03 33              add         esi,dword ptr [ebx]
  100072E0: 39 46 04           cmp         dword ptr [esi+4],eax
  100072E3: 74 0B              je          100072F0
  100072E5: 89 46 04           mov         dword ptr [esi+4],eax
  100072E8: C7 06 00 00 00 00  mov         dword ptr [esi],0
  100072EE: EB 05              jmp         100072F5
  100072F0: 83 3E 00           cmp         dword ptr [esi],0
  100072F3: 75 1D              jne         10007312
  100072F5: 8B 47 38           mov         eax,dword ptr [edi+38h]
  100072F8: 89 43 08           mov         dword ptr [ebx+8],eax
  100072FB: 89 73 04           mov         dword ptr [ebx+4],esi
  100072FE: FF 15 24 90 00 10  call        dword ptr ds:[10009024h]
  10007304: 83 C7 3C           add         edi,3Ch
  10007307: E8 54 FB FF FF     call        10006E60
  1000730C: 85 C0              test        eax,eax
  1000730E: 89 06              mov         dword ptr [esi],eax
  10007310: 75 1E              jne         10007330
  10007312: C7 43 04 00 00 00  mov         dword ptr [ebx+4],0
            00
  10007319: C7 43 08 00 00 00  mov         dword ptr [ebx+8],0
            00
  10007320: E8 CB FB FF FF     call        10006EF0
  10007325: 5F                 pop         edi
  10007326: 5E                 pop         esi
  10007327: 33 C0              xor         eax,eax
  10007329: 5B                 pop         ebx
  1000732A: 33 D2              xor         edx,edx
  1000732C: 59                 pop         ecx
  1000732D: C2 0C 00           ret         0Ch
  10007330: 8B 4C 24 18        mov         ecx,dword ptr [esp+18h]
  10007334: 8B 54 24 1C        mov         edx,dword ptr [esp+1Ch]
  10007338: 89 4E 08           mov         dword ptr [esi+8],ecx
  1000733B: 89 56 0C           mov         dword ptr [esi+0Ch],edx
  1000733E: E8 AD FB FF FF     call        10006EF0
  10007343: 5F                 pop         edi
  10007344: 5E                 pop         esi
  10007345: B8 01 00 00 00     mov         eax,1
  1000734A: 5B                 pop         ebx
  1000734B: 33 D2              xor         edx,edx
  1000734D: 59                 pop         ecx
  1000734E: C2 0C 00           ret         0Ch
  10007351: CC                 int         3
  10007352: CC                 int         3
  10007353: CC                 int         3
  10007354: CC                 int         3
  10007355: CC                 int         3
  10007356: CC                 int         3
  10007357: CC                 int         3
  10007358: CC                 int         3
  10007359: CC                 int         3
  1000735A: CC                 int         3
  1000735B: CC                 int         3
  1000735C: CC                 int         3
  1000735D: CC                 int         3
  1000735E: CC                 int         3
  1000735F: CC                 int         3
  10007360: FF 15 24 90 00 10  call        dword ptr ds:[10009024h]
  10007366: 33 C9              xor         ecx,ecx
  10007368: EB 06              jmp         10007370
  1000736A: 8D 9B 00 00 00 00  lea         ebx,[ebx+00000000h]
  10007370: 39 04 8D 7C DD 00  cmp         dword ptr [ecx*4+1000DD7Ch],eax
            10
  10007377: 74 15              je          1000738E
  10007379: 83 C1 01           add         ecx,1
  1000737C: 81 F9 80 00 00 00  cmp         ecx,80h
  10007382: 7C EC              jl          10007370
  10007384: B8 7C D5 00 10     mov         eax,1000D57Ch
  10007389: E9 02 FC FF FF     jmp         10006F90
  1000738E: C1 E1 04           shl         ecx,4
  10007391: 81 C1 7C D5 00 10  add         ecx,1000D57Ch
  10007397: 56                 push        esi
  10007398: 8B F1              mov         esi,ecx
  1000739A: 8B 06              mov         eax,dword ptr [esi]
  1000739C: 85 C0              test        eax,eax
  1000739E: 74 0F              je          100073AF
  100073A0: 50                 push        eax
  100073A1: A1 74 F6 00 10     mov         eax,dword ptr ds:[1000F674h]
  100073A6: 6A 00              push        0
  100073A8: 50                 push        eax
  100073A9: FF 15 C8 90 00 10  call        dword ptr ds:[100090C8h]
  100073AF: C7 06 00 00 00 00  mov         dword ptr [esi],0
  100073B5: 5E                 pop         esi
  100073B6: B8 7C D5 00 10     mov         eax,1000D57Ch
  100073BB: E9 D0 FB FF FF     jmp         10006F90
  100073C0: 56                 push        esi
  100073C1: 8B 74 24 08        mov         esi,dword ptr [esp+8]
  100073C5: 85 F6              test        esi,esi
  100073C7: 74 4D              je          10007416
  100073C9: 83 FE FF           cmp         esi,0FFFFFFFFh
  100073CC: 74 48              je          10007416
  100073CE: 6A 01              push        1
  100073D0: 56                 push        esi
  100073D1: FF 15 CC 90 00 10  call        dword ptr ds:[100090CCh]
  100073D7: 85 C0              test        eax,eax
  100073D9: 74 0D              je          100073E8
  100073DB: 68 D4 BC 00 10     push        1000BCD4h
  100073E0: 6A 00              push        0
  100073E2: FF 15 B8 90 00 10  call        dword ptr ds:[100090B8h]
  100073E8: 8D 44 24 08        lea         eax,[esp+8]
  100073EC: 50                 push        eax
  100073ED: E8 EE F7 FF FF     call        10006BE0
  100073F2: 85 C0              test        eax,eax
  100073F4: 7C 1C              jl          10007412
  100073F6: 8B 4C 24 08        mov         ecx,dword ptr [esp+8]
  100073FA: 89 31              mov         dword ptr [ecx],esi
  100073FC: C7 05 B8 F6 00 10  mov         dword ptr ds:[1000F6B8h],0
            00 00 00 00
  10007406: 33 C0              xor         eax,eax
  10007408: C7 05 08 D0 00 10  mov         dword ptr ds:[1000D008h],100091F0h
            F0 91 00 10
  10007412: 5E                 pop         esi
  10007413: C2 04 00           ret         4
  10007416: BE 0D 00 00 C0     mov         esi,0C000000Dh
  1000741B: FF 15 2C 90 00 10  call        dword ptr ds:[1000902Ch]
  10007421: A3 B8 F6 00 10     mov         dword ptr ds:[1000F6B8h],eax
  10007426: 85 C0              test        eax,eax
  10007428: 8B C6              mov         eax,esi
  1000742A: 74 DC              je          10007408
  1000742C: C7 05 08 D0 00 10  mov         dword ptr ds:[1000D008h],100093D8h
            D8 93 00 10
  10007436: 5E                 pop         esi
  10007437: C2 04 00           ret         4
  1000743A: CC                 int         3
  1000743B: CC                 int         3
  1000743C: CC                 int         3
  1000743D: CC                 int         3
  1000743E: CC                 int         3
  1000743F: CC                 int         3
  10007440: 56                 push        esi
  10007441: 8B 74 24 08        mov         esi,dword ptr [esp+8]
  10007445: 8D 44 24 08        lea         eax,[esp+8]
  10007449: 50                 push        eax
  1000744A: E8 31 EB FF FF     call        10005F80
  1000744F: 85 C0              test        eax,eax
  10007451: 75 24              jne         10007477
  10007453: BE EF 00 00 C0     mov         esi,0C00000EFh
  10007458: FF 15 2C 90 00 10  call        dword ptr ds:[1000902Ch]
  1000745E: A3 B8 F6 00 10     mov         dword ptr ds:[1000F6B8h],eax
  10007463: 85 C0              test        eax,eax
  10007465: 8B C6              mov         eax,esi
  10007467: 74 55              je          100074BE
  10007469: C7 05 08 D0 00 10  mov         dword ptr ds:[1000D008h],100091F8h
            F8 91 00 10
  10007473: 5E                 pop         esi
  10007474: C2 0C 00           ret         0Ch
  10007477: 8B 74 24 10        mov         esi,dword ptr [esp+10h]
  1000747B: 85 F6              test        esi,esi
  1000747D: 74 4D              je          100074CC
  1000747F: 83 FE FF           cmp         esi,0FFFFFFFFh
  10007482: 74 48              je          100074CC
  10007484: 6A 04              push        4
  10007486: 56                 push        esi
  10007487: FF 15 CC 90 00 10  call        dword ptr ds:[100090CCh]
  1000748D: 85 C0              test        eax,eax
  1000748F: 74 0D              je          1000749E
  10007491: 68 D4 BC 00 10     push        1000BCD4h
  10007496: 6A 00              push        0
  10007498: FF 15 B8 90 00 10  call        dword ptr ds:[100090B8h]
  1000749E: 8B 44 24 0C        mov         eax,dword ptr [esp+0Ch]
  100074A2: 57                 push        edi
  100074A3: 8B 7C 24 0C        mov         edi,dword ptr [esp+0Ch]
  100074A7: 83 C7 3C           add         edi,3Ch
  100074AA: E8 B1 F9 FF FF     call        10006E60
  100074AF: 89 06              mov         dword ptr [esi],eax
  100074B1: C7 05 B8 F6 00 10  mov         dword ptr ds:[1000F6B8h],0
            00 00 00 00
  100074BB: 33 C0              xor         eax,eax
  100074BD: 5F                 pop         edi
  100074BE: C7 05 08 D0 00 10  mov         dword ptr ds:[1000D008h],100091F0h
            F0 91 00 10
  100074C8: 5E                 pop         esi
  100074C9: C2 0C 00           ret         0Ch
  100074CC: BE F1 00 00 C0     mov         esi,0C00000F1h
  100074D1: FF 15 2C 90 00 10  call        dword ptr ds:[1000902Ch]
  100074D7: A3 B8 F6 00 10     mov         dword ptr ds:[1000F6B8h],eax
  100074DC: 85 C0              test        eax,eax
  100074DE: 8B C6              mov         eax,esi
  100074E0: 74 DC              je          100074BE
  100074E2: C7 05 08 D0 00 10  mov         dword ptr ds:[1000D008h],10009268h
            68 92 00 10
  100074EC: 5E                 pop         esi
  100074ED: C2 0C 00           ret         0Ch
  100074F0: 53                 push        ebx
  100074F1: 8B 5C 24 08        mov         ebx,dword ptr [esp+8]
  100074F5: 56                 push        esi
  100074F6: 33 F6              xor         esi,esi
  100074F8: 85 DB              test        ebx,ebx
  100074FA: 0F 84 22 01 00 00  je          10007622
  10007500: 83 FB FF           cmp         ebx,0FFFFFFFFh
  10007503: 0F 84 19 01 00 00  je          10007622
  10007509: 8B 44 24 10        mov         eax,dword ptr [esp+10h]
  1000750D: 55                 push        ebp
  1000750E: 8B 2D CC 90 00 10  mov         ebp,dword ptr ds:[100090CCh]
  10007514: 57                 push        edi
  10007515: 8D 0C 85 00 00 00  lea         ecx,[eax*4+00000000h]
            00
  1000751C: 51                 push        ecx
  1000751D: 53                 push        ebx
  1000751E: FF D5              call        ebp
  10007520: 85 C0              test        eax,eax
  10007522: 74 0C              je          10007530
  10007524: 68 D4 BC 00 10     push        1000BCD4h
  10007529: 56                 push        esi
  1000752A: FF 15 B8 90 00 10  call        dword ptr ds:[100090B8h]
  10007530: 68 54 D3 00 10     push        1000D354h
  10007535: FF 15 DC 90 00 10  call        dword ptr ds:[100090DCh]
  1000753B: 39 35 6C D3 00 10  cmp         dword ptr ds:[1000D36Ch],esi
  10007541: 74 0D              je          10007550
  10007543: 68 D4 BC 00 10     push        1000BCD4h
  10007548: 6A 00              push        0
  1000754A: FF 15 B8 90 00 10  call        dword ptr ds:[100090B8h]
  10007550: 8B 7C 24 1C        mov         edi,dword ptr [esp+1Ch]
  10007554: 85 FF              test        edi,edi
  10007556: C7 05 6C D3 00 10  mov         dword ptr ds:[1000D36Ch],1
            01 00 00 00
  10007560: 74 23              je          10007585
  10007562: 83 FF FF           cmp         edi,0FFFFFFFFh
  10007565: 74 1E              je          10007585
  10007567: 6A 04              push        4
  10007569: 57                 push        edi
  1000756A: FF D5              call        ebp
  1000756C: 85 C0              test        eax,eax
  1000756E: 74 0D              je          1000757D
  10007570: 68 D4 BC 00 10     push        1000BCD4h
  10007575: 6A 00              push        0
  10007577: FF 15 B8 90 00 10  call        dword ptr ds:[100090B8h]
  1000757D: 8B 15 7C F6 00 10  mov         edx,dword ptr ds:[1000F67Ch]
  10007583: 89 17              mov         dword ptr [edi],edx
  10007585: A1 78 F6 00 10     mov         eax,dword ptr ds:[1000F678h]
  1000758A: 85 C0              test        eax,eax
  1000758C: 5F                 pop         edi
  1000758D: 5D                 pop         ebp
  1000758E: 74 15              je          100075A5
  10007590: 3B 74 24 10        cmp         esi,dword ptr [esp+10h]
  10007594: 77 3C              ja          100075D2
  10007596: 8B 48 04           mov         ecx,dword ptr [eax+4]
  10007599: 89 0C B3           mov         dword ptr [ebx+esi*4],ecx
  1000759C: 8B 00              mov         eax,dword ptr [eax]
  1000759E: 83 C6 01           add         esi,1
  100075A1: 85 C0              test        eax,eax
  100075A3: 75 EB              jne         10007590
  100075A5: 83 3D 6C D3 00 10  cmp         dword ptr ds:[1000D36Ch],0
            00
  100075AC: 75 0D              jne         100075BB
  100075AE: 68 D4 BC 00 10     push        1000BCD4h
  100075B3: 6A 00              push        0
  100075B5: FF 15 B8 90 00 10  call        dword ptr ds:[100090B8h]
  100075BB: 68 54 D3 00 10     push        1000D354h
  100075C0: C7 05 6C D3 00 10  mov         dword ptr ds:[1000D36Ch],0
            00 00 00 00
  100075CA: FF 15 D8 90 00 10  call        dword ptr ds:[100090D8h]
  100075D0: EB 7F              jmp         10007651
  100075D2: 83 3D 6C D3 00 10  cmp         dword ptr ds:[1000D36Ch],0
            00
  100075D9: 75 0D              jne         100075E8
  100075DB: 68 D4 BC 00 10     push        1000BCD4h
  100075E0: 6A 00              push        0
  100075E2: FF 15 B8 90 00 10  call        dword ptr ds:[100090B8h]
  100075E8: 68 54 D3 00 10     push        1000D354h
  100075ED: C7 05 6C D3 00 10  mov         dword ptr ds:[1000D36Ch],0
            00 00 00 00
  100075F7: FF 15 D8 90 00 10  call        dword ptr ds:[100090D8h]
  100075FD: BE 23 00 00 C0     mov         esi,0C0000023h
  10007602: FF 15 2C 90 00 10  call        dword ptr ds:[1000902Ch]
  10007608: A3 B8 F6 00 10     mov         dword ptr ds:[1000F6B8h],eax
  1000760D: 85 C0              test        eax,eax
  1000760F: 8B C6              mov         eax,esi
  10007611: 74 45              je          10007658
  10007613: 5E                 pop         esi
  10007614: C7 05 08 D0 00 10  mov         dword ptr ds:[1000D008h],10009530h
            30 95 00 10
  1000761E: 5B                 pop         ebx
  1000761F: C2 0C 00           ret         0Ch
  10007622: 8B 74 24 14        mov         esi,dword ptr [esp+14h]
  10007626: 85 F6              test        esi,esi
  10007628: 74 3D              je          10007667
  1000762A: 83 FE FF           cmp         esi,0FFFFFFFFh
  1000762D: 74 38              je          10007667
  1000762F: 6A 04              push        4
  10007631: 56                 push        esi
  10007632: FF 15 CC 90 00 10  call        dword ptr ds:[100090CCh]
  10007638: 85 C0              test        eax,eax
  1000763A: 74 0D              je          10007649
  1000763C: 68 D4 BC 00 10     push        1000BCD4h
  10007641: 6A 00              push        0
  10007643: FF 15 B8 90 00 10  call        dword ptr ds:[100090B8h]
  10007649: 8B 15 7C F6 00 10  mov         edx,dword ptr ds:[1000F67Ch]
  1000764F: 89 16              mov         dword ptr [esi],edx
  10007651: 33 C0              xor         eax,eax
  10007653: A3 B8 F6 00 10     mov         dword ptr ds:[1000F6B8h],eax
  10007658: 5E                 pop         esi
  10007659: C7 05 08 D0 00 10  mov         dword ptr ds:[1000D008h],100091F0h
            F0 91 00 10
  10007663: 5B                 pop         ebx
  10007664: C2 0C 00           ret         0Ch
  10007667: BE F1 00 00 C0     mov         esi,0C00000F1h
  1000766C: FF 15 2C 90 00 10  call        dword ptr ds:[1000902Ch]
  10007672: A3 B8 F6 00 10     mov         dword ptr ds:[1000F6B8h],eax
  10007677: 85 C0              test        eax,eax
  10007679: 8B C6              mov         eax,esi
  1000767B: 74 DB              je          10007658
  1000767D: 5E                 pop         esi
  1000767E: C7 05 08 D0 00 10  mov         dword ptr ds:[1000D008h],100095A8h
            A8 95 00 10
  10007688: 5B                 pop         ebx
  10007689: C2 0C 00           ret         0Ch
  1000768C: CC                 int         3
  1000768D: CC                 int         3
  1000768E: CC                 int         3
  1000768F: CC                 int         3
  10007690: 83 EC 20           sub         esp,20h
  10007693: 53                 push        ebx
  10007694: 55                 push        ebp
  10007695: 56                 push        esi
  10007696: 68 54 D3 00 10     push        1000D354h
  1000769B: 33 DB              xor         ebx,ebx
  1000769D: 33 ED              xor         ebp,ebp
  1000769F: FF 15 DC 90 00 10  call        dword ptr ds:[100090DCh]
  100076A5: 39 1D 6C D3 00 10  cmp         dword ptr ds:[1000D36Ch],ebx
  100076AB: 8B 35 B8 90 00 10  mov         esi,dword ptr ds:[100090B8h]
  100076B1: 74 08              je          100076BB
  100076B3: 68 D4 BC 00 10     push        1000BCD4h
  100076B8: 53                 push        ebx
  100076B9: FF D6              call        esi
  100076BB: 8D 44 24 0C        lea         eax,[esp+0Ch]
  100076BF: 50                 push        eax
  100076C0: 68 00 10 00 00     push        1000h
  100076C5: 68 98 DF 00 10     push        1000DF98h
  100076CA: C7 05 6C D3 00 10  mov         dword ptr ds:[1000D36Ch],1
            01 00 00 00
  100076D4: FF 15 30 90 00 10  call        dword ptr ds:[10009030h]
  100076DA: 50                 push        eax
  100076DB: E8 D0 C1 FF FF     call        100038B0
  100076E0: 85 C0              test        eax,eax
  100076E2: 75 59              jne         1000773D
  100076E4: 39 1D 6C D3 00 10  cmp         dword ptr ds:[1000D36Ch],ebx
  100076EA: 75 08              jne         100076F4
  100076EC: 68 D4 BC 00 10     push        1000BCD4h
  100076F1: 53                 push        ebx
  100076F2: FF D6              call        esi
  100076F4: 68 54 D3 00 10     push        1000D354h
  100076F9: 89 1D 6C D3 00 10  mov         dword ptr ds:[1000D36Ch],ebx
  100076FF: FF 15 D8 90 00 10  call        dword ptr ds:[100090D8h]
  10007705: BE E5 00 00 C0     mov         esi,0C00000E5h
  1000770A: FF 15 2C 90 00 10  call        dword ptr ds:[1000902Ch]
  10007710: A3 B8 F6 00 10     mov         dword ptr ds:[1000F6B8h],eax
  10007715: 3B C3              cmp         eax,ebx
  10007717: 8B C6              mov         eax,esi
  10007719: 75 11              jne         1000772C
  1000771B: 5E                 pop         esi
  1000771C: 5D                 pop         ebp
  1000771D: C7 05 08 D0 00 10  mov         dword ptr ds:[1000D008h],100091F0h
            F0 91 00 10
  10007727: 5B                 pop         ebx
  10007728: 83 C4 20           add         esp,20h
  1000772B: C3                 ret
  1000772C: 5E                 pop         esi
  1000772D: 5D                 pop         ebp
  1000772E: C7 05 08 D0 00 10  mov         dword ptr ds:[1000D008h],10009430h
            30 94 00 10
  10007738: 5B                 pop         ebx
  10007739: 83 C4 20           add         esp,20h
  1000773C: C3                 ret
  1000773D: 39 1D 6C D3 00 10  cmp         dword ptr ds:[1000D36Ch],ebx
  10007743: 75 08              jne         1000774D
  10007745: 68 D4 BC 00 10     push        1000BCD4h
  1000774A: 53                 push        ebx
  1000774B: FF D6              call        esi
  1000774D: 57                 push        edi
  1000774E: 68 54 D3 00 10     push        1000D354h
  10007753: 89 1D 6C D3 00 10  mov         dword ptr ds:[1000D36Ch],ebx
  10007759: FF 15 D8 90 00 10  call        dword ptr ds:[100090D8h]
  1000775F: 8B 44 24 10        mov         eax,dword ptr [esp+10h]
  10007763: 8B 0D 74 F6 00 10  mov         ecx,dword ptr ds:[1000F674h]
  10007769: 8B 3D C4 90 00 10  mov         edi,dword ptr ds:[100090C4h]
  1000776F: C1 E8 02           shr         eax,2
  10007772: 89 44 24 10        mov         dword ptr [esp+10h],eax
  10007776: 8D 04 40           lea         eax,[eax+eax*2]
  10007779: 03 C0              add         eax,eax
  1000777B: 03 C0              add         eax,eax
  1000777D: 50                 push        eax
  1000777E: 53                 push        ebx
  1000777F: 51                 push        ecx
  10007780: FF D7              call        edi
  10007782: 3B C3              cmp         eax,ebx
  10007784: 89 44 24 1C        mov         dword ptr [esp+1Ch],eax
  10007788: 75 32              jne         100077BC
  1000778A: BE 17 00 00 C0     mov         esi,0C0000017h
  1000778F: FF 15 2C 90 00 10  call        dword ptr ds:[1000902Ch]
  10007795: 3B C3              cmp         eax,ebx
  10007797: A3 B8 F6 00 10     mov         dword ptr ds:[1000F6B8h],eax
  1000779C: 75 0F              jne         100077AD
  1000779E: C7 05 08 D0 00 10  mov         dword ptr ds:[1000D008h],100091F0h
            F0 91 00 10
  100077A8: E9 38 01 00 00     jmp         100078E5
  100077AD: C7 05 08 D0 00 10  mov         dword ptr ds:[1000D008h],10009490h
            90 94 00 10
  100077B7: E9 29 01 00 00     jmp         100078E5
  100077BC: 8B 74 24 10        mov         esi,dword ptr [esp+10h]
  100077C0: 8B 15 74 F6 00 10  mov         edx,dword ptr ds:[1000F674h]
  100077C6: 69 F6 10 01 00 00  imul        esi,esi,110h
  100077CC: 56                 push        esi
  100077CD: 53                 push        ebx
  100077CE: 52                 push        edx
  100077CF: FF D7              call        edi
  100077D1: 8B E8              mov         ebp,eax
  100077D3: 3B EB              cmp         ebp,ebx
  100077D5: 89 6C 24 2C        mov         dword ptr [esp+2Ch],ebp
  100077D9: 0F 84 DE 00 00 00  je          100078BD
  100077DF: 56                 push        esi
  100077E0: 55                 push        ebp
  100077E1: E8 7A C1 FF FF     call        10003960
  100077E6: 3B EB              cmp         ebp,ebx
  100077E8: 0F 84 CF 00 00 00  je          100078BD
  100077EE: 8B 74 24 10        mov         esi,dword ptr [esp+10h]
  100077F2: A1 74 F6 00 10     mov         eax,dword ptr ds:[1000F674h]
  100077F7: 69 F6 04 01 00 00  imul        esi,esi,104h
  100077FD: 56                 push        esi
  100077FE: 53                 push        ebx
  100077FF: 50                 push        eax
  10007800: FF D7              call        edi
  10007802: 8B F8              mov         edi,eax
  10007804: 3B FB              cmp         edi,ebx
  10007806: 89 7C 24 28        mov         dword ptr [esp+28h],edi
  1000780A: 0F 84 AD 00 00 00  je          100078BD
  10007810: 56                 push        esi
  10007811: 57                 push        edi
  10007812: E8 49 C1 FF FF     call        10003960
  10007817: 33 F6              xor         esi,esi
  10007819: 39 5C 24 10        cmp         dword ptr [esp+10h],ebx
  1000781D: 89 74 24 24        mov         dword ptr [esp+24h],esi
  10007821: 89 5C 24 20        mov         dword ptr [esp+20h],ebx
  10007825: 0F 86 53 01 00 00  jbe         1000797E
  1000782B: 8B 5C 24 1C        mov         ebx,dword ptr [esp+1Ch]
  1000782F: C7 44 24 14 01 00  mov         dword ptr [esp+14h],1
            00 00
  10007837: 89 7C 24 18        mov         dword ptr [esp+18h],edi
  1000783B: 83 C5 0C           add         ebp,0Ch
  1000783E: 8B FF              mov         edi,edi
  10007840: 8B 04 B5 98 DF 00  mov         eax,dword ptr [esi*4+1000DF98h]
            10
  10007847: 6A 0C              push        0Ch
  10007849: 53                 push        ebx
  1000784A: 50                 push        eax
  1000784B: FF 15 30 90 00 10  call        dword ptr ds:[10009030h]
  10007851: 50                 push        eax
  10007852: E8 53 C0 FF FF     call        100038AA
  10007857: 85 C0              test        eax,eax
  10007859: 0F 84 04 01 00 00  je          10007963
  1000785F: 8B 0C B5 98 DF 00  mov         ecx,dword ptr [esi*4+1000DF98h]
            10
  10007866: 68 04 01 00 00     push        104h
  1000786B: 57                 push        edi
  1000786C: 51                 push        ecx
  1000786D: FF 15 38 90 00 10  call        dword ptr ds:[10009038h]
  10007873: FF 15 2C 90 00 10  call        dword ptr ds:[1000902Ch]
  10007879: 85 C0              test        eax,eax
  1000787B: 0F 85 E2 00 00 00  jne         10007963
  10007881: 8B 13              mov         edx,dword ptr [ebx]
  10007883: 89 55 F8           mov         dword ptr [ebp-8],edx
  10007886: 8B 43 04           mov         eax,dword ptr [ebx+4]
  10007889: 8B F7              mov         esi,edi
  1000788B: 89 45 FC           mov         dword ptr [ebp-4],eax
  1000788E: B9 41 00 00 00     mov         ecx,41h
  10007893: 8B FD              mov         edi,ebp
  10007895: F3 A5              rep movs    dword ptr es:[edi],dword ptr [esi]
  10007897: 33 C0              xor         eax,eax
  10007899: A4                 movs        byte ptr es:[edi],byte ptr [esi]
  1000789A: 38 45 00           cmp         byte ptr [ebp],al
  1000789D: 74 0A              je          100078A9
  1000789F: 90                 nop
  100078A0: 83 C0 01           add         eax,1
  100078A3: 80 3C 28 00        cmp         byte ptr [eax+ebp],0
  100078A7: 75 F7              jne         100078A0
  100078A9: 85 C0              test        eax,eax
  100078AB: 7C 74              jl          10007921
  100078AD: 8D 49 00           lea         ecx,[ecx]
  100078B0: 80 3C 28 5C        cmp         byte ptr [eax+ebp],5Ch
  100078B4: 74 61              je          10007917
  100078B6: 83 E8 01           sub         eax,1
  100078B9: 79 F5              jns         100078B0
  100078BB: EB 64              jmp         10007921
  100078BD: BE 17 00 00 C0     mov         esi,0C0000017h
  100078C2: FF 15 2C 90 00 10  call        dword ptr ds:[1000902Ch]
  100078C8: 3B C3              cmp         eax,ebx
  100078CA: A3 B8 F6 00 10     mov         dword ptr ds:[1000F6B8h],eax
  100078CF: C7 05 08 D0 00 10  mov         dword ptr ds:[1000D008h],100091F0h
            F0 91 00 10
  100078D9: 74 0A              je          100078E5
  100078DB: C7 05 08 D0 00 10  mov         dword ptr ds:[1000D008h],100094F4h
            F4 94 00 10
  100078E5: 8B 44 24 1C        mov         eax,dword ptr [esp+1Ch]
  100078E9: 3B C3              cmp         eax,ebx
  100078EB: 8B 3D C8 90 00 10  mov         edi,dword ptr ds:[100090C8h]
  100078F1: 74 0B              je          100078FE
  100078F3: 8B 0D 74 F6 00 10  mov         ecx,dword ptr ds:[1000F674h]
  100078F9: 50                 push        eax
  100078FA: 53                 push        ebx
  100078FB: 51                 push        ecx
  100078FC: FF D7              call        edi
  100078FE: 3B EB              cmp         ebp,ebx
  10007900: 74 0B              je          1000790D
  10007902: 8B 15 74 F6 00 10  mov         edx,dword ptr ds:[1000F674h]
  10007908: 55                 push        ebp
  10007909: 53                 push        ebx
  1000790A: 52                 push        edx
  1000790B: FF D7              call        edi
  1000790D: 5F                 pop         edi
  1000790E: 8B C6              mov         eax,esi
  10007910: 5E                 pop         esi
  10007911: 5D                 pop         ebp
  10007912: 5B                 pop         ebx
  10007913: 83 C4 20           add         esp,20h
  10007916: C3                 ret
  10007917: 8D 4C 28 01        lea         ecx,[eax+ebp+1]
  1000791B: 89 8D 00 01 00 00  mov         dword ptr [ebp+00000100h],ecx
  10007921: 8B 54 24 14        mov         edx,dword ptr [esp+14h]
  10007925: 3B 54 24 10        cmp         edx,dword ptr [esp+10h]
  10007929: 73 0B              jae         10007936
  1000792B: 8D 85 04 01 00 00  lea         eax,[ebp+00000104h]
  10007931: 89 45 F4           mov         dword ptr [ebp-0Ch],eax
  10007934: EB 07              jmp         1000793D
  10007936: C7 45 F4 00 00 00  mov         dword ptr [ebp-0Ch],0
            00
  1000793D: 81 44 24 18 04 01  add         dword ptr [esp+18h],104h
            00 00
  10007945: 8B 74 24 24        mov         esi,dword ptr [esp+24h]
  10007949: 8B 7C 24 18        mov         edi,dword ptr [esp+18h]
  1000794D: B8 01 00 00 00     mov         eax,1
  10007952: 01 44 24 20        add         dword ptr [esp+20h],eax
  10007956: 01 44 24 14        add         dword ptr [esp+14h],eax
  1000795A: 83 C3 0C           add         ebx,0Ch
  1000795D: 81 C5 10 01 00 00  add         ebp,110h
  10007963: 83 C6 01           add         esi,1
  10007966: 3B 74 24 10        cmp         esi,dword ptr [esp+10h]
  1000796A: 89 74 24 24        mov         dword ptr [esp+24h],esi
  1000796E: 0F 82 CC FE FF FF  jb          10007840
  10007974: 8B 7C 24 28        mov         edi,dword ptr [esp+28h]
  10007978: 8B 6C 24 2C        mov         ebp,dword ptr [esp+2Ch]
  1000797C: 33 DB              xor         ebx,ebx
  1000797E: 68 54 D3 00 10     push        1000D354h
  10007983: FF 15 DC 90 00 10  call        dword ptr ds:[100090DCh]
  10007989: 39 1D 6C D3 00 10  cmp         dword ptr ds:[1000D36Ch],ebx
  1000798F: 74 0C              je          1000799D
  10007991: 68 D4 BC 00 10     push        1000BCD4h
  10007996: 53                 push        ebx
  10007997: FF 15 B8 90 00 10  call        dword ptr ds:[100090B8h]
  1000799D: A1 84 F6 00 10     mov         eax,dword ptr ds:[1000F684h]
  100079A2: 3B C3              cmp         eax,ebx
  100079A4: 8B 35 C8 90 00 10  mov         esi,dword ptr ds:[100090C8h]
  100079AA: C7 05 6C D3 00 10  mov         dword ptr ds:[1000D36Ch],1
            01 00 00 00
  100079B4: 74 0B              je          100079C1
  100079B6: 8B 0D 74 F6 00 10  mov         ecx,dword ptr ds:[1000F674h]
  100079BC: 50                 push        eax
  100079BD: 53                 push        ebx
  100079BE: 51                 push        ecx
  100079BF: FF D6              call        esi
  100079C1: A1 78 F6 00 10     mov         eax,dword ptr ds:[1000F678h]
  100079C6: 3B C3              cmp         eax,ebx
  100079C8: 74 0B              je          100079D5
  100079CA: 8B 15 74 F6 00 10  mov         edx,dword ptr ds:[1000F674h]
  100079D0: 50                 push        eax
  100079D1: 53                 push        ebx
  100079D2: 52                 push        edx
  100079D3: FF D6              call        esi
  100079D5: A1 88 F6 00 10     mov         eax,dword ptr ds:[1000F688h]
  100079DA: 3B C3              cmp         eax,ebx
  100079DC: 74 0A              je          100079E8
  100079DE: 50                 push        eax
  100079DF: A1 74 F6 00 10     mov         eax,dword ptr ds:[1000F674h]
  100079E4: 53                 push        ebx
  100079E5: 50                 push        eax
  100079E6: FF D6              call        esi
  100079E8: 39 1D 6C D3 00 10  cmp         dword ptr ds:[1000D36Ch],ebx
  100079EE: 8B 4C 24 1C        mov         ecx,dword ptr [esp+1Ch]
  100079F2: 8B 54 24 20        mov         edx,dword ptr [esp+20h]
  100079F6: 89 3D 88 F6 00 10  mov         dword ptr ds:[1000F688h],edi
  100079FC: 89 0D 84 F6 00 10  mov         dword ptr ds:[1000F684h],ecx
  10007A02: 89 2D 78 F6 00 10  mov         dword ptr ds:[1000F678h],ebp
  10007A08: 89 15 7C F6 00 10  mov         dword ptr ds:[1000F67Ch],edx
  10007A0E: 75 0C              jne         10007A1C
  10007A10: 68 D4 BC 00 10     push        1000BCD4h
  10007A15: 53                 push        ebx
  10007A16: FF 15 B8 90 00 10  call        dword ptr ds:[100090B8h]
  10007A1C: 68 54 D3 00 10     push        1000D354h
  10007A21: 89 1D 6C D3 00 10  mov         dword ptr ds:[1000D36Ch],ebx
  10007A27: FF 15 D8 90 00 10  call        dword ptr ds:[100090D8h]
  10007A2D: 5F                 pop         edi
  10007A2E: 5E                 pop         esi
  10007A2F: 5D                 pop         ebp
  10007A30: 89 1D B8 F6 00 10  mov         dword ptr ds:[1000F6B8h],ebx
  10007A36: C7 05 08 D0 00 10  mov         dword ptr ds:[1000D008h],100091F0h
            F0 91 00 10
  10007A40: 33 C0              xor         eax,eax
  10007A42: 5B                 pop         ebx
  10007A43: 83 C4 20           add         esp,20h
  10007A46: C3                 ret
  10007A47: CC                 int         3
  10007A48: CC                 int         3
  10007A49: CC                 int         3
  10007A4A: CC                 int         3
  10007A4B: CC                 int         3
  10007A4C: CC                 int         3
  10007A4D: CC                 int         3
  10007A4E: CC                 int         3
  10007A4F: CC                 int         3
  10007A50: A1 84 F6 00 10     mov         eax,dword ptr ds:[1000F684h]
  10007A55: 85 C0              test        eax,eax
  10007A57: 56                 push        esi
  10007A58: 8B 35 C8 90 00 10  mov         esi,dword ptr ds:[100090C8h]
  10007A5E: 74 0B              je          10007A6B
  10007A60: 50                 push        eax
  10007A61: A1 74 F6 00 10     mov         eax,dword ptr ds:[1000F674h]
  10007A66: 6A 00              push        0
  10007A68: 50                 push        eax
  10007A69: FF D6              call        esi
  10007A6B: A1 78 F6 00 10     mov         eax,dword ptr ds:[1000F678h]
  10007A70: 85 C0              test        eax,eax
  10007A72: 74 0C              je          10007A80
  10007A74: 8B 0D 74 F6 00 10  mov         ecx,dword ptr ds:[1000F674h]
  10007A7A: 50                 push        eax
  10007A7B: 6A 00              push        0
  10007A7D: 51                 push        ecx
  10007A7E: FF D6              call        esi
  10007A80: A1 88 F6 00 10     mov         eax,dword ptr ds:[1000F688h]
  10007A85: 85 C0              test        eax,eax
  10007A87: 74 0C              je          10007A95
  10007A89: 8B 15 74 F6 00 10  mov         edx,dword ptr ds:[1000F674h]
  10007A8F: 50                 push        eax
  10007A90: 6A 00              push        0
  10007A92: 52                 push        edx
  10007A93: FF D6              call        esi
  10007A95: 5E                 pop         esi
  10007A96: C3                 ret
  10007A97: CC                 int         3
  10007A98: CC                 int         3
  10007A99: CC                 int         3
  10007A9A: CC                 int         3
  10007A9B: CC                 int         3
  10007A9C: CC                 int         3
  10007A9D: CC                 int         3
  10007A9E: CC                 int         3
  10007A9F: CC                 int         3
  10007AA0: 51                 push        ecx
  10007AA1: 8B 44 24 0C        mov         eax,dword ptr [esp+0Ch]
  10007AA5: 53                 push        ebx
  10007AA6: 55                 push        ebp
  10007AA7: 33 ED              xor         ebp,ebp
  10007AA9: 3B C5              cmp         eax,ebp
  10007AAB: 56                 push        esi
  10007AAC: 57                 push        edi
  10007AAD: C7 44 24 10 01 00  mov         dword ptr [esp+10h],1
            00 00
  10007AB5: 0F 84 C3 00 00 00  je          10007B7E
  10007ABB: 83 F8 FF           cmp         eax,0FFFFFFFFh
  10007ABE: 0F 84 BA 00 00 00  je          10007B7E
  10007AC4: 68 10 01 00 00     push        110h
  10007AC9: 50                 push        eax
  10007ACA: FF 15 CC 90 00 10  call        dword ptr ds:[100090CCh]
  10007AD0: 85 C0              test        eax,eax
  10007AD2: 8B 3D B8 90 00 10  mov         edi,dword ptr ds:[100090B8h]
  10007AD8: 74 08              je          10007AE2
  10007ADA: 68 D4 BC 00 10     push        1000BCD4h
  10007ADF: 55                 push        ebp
  10007AE0: FF D7              call        edi
  10007AE2: 8B 5C 24 18        mov         ebx,dword ptr [esp+18h]
  10007AE6: EB 08              jmp         10007AF0
  10007AE8: 8D A4 24 00 00 00  lea         esp,[esp+00000000h]
            00
  10007AEF: 90                 nop
  10007AF0: 68 54 D3 00 10     push        1000D354h
  10007AF5: FF 15 DC 90 00 10  call        dword ptr ds:[100090DCh]
  10007AFB: 39 2D 6C D3 00 10  cmp         dword ptr ds:[1000D36Ch],ebp
  10007B01: 74 08              je          10007B0B
  10007B03: 68 D4 BC 00 10     push        1000BCD4h
  10007B08: 55                 push        ebp
  10007B09: FF D7              call        edi
  10007B0B: 8B 35 78 F6 00 10  mov         esi,dword ptr ds:[1000F678h]
  10007B11: 3B F5              cmp         esi,ebp
  10007B13: C7 05 6C D3 00 10  mov         dword ptr ds:[1000D36Ch],1
            01 00 00 00
  10007B1D: 74 1B              je          10007B3A
  10007B1F: 90                 nop
  10007B20: 8B 46 04           mov         eax,dword ptr [esi+4]
  10007B23: 3B D8              cmp         ebx,eax
  10007B25: 72 0D              jb          10007B34
  10007B27: 8B 4E 08           mov         ecx,dword ptr [esi+8]
  10007B2A: 03 C8              add         ecx,eax
  10007B2C: 3B D9              cmp         ebx,ecx
  10007B2E: 0F 86 86 00 00 00  jbe         10007BBA
  10007B34: 8B 36              mov         esi,dword ptr [esi]
  10007B36: 3B F5              cmp         esi,ebp
  10007B38: 75 E6              jne         10007B20
  10007B3A: 68 54 D3 00 10     push        1000D354h
  10007B3F: 89 2D 6C D3 00 10  mov         dword ptr ds:[1000D36Ch],ebp
  10007B45: FF 15 D8 90 00 10  call        dword ptr ds:[100090D8h]
  10007B4B: 3B DD              cmp         ebx,ebp
  10007B4D: 0F 84 B1 00 00 00  je          10007C04
  10007B53: 83 FB FF           cmp         ebx,0FFFFFFFFh
  10007B56: 0F 84 A8 00 00 00  je          10007C04
  10007B5C: E8 2F FB FF FF     call        10007690
  10007B61: 8B F0              mov         esi,eax
  10007B63: 3B F5              cmp         esi,ebp
  10007B65: 0F 8C C1 00 00 00  jl          10007C2C
  10007B6B: 39 6C 24 10        cmp         dword ptr [esp+10h],ebp
  10007B6F: 0F 84 8F 00 00 00  je          10007C04
  10007B75: 89 6C 24 10        mov         dword ptr [esp+10h],ebp
  10007B79: E9 72 FF FF FF     jmp         10007AF0
  10007B7E: BE F0 00 00 C0     mov         esi,0C00000F0h
  10007B83: FF 15 2C 90 00 10  call        dword ptr ds:[1000902Ch]
  10007B89: 3B C5              cmp         eax,ebp
  10007B8B: A3 B8 F6 00 10     mov         dword ptr ds:[1000F6B8h],eax
  10007B90: 75 14              jne         10007BA6
  10007B92: 5F                 pop         edi
  10007B93: 8B C6              mov         eax,esi
  10007B95: 5E                 pop         esi
  10007B96: 5D                 pop         ebp
  10007B97: C7 05 08 D0 00 10  mov         dword ptr ds:[1000D008h],100091F0h
            F0 91 00 10
  10007BA1: 5B                 pop         ebx
  10007BA2: 59                 pop         ecx
  10007BA3: C2 08 00           ret         8
  10007BA6: 5F                 pop         edi
  10007BA7: 8B C6              mov         eax,esi
  10007BA9: 5E                 pop         esi
  10007BAA: 5D                 pop         ebp
  10007BAB: C7 05 08 D0 00 10  mov         dword ptr ds:[1000D008h],10009630h
            30 96 00 10
  10007BB5: 5B                 pop         ebx
  10007BB6: 59                 pop         ecx
  10007BB7: C2 08 00           ret         8
  10007BBA: 8B 7C 24 1C        mov         edi,dword ptr [esp+1Ch]
  10007BBE: B9 44 00 00 00     mov         ecx,44h
  10007BC3: F3 A5              rep movs    dword ptr es:[edi],dword ptr [esi]
  10007BC5: 39 2D 6C D3 00 10  cmp         dword ptr ds:[1000D36Ch],ebp
  10007BCB: 75 0C              jne         10007BD9
  10007BCD: 68 D4 BC 00 10     push        1000BCD4h
  10007BD2: 55                 push        ebp
  10007BD3: FF 15 B8 90 00 10  call        dword ptr ds:[100090B8h]
  10007BD9: 68 54 D3 00 10     push        1000D354h
  10007BDE: 89 2D 6C D3 00 10  mov         dword ptr ds:[1000D36Ch],ebp
  10007BE4: FF 15 D8 90 00 10  call        dword ptr ds:[100090D8h]
  10007BEA: 5F                 pop         edi
  10007BEB: 5E                 pop         esi
  10007BEC: 89 2D B8 F6 00 10  mov         dword ptr ds:[1000F6B8h],ebp
  10007BF2: 5D                 pop         ebp
  10007BF3: C7 05 08 D0 00 10  mov         dword ptr ds:[1000D008h],100091F0h
            F0 91 00 10
  10007BFD: 33 C0              xor         eax,eax
  10007BFF: 5B                 pop         ebx
  10007C00: 59                 pop         ecx
  10007C01: C2 08 00           ret         8
  10007C04: BE 25 02 00 C0     mov         esi,0C0000225h
  10007C09: FF 15 2C 90 00 10  call        dword ptr ds:[1000902Ch]
  10007C0F: 3B C5              cmp         eax,ebp
  10007C11: A3 B8 F6 00 10     mov         dword ptr ds:[1000F6B8h],eax
  10007C16: C7 05 08 D0 00 10  mov         dword ptr ds:[1000D008h],100091F0h
            F0 91 00 10
  10007C20: 74 0A              je          10007C2C
  10007C22: C7 05 08 D0 00 10  mov         dword ptr ds:[1000D008h],1000967Ch
            7C 96 00 10
  10007C2C: 5F                 pop         edi
  10007C2D: 8B C6              mov         eax,esi
  10007C2F: 5E                 pop         esi
  10007C30: 5D                 pop         ebp
  10007C31: 5B                 pop         ebx
  10007C32: 59                 pop         ecx
  10007C33: C2 08 00           ret         8
  10007C36: CC                 int         3
  10007C37: CC                 int         3
  10007C38: CC                 int         3
  10007C39: CC                 int         3
  10007C3A: CC                 int         3
  10007C3B: CC                 int         3
  10007C3C: CC                 int         3
  10007C3D: CC                 int         3
  10007C3E: CC                 int         3
  10007C3F: CC                 int         3
  10007C40: 51                 push        ecx
  10007C41: 8D 04 24           lea         eax,[esp]
  10007C44: 50                 push        eax
  10007C45: E8 56 F0 FF FF     call        10006CA0
  10007C4A: 85 C0              test        eax,eax
  10007C4C: 7C 28              jl          10007C76
  10007C4E: 8B 4C 24 08        mov         ecx,dword ptr [esp+8]
  10007C52: 8B 14 24           mov         edx,dword ptr [esp]
  10007C55: 51                 push        ecx
  10007C56: 52                 push        edx
  10007C57: E8 44 FE FF FF     call        10007AA0
  10007C5C: 85 C0              test        eax,eax
  10007C5E: 7C 16              jl          10007C76
  10007C60: C7 05 B8 F6 00 10  mov         dword ptr ds:[1000F6B8h],0
            00 00 00 00
  10007C6A: C7 05 08 D0 00 10  mov         dword ptr ds:[1000D008h],100091F0h
            F0 91 00 10
  10007C74: 33 C0              xor         eax,eax
  10007C76: 59                 pop         ecx
  10007C77: C2 04 00           ret         4
  10007C7A: CC                 int         3
  10007C7B: CC                 int         3
  10007C7C: CC                 int         3
  10007C7D: CC                 int         3
  10007C7E: CC                 int         3
  10007C7F: CC                 int         3
  10007C80: 51                 push        ecx
  10007C81: 8B 44 24 0C        mov         eax,dword ptr [esp+0Ch]
  10007C85: 83 F8 40           cmp         eax,40h
  10007C88: 56                 push        esi
  10007C89: C7 44 24 04 00 00  mov         dword ptr [esp+4],0
            00 00
  10007C91: 76 34              jbe         10007CC7
  10007C93: BE F0 00 00 C0     mov         esi,0C00000F0h
  10007C98: FF 15 2C 90 00 10  call        dword ptr ds:[1000902Ch]
  10007C9E: A3 B8 F6 00 10     mov         dword ptr ds:[1000F6B8h],eax
  10007CA3: 85 C0              test        eax,eax
  10007CA5: 8B C6              mov         eax,esi
  10007CA7: 75 0F              jne         10007CB8
  10007CA9: C7 05 08 D0 00 10  mov         dword ptr ds:[1000D008h],100091F0h
            F0 91 00 10
  10007CB3: 5E                 pop         esi
  10007CB4: 59                 pop         ecx
  10007CB5: C2 0C 00           ret         0Ch
  10007CB8: C7 05 08 D0 00 10  mov         dword ptr ds:[1000D008h],100096B8h
            B8 96 00 10
  10007CC2: 5E                 pop         esi
  10007CC3: 59                 pop         ecx
  10007CC4: C2 0C 00           ret         0Ch
  10007CC7: 53                 push        ebx
  10007CC8: 8B 5C 24 10        mov         ebx,dword ptr [esp+10h]
  10007CCC: 85 DB              test        ebx,ebx
  10007CCE: 0F 84 AD 00 00 00  je          10007D81
  10007CD4: 83 FB FF           cmp         ebx,0FFFFFFFFh
  10007CD7: 0F 84 A4 00 00 00  je          10007D81
  10007CDD: 8B 35 CC 90 00 10  mov         esi,dword ptr ds:[100090CCh]
  10007CE3: 03 C0              add         eax,eax
  10007CE5: 55                 push        ebp
  10007CE6: 03 C0              add         eax,eax
  10007CE8: 50                 push        eax
  10007CE9: 53                 push        ebx
  10007CEA: FF D6              call        esi
  10007CEC: 85 C0              test        eax,eax
  10007CEE: 8B 2D B8 90 00 10  mov         ebp,dword ptr ds:[100090B8h]
  10007CF4: 74 09              je          10007CFF
  10007CF6: 68 D4 BC 00 10     push        1000BCD4h
  10007CFB: 6A 00              push        0
  10007CFD: FF D5              call        ebp
  10007CFF: 57                 push        edi
  10007D00: 8B 7C 24 20        mov         edi,dword ptr [esp+20h]
  10007D04: 85 FF              test        edi,edi
  10007D06: 0F 84 AB 00 00 00  je          10007DB7
  10007D0C: 83 FF FF           cmp         edi,0FFFFFFFFh
  10007D0F: 0F 84 A2 00 00 00  je          10007DB7
  10007D15: 6A 04              push        4
  10007D17: 57                 push        edi
  10007D18: FF D6              call        esi
  10007D1A: 85 C0              test        eax,eax
  10007D1C: 74 09              je          10007D27
  10007D1E: 68 D4 BC 00 10     push        1000BCD4h
  10007D23: 6A 00              push        0
  10007D25: FF D5              call        ebp
  10007D27: 8D 4C 24 10        lea         ecx,[esp+10h]
  10007D2B: 51                 push        ecx
  10007D2C: E8 EF ED FF FF     call        10006B20
  10007D31: 8B F0              mov         esi,eax
  10007D33: 85 F6              test        esi,esi
  10007D35: 0F 8C DA 00 00 00  jl          10007E15
  10007D3B: A1 80 F6 00 10     mov         eax,dword ptr ds:[1000F680h]
  10007D40: 85 C0              test        eax,eax
  10007D42: 0F 85 A9 00 00 00  jne         10007DF1
  10007D48: 8B 15 6C F6 00 10  mov         edx,dword ptr ds:[1000F66Ch]
  10007D4E: 68 8C 97 00 10     push        1000978Ch
  10007D53: 52                 push        edx
  10007D54: FF 15 34 90 00 10  call        dword ptr ds:[10009034h]
  10007D5A: 85 C0              test        eax,eax
  10007D5C: A3 80 F6 00 10     mov         dword ptr ds:[1000F680h],eax
  10007D61: 0F 85 8A 00 00 00  jne         10007DF1
  10007D67: 68 A8 97 00 10     push        100097A8h
  10007D6C: BE 02 00 00 C0     mov         esi,0C0000002h
  10007D71: FF 15 2C 90 00 10  call        dword ptr ds:[1000902Ch]
  10007D77: E8 44 BF FF FF     call        10003CC0
  10007D7C: E9 94 00 00 00     jmp         10007E15
  10007D81: BE EF 00 00 C0     mov         esi,0C00000EFh
  10007D86: FF 15 2C 90 00 10  call        dword ptr ds:[1000902Ch]
  10007D8C: A3 B8 F6 00 10     mov         dword ptr ds:[1000F6B8h],eax
  10007D91: 85 C0              test        eax,eax
  10007D93: 8B C6              mov         eax,esi
  10007D95: 75 10              jne         10007DA7
  10007D97: 5B                 pop         ebx
  10007D98: C7 05 08 D0 00 10  mov         dword ptr ds:[1000D008h],100091F0h
            F0 91 00 10
  10007DA2: 5E                 pop         esi
  10007DA3: 59                 pop         ecx
  10007DA4: C2 0C 00           ret         0Ch
  10007DA7: 5B                 pop         ebx
  10007DA8: C7 05 08 D0 00 10  mov         dword ptr ds:[1000D008h],10009708h
            08 97 00 10
  10007DB2: 5E                 pop         esi
  10007DB3: 59                 pop         ecx
  10007DB4: C2 0C 00           ret         0Ch
  10007DB7: BE F1 00 00 C0     mov         esi,0C00000F1h
  10007DBC: FF 15 2C 90 00 10  call        dword ptr ds:[1000902Ch]
  10007DC2: A3 B8 F6 00 10     mov         dword ptr ds:[1000F6B8h],eax
  10007DC7: 85 C0              test        eax,eax
  10007DC9: 8B C6              mov         eax,esi
  10007DCB: 75 12              jne         10007DDF
  10007DCD: 5F                 pop         edi
  10007DCE: 5D                 pop         ebp
  10007DCF: 5B                 pop         ebx
  10007DD0: C7 05 08 D0 00 10  mov         dword ptr ds:[1000D008h],100091F0h
            F0 91 00 10
  10007DDA: 5E                 pop         esi
  10007DDB: 59                 pop         ecx
  10007DDC: C2 0C 00           ret         0Ch
  10007DDF: 5F                 pop         edi
  10007DE0: 5D                 pop         ebp
  10007DE1: 5B                 pop         ebx
  10007DE2: C7 05 08 D0 00 10  mov         dword ptr ds:[1000D008h],10009750h
            50 97 00 10
  10007DEC: 5E                 pop         esi
  10007DED: 59                 pop         ecx
  10007DEE: C2 0C 00           ret         0Ch
  10007DF1: 6A 00              push        0
  10007DF3: 53                 push        ebx
  10007DF4: 6A 20              push        20h
  10007DF6: 6A 01              push        1
  10007DF8: FF D0              call        eax
  10007DFA: 0F B7 C0           movzx       eax,ax
  10007DFD: 89 07              mov         dword ptr [edi],eax
  10007DFF: C7 05 B8 F6 00 10  mov         dword ptr ds:[1000F6B8h],0
            00 00 00 00
  10007E09: C7 05 08 D0 00 10  mov         dword ptr ds:[1000D008h],100091F0h
            F0 91 00 10
  10007E13: 33 F6              xor         esi,esi
  10007E15: 8B 44 24 10        mov         eax,dword ptr [esp+10h]
  10007E19: 85 C0              test        eax,eax
  10007E1B: 74 06              je          10007E23
  10007E1D: 50                 push        eax
  10007E1E: E8 9D F5 FF FF     call        100073C0
  10007E23: 5F                 pop         edi
  10007E24: 5D                 pop         ebp
  10007E25: 5B                 pop         ebx
  10007E26: 8B C6              mov         eax,esi
  10007E28: 5E                 pop         esi
  10007E29: 59                 pop         ecx
  10007E2A: C2 0C 00           ret         0Ch
  10007E2D: CC                 int         3
  10007E2E: CC                 int         3
  10007E2F: CC                 int         3
  10007E30: 83 EC 24           sub         esp,24h
  10007E33: 56                 push        esi
  10007E34: 57                 push        edi
  10007E35: 8D 44 24 08        lea         eax,[esp+8]
  10007E39: 50                 push        eax
  10007E3A: FF 15 28 90 00 10  call        dword ptr ds:[10009028h]
  10007E40: 8B 44 24 0C        mov         eax,dword ptr [esp+0Ch]
  10007E44: 8B 0D 74 F6 00 10  mov         ecx,dword ptr ds:[1000F674h]
  10007E4A: 50                 push        eax
  10007E4B: 6A 00              push        0
  10007E4D: 51                 push        ecx
  10007E4E: 8B F8              mov         edi,eax
  10007E50: FF 15 C4 90 00 10  call        dword ptr ds:[100090C4h]
  10007E56: 8B F0              mov         esi,eax
  10007E58: 85 F6              test        esi,esi
  10007E5A: 74 0F              je          10007E6B
  10007E5C: 57                 push        edi
  10007E5D: 56                 push        esi
  10007E5E: E8 FD BA FF FF     call        10003960
  10007E63: 5F                 pop         edi
  10007E64: 8B C6              mov         eax,esi
  10007E66: 5E                 pop         esi
  10007E67: 83 C4 24           add         esp,24h
  10007E6A: C3                 ret
  10007E6B: 5F                 pop         edi
  10007E6C: 33 C0              xor         eax,eax
  10007E6E: 5E                 pop         esi
  10007E6F: 83 C4 24           add         esp,24h
  10007E72: C3                 ret
  10007E73: CC                 int         3
  10007E74: CC                 int         3
  10007E75: CC                 int         3
  10007E76: CC                 int         3
  10007E77: CC                 int         3
  10007E78: CC                 int         3
  10007E79: CC                 int         3
  10007E7A: CC                 int         3
  10007E7B: CC                 int         3
  10007E7C: CC                 int         3
  10007E7D: CC                 int         3
  10007E7E: CC                 int         3
  10007E7F: CC                 int         3
  10007E80: 56                 push        esi
  10007E81: 8B 37              mov         esi,dword ptr [edi]
  10007E83: 85 F6              test        esi,esi
  10007E85: 75 0C              jne         10007E93
  10007E87: 68 D4 BC 00 10     push        1000BCD4h
  10007E8C: 56                 push        esi
  10007E8D: FF 15 B8 90 00 10  call        dword ptr ds:[100090B8h]
  10007E93: A1 74 F6 00 10     mov         eax,dword ptr ds:[1000F674h]
  10007E98: 56                 push        esi
  10007E99: 6A 00              push        0
  10007E9B: 50                 push        eax
  10007E9C: FF 15 C8 90 00 10  call        dword ptr ds:[100090C8h]
  10007EA2: C7 07 00 00 00 00  mov         dword ptr [edi],0
  10007EA8: 5E                 pop         esi
  10007EA9: C3                 ret
  10007EAA: CC                 int         3
  10007EAB: CC                 int         3
  10007EAC: CC                 int         3
  10007EAD: CC                 int         3
  10007EAE: CC                 int         3
  10007EAF: CC                 int         3
  10007EB0: 85 FF              test        edi,edi
  10007EB2: 56                 push        esi
  10007EB3: 8B 35 B8 90 00 10  mov         esi,dword ptr ds:[100090B8h]
  10007EB9: 74 15              je          10007ED0
  10007EBB: 83 FF FF           cmp         edi,0FFFFFFFFh
  10007EBE: 74 10              je          10007ED0
  10007EC0: 68 08 02 00 00     push        208h
  10007EC5: 57                 push        edi
  10007EC6: FF 15 CC 90 00 10  call        dword ptr ds:[100090CCh]
  10007ECC: 85 C0              test        eax,eax
  10007ECE: 74 09              je          10007ED9
  10007ED0: 68 D4 BC 00 10     push        1000BCD4h
  10007ED5: 6A 00              push        0
  10007ED7: FF D6              call        esi
  10007ED9: 8B 44 24 0C        mov         eax,dword ptr [esp+0Ch]
  10007EDD: 3D 80 00 00 00     cmp         eax,80h
  10007EE2: 76 09              jbe         10007EED
  10007EE4: B8 F0 00 00 C0     mov         eax,0C00000F0h
  10007EE9: 5E                 pop         esi
  10007EEA: C2 08 00           ret         8
  10007EED: 85 DB              test        ebx,ebx
  10007EEF: 74 73              je          10007F64
  10007EF1: 83 FB FF           cmp         ebx,0FFFFFFFFh
  10007EF4: 74 6E              je          10007F64
  10007EF6: 55                 push        ebp
  10007EF7: 8D 2C 85 00 00 00  lea         ebp,[eax*4+00000000h]
            00
  10007EFE: 55                 push        ebp
  10007EFF: 53                 push        ebx
  10007F00: FF 15 CC 90 00 10  call        dword ptr ds:[100090CCh]
  10007F06: 85 C0              test        eax,eax
  10007F08: 74 09              je          10007F13
  10007F0A: 68 D4 BC 00 10     push        1000BCD4h
  10007F0F: 6A 00              push        0
  10007F11: FF D6              call        esi
  10007F13: 8B 44 24 10        mov         eax,dword ptr [esp+10h]
  10007F17: 33 F6              xor         esi,esi
  10007F19: 85 C0              test        eax,eax
  10007F1B: 76 1D              jbe         10007F3A
  10007F1D: 8D 49 00           lea         ecx,[ecx]
  10007F20: 83 3C B3 00        cmp         dword ptr [ebx+esi*4],0
  10007F24: 75 0D              jne         10007F33
  10007F26: FF 15 24 90 00 10  call        dword ptr ds:[10009024h]
  10007F2C: 89 04 B3           mov         dword ptr [ebx+esi*4],eax
  10007F2F: 8B 44 24 10        mov         eax,dword ptr [esp+10h]
  10007F33: 83 C6 01           add         esi,1
  10007F36: 3B F0              cmp         esi,eax
  10007F38: 72 E6              jb          10007F20
  10007F3A: 85 ED              test        ebp,ebp
  10007F3C: 8B 4C 24 0C        mov         ecx,dword ptr [esp+0Ch]
  10007F40: 89 07              mov         dword ptr [edi],eax
  10007F42: 89 4F 04           mov         dword ptr [edi+4],ecx
  10007F45: 8D 47 08           lea         eax,[edi+8]
  10007F48: 76 13              jbe         10007F5D
  10007F4A: 8B CB              mov         ecx,ebx
  10007F4C: 2B C8              sub         ecx,eax
  10007F4E: 8B F5              mov         esi,ebp
  10007F50: 8A 14 01           mov         dl,byte ptr [ecx+eax]
  10007F53: 88 10              mov         byte ptr [eax],dl
  10007F55: 83 C0 01           add         eax,1
  10007F58: 83 EE 01           sub         esi,1
  10007F5B: 75 F3              jne         10007F50
  10007F5D: 5D                 pop         ebp
  10007F5E: 33 C0              xor         eax,eax
  10007F60: 5E                 pop         esi
  10007F61: C2 08 00           ret         8
  10007F64: B8 EF 00 00 C0     mov         eax,0C00000EFh
  10007F69: 5E                 pop         esi
  10007F6A: C2 08 00           ret         8
  10007F6D: CC                 int         3
  10007F6E: CC                 int         3
  10007F6F: CC                 int         3
  10007F70: 8B 44 24 08        mov         eax,dword ptr [esp+8]
  10007F74: 53                 push        ebx
  10007F75: 8B 5C 24 08        mov         ebx,dword ptr [esp+8]
  10007F79: 57                 push        edi
  10007F7A: 50                 push        eax
  10007F7B: 6A 01              push        1
  10007F7D: BF 70 D3 00 10     mov         edi,1000D370h
  10007F82: E8 29 FF FF FF     call        10007EB0
  10007F87: 5F                 pop         edi
  10007F88: 5B                 pop         ebx
  10007F89: C2 08 00           ret         8
  10007F8C: CC                 int         3
  10007F8D: CC                 int         3
  10007F8E: CC                 int         3
  10007F8F: CC                 int         3
  10007F90: 8B 44 24 08        mov         eax,dword ptr [esp+8]
  10007F94: 53                 push        ebx
  10007F95: 8B 5C 24 08        mov         ebx,dword ptr [esp+8]
  10007F99: 57                 push        edi
  10007F9A: 50                 push        eax
  10007F9B: 6A 00              push        0
  10007F9D: BF 70 D3 00 10     mov         edi,1000D370h
  10007FA2: E8 09 FF FF FF     call        10007EB0
  10007FA7: 5F                 pop         edi
  10007FA8: 5B                 pop         ebx
  10007FA9: C2 08 00           ret         8
  10007FAC: CC                 int         3
  10007FAD: CC                 int         3
  10007FAE: CC                 int         3
  10007FAF: CC                 int         3
  10007FB0: 56                 push        esi
  10007FB1: 8B 74 24 10        mov         esi,dword ptr [esp+10h]
  10007FB5: 8D 44 24 10        lea         eax,[esp+10h]
  10007FB9: 50                 push        eax
  10007FBA: E8 C1 DF FF FF     call        10005F80
  10007FBF: 85 C0              test        eax,eax
  10007FC1: 5E                 pop         esi
  10007FC2: 75 08              jne         10007FCC
  10007FC4: B8 F1 00 00 C0     mov         eax,0C00000F1h
  10007FC9: C2 0C 00           ret         0Ch
  10007FCC: 8B 4C 24 08        mov         ecx,dword ptr [esp+8]
  10007FD0: 53                 push        ebx
  10007FD1: 8B 5C 24 08        mov         ebx,dword ptr [esp+8]
  10007FD5: 57                 push        edi
  10007FD6: 8B 7C 24 14        mov         edi,dword ptr [esp+14h]
  10007FDA: 51                 push        ecx
  10007FDB: 6A 01              push        1
  10007FDD: 83 C7 3C           add         edi,3Ch
  10007FE0: E8 CB FE FF FF     call        10007EB0
  10007FE5: 5F                 pop         edi
  10007FE6: 5B                 pop         ebx
  10007FE7: C2 0C 00           ret         0Ch
  10007FEA: CC                 int         3
  10007FEB: CC                 int         3
  10007FEC: CC                 int         3
  10007FED: CC                 int         3
  10007FEE: CC                 int         3
  10007FEF: CC                 int         3
  10007FF0: 56                 push        esi
  10007FF1: 8B 74 24 10        mov         esi,dword ptr [esp+10h]
  10007FF5: 8D 44 24 10        lea         eax,[esp+10h]
  10007FF9: 50                 push        eax
  10007FFA: E8 81 DF FF FF     call        10005F80
  10007FFF: 85 C0              test        eax,eax
  10008001: 5E                 pop         esi
  10008002: 75 08              jne         1000800C
  10008004: B8 F1 00 00 C0     mov         eax,0C00000F1h
  10008009: C2 0C 00           ret         0Ch
  1000800C: 8B 4C 24 08        mov         ecx,dword ptr [esp+8]
  10008010: 53                 push        ebx
  10008011: 8B 5C 24 08        mov         ebx,dword ptr [esp+8]
  10008015: 57                 push        edi
  10008016: 8B 7C 24 14        mov         edi,dword ptr [esp+14h]
  1000801A: 51                 push        ecx
  1000801B: 6A 00              push        0
  1000801D: 83 C7 3C           add         edi,3Ch
  10008020: E8 8B FE FF FF     call        10007EB0
  10008025: 5F                 pop         edi
  10008026: 5B                 pop         ebx
  10008027: C2 0C 00           ret         0Ch
  1000802A: CC                 int         3
  1000802B: CC                 int         3
  1000802C: CC                 int         3
  1000802D: CC                 int         3
  1000802E: CC                 int         3
  1000802F: CC                 int         3
  10008030: 53                 push        ebx
  10008031: 8B 1D D4 90 00 10  mov         ebx,dword ptr ds:[100090D4h]
  10008037: 55                 push        ebp
  10008038: 8B 2D D8 90 00 10  mov         ebp,dword ptr ds:[100090D8h]
  1000803E: 56                 push        esi
  1000803F: 57                 push        edi
  10008040: 33 FF              xor         edi,edi
  10008042: 68 54 D3 00 10     push        1000D354h
  10008047: FF 15 DC 90 00 10  call        dword ptr ds:[100090DCh]
  1000804D: 39 3D 6C D3 00 10  cmp         dword ptr ds:[1000D36Ch],edi
  10008053: 74 0C              je          10008061
  10008055: 68 D4 BC 00 10     push        1000BCD4h
  1000805A: 57                 push        edi
  1000805B: FF 15 B8 90 00 10  call        dword ptr ds:[100090B8h]
  10008061: 8B 35 98 F1 00 10  mov         esi,dword ptr ds:[1000F198h]
  10008067: 3B F7              cmp         esi,edi
  10008069: C7 05 6C D3 00 10  mov         dword ptr ds:[1000D36Ch],1
            01 00 00 00
  10008073: 68 54 D3 00 10     push        1000D354h
  10008078: 74 58              je          100080D2
  1000807A: 8B 06              mov         eax,dword ptr [esi]
  1000807C: A3 98 F1 00 10     mov         dword ptr ds:[1000F198h],eax
  10008081: 89 3D 6C D3 00 10  mov         dword ptr ds:[1000D36Ch],edi
  10008087: FF D5              call        ebp
  10008089: 8B 46 08           mov         eax,dword ptr [esi+8]
  1000808C: 8B 4E 20           mov         ecx,dword ptr [esi+20h]
  1000808F: 3B 08              cmp         ecx,dword ptr [eax]
  10008091: 75 AF              jne         10008042
  10008093: 8B 56 24           mov         edx,dword ptr [esi+24h]
  10008096: 3B 50 04           cmp         edx,dword ptr [eax+4]
  10008099: 75 A7              jne         10008042
  1000809B: 8B 4E 10           mov         ecx,dword ptr [esi+10h]
  1000809E: 89 08              mov         dword ptr [eax],ecx
  100080A0: 8B 56 14           mov         edx,dword ptr [esi+14h]
  100080A3: 89 50 04           mov         dword ptr [eax+4],edx
  100080A6: 8B 86 60 02 00 00  mov         eax,dword ptr [esi+00000260h]
  100080AC: 39 38              cmp         dword ptr [eax],edi
  100080AE: 7E 0E              jle         100080BE
  100080B0: 6A 64              push        64h
  100080B2: FF D3              call        ebx
  100080B4: 8B 8E 60 02 00 00  mov         ecx,dword ptr [esi+00000260h]
  100080BA: 39 39              cmp         dword ptr [ecx],edi
  100080BC: 7F F2              jg          100080B0
  100080BE: 8B 15 74 F6 00 10  mov         edx,dword ptr ds:[1000F674h]
  100080C4: 56                 push        esi
  100080C5: 57                 push        edi
  100080C6: 52                 push        edx
  100080C7: FF 15 C8 90 00 10  call        dword ptr ds:[100090C8h]
  100080CD: E9 70 FF FF FF     jmp         10008042
  100080D2: 89 3D 6C D3 00 10  mov         dword ptr ds:[1000D36Ch],edi
  100080D8: FF D5              call        ebp
  100080DA: 89 3D B8 F6 00 10  mov         dword ptr ds:[1000F6B8h],edi
  100080E0: 5F                 pop         edi
  100080E1: 5E                 pop         esi
  100080E2: 5D                 pop         ebp
  100080E3: C7 05 08 D0 00 10  mov         dword ptr ds:[1000D008h],100091F0h
            F0 91 00 10
  100080ED: 33 C0              xor         eax,eax
  100080EF: 5B                 pop         ebx
  100080F0: C3                 ret
  100080F1: CC                 int         3
  100080F2: CC                 int         3
  100080F3: CC                 int         3
  100080F4: CC                 int         3
  100080F5: CC                 int         3
  100080F6: CC                 int         3
  100080F7: CC                 int         3
  100080F8: CC                 int         3
  100080F9: CC                 int         3
  100080FA: CC                 int         3
  100080FB: CC                 int         3
  100080FC: CC                 int         3
  100080FD: CC                 int         3
  100080FE: CC                 int         3
  100080FF: CC                 int         3
  10008100: 55                 push        ebp
  10008101: 68 54 D3 00 10     push        1000D354h
  10008106: FF 15 DC 90 00 10  call        dword ptr ds:[100090DCh]
  1000810C: 33 ED              xor         ebp,ebp
  1000810E: 39 2D 6C D3 00 10  cmp         dword ptr ds:[1000D36Ch],ebp
  10008114: 74 0C              je          10008122
  10008116: 68 D4 BC 00 10     push        1000BCD4h
  1000811B: 55                 push        ebp
  1000811C: FF 15 B8 90 00 10  call        dword ptr ds:[100090B8h]
  10008122: 53                 push        ebx
  10008123: 8B 1D 00 F4 00 10  mov         ebx,dword ptr ds:[1000F400h]
  10008129: 3B DD              cmp         ebx,ebp
  1000812B: C7 05 6C D3 00 10  mov         dword ptr ds:[1000D36Ch],1
            01 00 00 00
  10008135: 0F 84 C2 00 00 00  je          100081FD
  1000813B: 56                 push        esi
  1000813C: 57                 push        edi
  1000813D: 8D 49 00           lea         ecx,[ecx]
  10008140: 8B FB              mov         edi,ebx
  10008142: 8B B7 48 02 00 00  mov         esi,dword ptr [edi+00000248h]
  10008148: 3B F5              cmp         esi,ebp
  1000814A: 8B 1B              mov         ebx,dword ptr [ebx]
  1000814C: 0F 84 8D 00 00 00  je          100081DF
  10008152: 83 FE FF           cmp         esi,0FFFFFFFFh
  10008155: 0F 84 84 00 00 00  je          100081DF
  1000815B: 6A 04              push        4
  1000815D: 56                 push        esi
  1000815E: FF 15 CC 90 00 10  call        dword ptr ds:[100090CCh]
  10008164: 85 C0              test        eax,eax
  10008166: 74 0C              je          10008174
  10008168: 68 D4 BC 00 10     push        1000BCD4h
  1000816D: 55                 push        ebp
  1000816E: FF 15 B8 90 00 10  call        dword ptr ds:[100090B8h]
  10008174: 8B 06              mov         eax,dword ptr [esi]
  10008176: 3B C5              cmp         eax,ebp
  10008178: 74 65              je          100081DF
  1000817A: 83 F8 FF           cmp         eax,0FFFFFFFFh
  1000817D: 74 60              je          100081DF
  1000817F: 68 68 02 00 00     push        268h
  10008184: 50                 push        eax
  10008185: FF 15 CC 90 00 10  call        dword ptr ds:[100090CCh]
  1000818B: 85 C0              test        eax,eax
  1000818D: 74 0C              je          1000819B
  1000818F: 68 D4 BC 00 10     push        1000BCD4h
  10008194: 55                 push        ebp
  10008195: FF 15 B8 90 00 10  call        dword ptr ds:[100090B8h]
  1000819B: 8B 06              mov         eax,dword ptr [esi]
  1000819D: 81 B8 44 02 00 00  cmp         dword ptr [eax+00000244h],6A910BE2h
            E2 0B 91 6A
  100081A7: 75 36              jne         100081DF
  100081A9: 3B C5              cmp         eax,ebp
  100081AB: 8B 48 04           mov         ecx,dword ptr [eax+4]
  100081AE: 74 2F              je          100081DF
  100081B0: 83 F8 FF           cmp         eax,0FFFFFFFFh
  100081B3: 74 2A              je          100081DF
  100081B5: 51                 push        ecx
  100081B6: 50                 push        eax
  100081B7: FF 15 CC 90 00 10  call        dword ptr ds:[100090CCh]
  100081BD: 85 C0              test        eax,eax
  100081BF: 74 0C              je          100081CD
  100081C1: 68 D4 BC 00 10     push        1000BCD4h
  100081C6: 55                 push        ebp
  100081C7: FF 15 B8 90 00 10  call        dword ptr ds:[100090B8h]
  100081CD: 8B 06              mov         eax,dword ptr [esi]
  100081CF: 39 A8 58 02 00 00  cmp         dword ptr [eax+00000258h],ebp
  100081D5: 74 08              je          100081DF
  100081D7: 8B 8F 48 02 00 00  mov         ecx,dword ptr [edi+00000248h]
  100081DD: 89 29              mov         dword ptr [ecx],ebp
  100081DF: 3B DD              cmp         ebx,ebp
  100081E1: 89 AF 58 02 00 00  mov         dword ptr [edi+00000258h],ebp
  100081E7: 8B 15 98 F1 00 10  mov         edx,dword ptr ds:[1000F198h]
  100081ED: 89 17              mov         dword ptr [edi],edx
  100081EF: 89 3D 98 F1 00 10  mov         dword ptr ds:[1000F198h],edi
  100081F5: 0F 85 45 FF FF FF  jne         10008140
  100081FB: 5F                 pop         edi
  100081FC: 5E                 pop         esi
  100081FD: 39 2D 6C D3 00 10  cmp         dword ptr ds:[1000D36Ch],ebp
  10008203: 89 2D 00 F4 00 10  mov         dword ptr ds:[1000F400h],ebp
  10008209: 5B                 pop         ebx
  1000820A: 75 0C              jne         10008218
  1000820C: 68 D4 BC 00 10     push        1000BCD4h
  10008211: 55                 push        ebp
  10008212: FF 15 B8 90 00 10  call        dword ptr ds:[100090B8h]
  10008218: 68 54 D3 00 10     push        1000D354h
  1000821D: 89 2D 6C D3 00 10  mov         dword ptr ds:[1000D36Ch],ebp
  10008223: FF 15 D8 90 00 10  call        dword ptr ds:[100090D8h]
  10008229: 89 2D B8 F6 00 10  mov         dword ptr ds:[1000F6B8h],ebp
  1000822F: C7 05 08 D0 00 10  mov         dword ptr ds:[1000D008h],100091F0h
            F0 91 00 10
  10008239: 33 C0              xor         eax,eax
  1000823B: 5D                 pop         ebp
  1000823C: C3                 ret
  1000823D: CC                 int         3
  1000823E: CC                 int         3
  1000823F: CC                 int         3
  10008240: 51                 push        ecx
  10008241: 56                 push        esi
  10008242: 8B 74 24 0C        mov         esi,dword ptr [esp+0Ch]
  10008246: 57                 push        edi
  10008247: 33 FF              xor         edi,edi
  10008249: 3B F7              cmp         esi,edi
  1000824B: 89 7C 24 08        mov         dword ptr [esp+8],edi
  1000824F: 0F 84 CE 00 00 00  je          10008323
  10008255: 83 FE FF           cmp         esi,0FFFFFFFFh
  10008258: 0F 84 C5 00 00 00  je          10008323
  1000825E: 53                 push        ebx
  1000825F: 6A 04              push        4
  10008261: 56                 push        esi
  10008262: FF 15 CC 90 00 10  call        dword ptr ds:[100090CCh]
  10008268: 85 C0              test        eax,eax
  1000826A: 8B 1D B8 90 00 10  mov         ebx,dword ptr ds:[100090B8h]
  10008270: 74 08              je          1000827A
  10008272: 68 D4 BC 00 10     push        1000BCD4h
  10008277: 57                 push        edi
  10008278: FF D3              call        ebx
  1000827A: 68 54 D3 00 10     push        1000D354h
  1000827F: FF 15 DC 90 00 10  call        dword ptr ds:[100090DCh]
  10008285: 39 3D 6C D3 00 10  cmp         dword ptr ds:[1000D36Ch],edi
  1000828B: 74 08              je          10008295
  1000828D: 68 D4 BC 00 10     push        1000BCD4h
  10008292: 57                 push        edi
  10008293: FF D3              call        ebx
  10008295: C7 05 6C D3 00 10  mov         dword ptr ds:[1000D36Ch],1
            01 00 00 00
  1000829F: 39 3E              cmp         dword ptr [esi],edi
  100082A1: 74 5E              je          10008301
  100082A3: 8D 44 24 0C        lea         eax,[esp+0Ch]
  100082A7: 50                 push        eax
  100082A8: E8 D3 DC FF FF     call        10005F80
  100082AD: 85 C0              test        eax,eax
  100082AF: 74 40              je          100082F1
  100082B1: 8B 4C 24 0C        mov         ecx,dword ptr [esp+0Ch]
  100082B5: 89 3E              mov         dword ptr [esi],edi
  100082B7: 39 B9 58 02 00 00  cmp         dword ptr [ecx+00000258h],edi
  100082BD: 74 32              je          100082F1
  100082BF: 89 B9 58 02 00 00  mov         dword ptr [ecx+00000258h],edi
  100082C5: A1 00 F4 00 10     mov         eax,dword ptr ds:[1000F400h]
  100082CA: 3B C7              cmp         eax,edi
  100082CC: 74 16              je          100082E4
  100082CE: 8B FF              mov         edi,edi
  100082D0: 3B C1              cmp         eax,ecx
  100082D2: 74 08              je          100082DC
  100082D4: 8B 00              mov         eax,dword ptr [eax]
  100082D6: 3B C7              cmp         eax,edi
  100082D8: 75 F6              jne         100082D0
  100082DA: EB 08              jmp         100082E4
  100082DC: 8B 11              mov         edx,dword ptr [ecx]
  100082DE: 89 15 00 F4 00 10  mov         dword ptr ds:[1000F400h],edx
  100082E4: A1 98 F1 00 10     mov         eax,dword ptr ds:[1000F198h]
  100082E9: 89 01              mov         dword ptr [ecx],eax
  100082EB: 89 0D 98 F1 00 10  mov         dword ptr ds:[1000F198h],ecx
  100082F1: 39 3D 6C D3 00 10  cmp         dword ptr ds:[1000D36Ch],edi
  100082F7: 75 08              jne         10008301
  100082F9: 68 D4 BC 00 10     push        1000BCD4h
  100082FE: 57                 push        edi
  100082FF: FF D3              call        ebx
  10008301: 68 54 D3 00 10     push        1000D354h
  10008306: 89 3D 6C D3 00 10  mov         dword ptr ds:[1000D36Ch],edi
  1000830C: FF 15 D8 90 00 10  call        dword ptr ds:[100090D8h]
  10008312: C7 05 08 D0 00 10  mov         dword ptr ds:[1000D008h],100091F0h
            F0 91 00 10
  1000831C: 89 3D B8 F6 00 10  mov         dword ptr ds:[1000F6B8h],edi
  10008322: 5B                 pop         ebx
  10008323: 5F                 pop         edi
  10008324: 33 C0              xor         eax,eax
  10008326: 5E                 pop         esi
  10008327: 59                 pop         ecx
  10008328: C2 04 00           ret         4
  1000832B: CC                 int         3
  1000832C: CC                 int         3
  1000832D: CC                 int         3
  1000832E: CC                 int         3
  1000832F: CC                 int         3
  10008330: E8 CB FD FF FF     call        10008100
  10008335: E8 F6 FC FF FF     call        10008030
  1000833A: 83 3D 6C D3 00 10  cmp         dword ptr ds:[1000D36Ch],0
            00
  10008341: 74 0D              je          10008350
  10008343: 68 D4 BC 00 10     push        1000BCD4h
  10008348: 6A 00              push        0
  1000834A: FF 15 B8 90 00 10  call        dword ptr ds:[100090B8h]
  10008350: 68 54 D3 00 10     push        1000D354h
  10008355: FF 15 E4 90 00 10  call        dword ptr ds:[100090E4h]
  1000835B: C3                 ret
  1000835C: CC                 int         3
  1000835D: CC                 int         3
  1000835E: CC                 int         3
  1000835F: CC                 int         3
  10008360: 8B 44 24 08        mov         eax,dword ptr [esp+8]
  10008364: 83 E8 00           sub         eax,0
  10008367: 56                 push        esi
  10008368: 0F 84 85 00 00 00  je          100083F3
  1000836E: 83 E8 01           sub         eax,1
  10008371: 74 17              je          1000838A
  10008373: 83 E8 02           sub         eax,2
  10008376: 0F 85 FB 00 00 00  jne         10008477
  1000837C: E8 DF EF FF FF     call        10007360
  10008381: B8 01 00 00 00     mov         eax,1
  10008386: 5E                 pop         esi
  10008387: C2 0C 00           ret         0Ch
  1000838A: 8B 44 24 08        mov         eax,dword ptr [esp+8]
  1000838E: 8B 35 08 91 00 10  mov         esi,dword ptr ds:[10009108h]
  10008394: 68 D4 91 00 10     push        100091D4h
  10008399: A3 70 F6 00 10     mov         dword ptr ds:[1000F670h],eax
  1000839E: FF D6              call        esi
  100083A0: 85 C0              test        eax,eax
  100083A2: A3 68 F6 00 10     mov         dword ptr ds:[1000F668h],eax
  100083A7: 74 44              je          100083ED
  100083A9: 68 E0 91 00 10     push        100091E0h
  100083AE: FF D6              call        esi
  100083B0: 85 C0              test        eax,eax
  100083B2: A3 6C F6 00 10     mov         dword ptr ds:[1000F66Ch],eax
  100083B7: 74 34              je          100083ED
  100083B9: 6A 00              push        0
  100083BB: 6A 00              push        0
  100083BD: 6A 00              push        0
  100083BF: FF 15 0C 91 00 10  call        dword ptr ds:[1000910Ch]
  100083C5: A3 74 F6 00 10     mov         dword ptr ds:[1000F674h],eax
  100083CA: E8 31 E1 FF FF     call        10006500
  100083CF: E8 DC E5 FF FF     call        100069B0
  100083D4: E8 07 DB FF FF     call        10005EE0
  100083D9: FF 15 90 90 00 10  call        dword ptr ds:[10009090h]
  100083DF: 83 F8 FF           cmp         eax,0FFFFFFFFh
  100083E2: A3 50 D3 00 10     mov         dword ptr ds:[1000D350h],eax
  100083E7: 0F 85 8A 00 00 00  jne         10008477
  100083ED: 33 C0              xor         eax,eax
  100083EF: 5E                 pop         esi
  100083F0: C2 0C 00           ret         0Ch
  100083F3: 8B 0D 50 D3 00 10  mov         ecx,dword ptr ds:[1000D350h]
  100083F9: 51                 push        ecx
  100083FA: FF 15 20 90 00 10  call        dword ptr ds:[10009020h]
  10008400: E8 FB FC FF FF     call        10008100
  10008405: E8 26 FC FF FF     call        10008030
  1000840A: 83 3D 6C D3 00 10  cmp         dword ptr ds:[1000D36Ch],0
            00
  10008411: 74 0D              je          10008420
  10008413: 68 D4 BC 00 10     push        1000BCD4h
  10008418: 6A 00              push        0
  1000841A: FF 15 B8 90 00 10  call        dword ptr ds:[100090B8h]
  10008420: 68 54 D3 00 10     push        1000D354h
  10008425: FF 15 E4 90 00 10  call        dword ptr ds:[100090E4h]
  1000842B: E8 20 F6 FF FF     call        10007A50
  10008430: E8 7B E6 FF FF     call        10006AB0
  10008435: 8B 15 74 F6 00 10  mov         edx,dword ptr ds:[1000F674h]
  1000843B: 52                 push        edx
  1000843C: C7 05 90 F6 00 10  mov         dword ptr ds:[1000F690h],0
            00 00 00 00
  10008446: C7 05 94 F6 00 10  mov         dword ptr ds:[1000F694h],0
            00 00 00 00
  10008450: C7 05 8C F6 00 10  mov         dword ptr ds:[1000F68Ch],0
            00 00 00 00
  1000845A: FF 15 10 91 00 10  call        dword ptr ds:[10009110h]
  10008460: A1 68 F6 00 10     mov         eax,dword ptr ds:[1000F668h]
  10008465: 8B 35 14 91 00 10  mov         esi,dword ptr ds:[10009114h]
  1000846B: 50                 push        eax
  1000846C: FF D6              call        esi
  1000846E: 8B 0D 6C F6 00 10  mov         ecx,dword ptr ds:[1000F66Ch]
  10008474: 51                 push        ecx
  10008475: FF D6              call        esi
  10008477: B8 01 00 00 00     mov         eax,1
  1000847C: 5E                 pop         esi
  1000847D: C2 0C 00           ret         0Ch

  Summary

        1000 .CRT
        3000 .data
        4000 .rdata
        1000 .reloc
        1000 .rsrc
        8000 .text
