Microsoft (R) COFF/PE Dumper Version 14.28.29913.0
Copyright (C) Microsoft Corporation.  All rights reserved.


Dump of file .\emitter_Win32.dll

File Type: DLL

  10001000: C7 01 88 FD 00 10  mov         dword ptr [ecx],1000FD88h
  10001006: FF 25 A0 60 00 10  jmp         dword ptr ds:[100060A0h]
  1000100C: CC                 int         3
  1000100D: CC                 int         3
  1000100E: CC                 int         3
  1000100F: CC                 int         3
  10001010: 56                 push        esi
  10001011: 8B F1              mov         esi,ecx
  10001013: C7 06 88 FD 00 10  mov         dword ptr [esi],1000FD88h
  10001019: FF 15 A0 60 00 10  call        dword ptr ds:[100060A0h]
  1000101F: F6 44 24 08 01     test        byte ptr [esp+8],1
  10001024: 74 0A              je          10001030
  10001026: 56                 push        esi
  10001027: FF 15 8C 60 00 10  call        dword ptr ds:[1000608Ch]
  1000102D: 83 C4 04           add         esp,4
  10001030: 8B C6              mov         eax,esi
  10001032: 5E                 pop         esi
  10001033: C2 04 00           ret         4
  10001036: CC                 int         3
  10001037: CC                 int         3
  10001038: CC                 int         3
  10001039: CC                 int         3
  1000103A: CC                 int         3
  1000103B: CC                 int         3
  1000103C: CC                 int         3
  1000103D: CC                 int         3
  1000103E: CC                 int         3
  1000103F: CC                 int         3
  10001040: 8B C1              mov         eax,ecx
  10001042: 8B 4C 24 04        mov         ecx,dword ptr [esp+4]
  10001046: 8B 11              mov         edx,dword ptr [ecx]
  10001048: 89 10              mov         dword ptr [eax],edx
  1000104A: 8B 51 04           mov         edx,dword ptr [ecx+4]
  1000104D: 89 50 04           mov         dword ptr [eax+4],edx
  10001050: 8B 51 08           mov         edx,dword ptr [ecx+8]
  10001053: 89 50 08           mov         dword ptr [eax+8],edx
  10001056: 8B 49 0C           mov         ecx,dword ptr [ecx+0Ch]
  10001059: 89 48 0C           mov         dword ptr [eax+0Ch],ecx
  1000105C: C2 04 00           ret         4
  1000105F: CC                 int         3
  10001060: 8B C1              mov         eax,ecx
  10001062: 8B 4C 24 04        mov         ecx,dword ptr [esp+4]
  10001066: 8B 11              mov         edx,dword ptr [ecx]
  10001068: 89 10              mov         dword ptr [eax],edx
  1000106A: C2 04 00           ret         4
  1000106D: CC                 int         3
  1000106E: CC                 int         3
  1000106F: CC                 int         3
  10001070: 8B C1              mov         eax,ecx
  10001072: 8B 4C 24 04        mov         ecx,dword ptr [esp+4]
  10001076: 89 08              mov         dword ptr [eax],ecx
  10001078: C2 04 00           ret         4
  1000107B: CC                 int         3
  1000107C: CC                 int         3
  1000107D: CC                 int         3
  1000107E: CC                 int         3
  1000107F: CC                 int         3
  10001080: 8B C1              mov         eax,ecx
  10001082: C2 04 00           ret         4
  10001085: CC                 int         3
  10001086: CC                 int         3
  10001087: CC                 int         3
  10001088: CC                 int         3
  10001089: CC                 int         3
  1000108A: CC                 int         3
  1000108B: CC                 int         3
  1000108C: CC                 int         3
  1000108D: CC                 int         3
  1000108E: CC                 int         3
  1000108F: CC                 int         3
  10001090: 56                 push        esi
  10001091: 8B 74 24 08        mov         esi,dword ptr [esp+8]
  10001095: 57                 push        edi
  10001096: 8B C1              mov         eax,ecx
  10001098: B9 08 00 00 00     mov         ecx,8
  1000109D: 8B F8              mov         edi,eax
  1000109F: F3 A5              rep movs    dword ptr es:[edi],dword ptr [esi]
  100010A1: 5F                 pop         edi
  100010A2: 5E                 pop         esi
  100010A3: C2 04 00           ret         4
  100010A6: CC                 int         3
  100010A7: CC                 int         3
  100010A8: CC                 int         3
  100010A9: CC                 int         3
  100010AA: CC                 int         3
  100010AB: CC                 int         3
  100010AC: CC                 int         3
  100010AD: CC                 int         3
  100010AE: CC                 int         3
  100010AF: CC                 int         3
  100010B0: 8B 44 24 04        mov         eax,dword ptr [esp+4]
  100010B4: 8B 08              mov         ecx,dword ptr [eax]
  100010B6: 8B 40 04           mov         eax,dword ptr [eax+4]
  100010B9: 55                 push        ebp
  100010BA: 8B 6C 24 0C        mov         ebp,dword ptr [esp+0Ch]
  100010BE: 2B C1              sub         eax,ecx
  100010C0: 57                 push        edi
  100010C1: C1 F8 03           sar         eax,3
  100010C4: 33 FF              xor         edi,edi
  100010C6: 85 C0              test        eax,eax
  100010C8: 74 7F              je          10001149
  100010CA: 53                 push        ebx
  100010CB: 56                 push        esi
  100010CC: 8D 64 24 00        lea         esp,[esp]
  100010D0: 8B 44 F9 04        mov         eax,dword ptr [ecx+edi*8+4]
  100010D4: 8B 1C F9           mov         ebx,dword ptr [ecx+edi*8]
  100010D7: 8D 54 F9 04        lea         edx,[ecx+edi*8+4]
  100010DB: 8B F0              mov         esi,eax
  100010DD: 81 E6 FF FF FF 0F  and         esi,0FFFFFFFh
  100010E3: C1 E8 1C           shr         eax,1Ch
  100010E6: 03 F5              add         esi,ebp
  100010E8: 2B D8              sub         ebx,eax
  100010EA: 2B DE              sub         ebx,esi
  100010EC: 83 F8 01           cmp         eax,1
  100010EF: 75 2D              jne         1000111E
  100010F1: 8B C3              mov         eax,ebx
  100010F3: 83 E0 80           and         eax,0FFFFFF80h
  100010F6: 83 F8 80           cmp         eax,0FFFFFF80h
  100010F9: 74 1F              je          1000111A
  100010FB: 85 C0              test        eax,eax
  100010FD: 74 1B              je          1000111A
  100010FF: 6A 78              push        78h
  10001101: 68 E4 FB 00 10     push        1000FBE4h
  10001106: 68 F4 FB 00 10     push        1000FBF4h
  1000110B: 68 10 FC 00 10     push        1000FC10h
  10001110: FF 15 90 60 00 10  call        dword ptr ds:[10006090h]
  10001116: 83 C4 10           add         esp,10h
  10001119: CC                 int         3
  1000111A: 88 1E              mov         byte ptr [esi],bl
  1000111C: EB 16              jmp         10001134
  1000111E: 8B 12              mov         edx,dword ptr [edx]
  10001120: C1 EA 1C           shr         edx,1Ch
  10001123: 83 FA 02           cmp         edx,2
  10001126: 75 05              jne         1000112D
  10001128: 66 89 1E           mov         word ptr [esi],bx
  1000112B: EB 07              jmp         10001134
  1000112D: 83 FA 04           cmp         edx,4
  10001130: 75 02              jne         10001134
  10001132: 89 1E              mov         dword ptr [esi],ebx
  10001134: 8B 44 24 14        mov         eax,dword ptr [esp+14h]
  10001138: 8B 08              mov         ecx,dword ptr [eax]
  1000113A: 8B 50 04           mov         edx,dword ptr [eax+4]
  1000113D: 2B D1              sub         edx,ecx
  1000113F: 47                 inc         edi
  10001140: C1 FA 03           sar         edx,3
  10001143: 3B FA              cmp         edi,edx
  10001145: 72 89              jb          100010D0
  10001147: 5E                 pop         esi
  10001148: 5B                 pop         ebx
  10001149: 5F                 pop         edi
  1000114A: 5D                 pop         ebp
  1000114B: C2 08 00           ret         8
  1000114E: CC                 int         3
  1000114F: CC                 int         3
  10001150: 55                 push        ebp
  10001151: 8B 6C 24 08        mov         ebp,dword ptr [esp+8]
  10001155: 81 FD FF FF FF 3F  cmp         ebp,3FFFFFFFh
  1000115B: 76 0B              jbe         10001168
  1000115D: 68 70 FD 00 10     push        1000FD70h
  10001162: FF 15 44 60 00 10  call        dword ptr ds:[10006044h]
  10001168: 8B 46 08           mov         eax,dword ptr [esi+8]
  1000116B: 2B 06              sub         eax,dword ptr [esi]
  1000116D: C1 F8 02           sar         eax,2
  10001170: 3B C5              cmp         eax,ebp
  10001172: 73 4D              jae         100011C1
  10001174: 53                 push        ebx
  10001175: 57                 push        edi
  10001176: 8B CD              mov         ecx,ebp
  10001178: E8 13 01 00 00     call        10001290
  1000117D: 8B 4E 04           mov         ecx,dword ptr [esi+4]
  10001180: 8B D8              mov         ebx,eax
  10001182: 8B 06              mov         eax,dword ptr [esi]
  10001184: 2B C8              sub         ecx,eax
  10001186: C1 F9 02           sar         ecx,2
  10001189: 03 C9              add         ecx,ecx
  1000118B: 03 C9              add         ecx,ecx
  1000118D: 51                 push        ecx
  1000118E: 50                 push        eax
  1000118F: 53                 push        ebx
  10001190: FF 15 94 60 00 10  call        dword ptr ds:[10006094h]
  10001196: 8B 06              mov         eax,dword ptr [esi]
  10001198: 8B 7E 04           mov         edi,dword ptr [esi+4]
  1000119B: 2B F8              sub         edi,eax
  1000119D: 83 C4 0C           add         esp,0Ch
  100011A0: C1 FF 02           sar         edi,2
  100011A3: 85 C0              test        eax,eax
  100011A5: 74 0A              je          100011B1
  100011A7: 50                 push        eax
  100011A8: FF 15 8C 60 00 10  call        dword ptr ds:[1000608Ch]
  100011AE: 83 C4 04           add         esp,4
  100011B1: 8D 04 BB           lea         eax,[ebx+edi*4]
  100011B4: 8D 14 AB           lea         edx,[ebx+ebp*4]
  100011B7: 5F                 pop         edi
  100011B8: 89 1E              mov         dword ptr [esi],ebx
  100011BA: 89 56 08           mov         dword ptr [esi+8],edx
  100011BD: 89 46 04           mov         dword ptr [esi+4],eax
  100011C0: 5B                 pop         ebx
  100011C1: 5D                 pop         ebp
  100011C2: C2 04 00           ret         4
  100011C5: CC                 int         3
  100011C6: CC                 int         3
  100011C7: CC                 int         3
  100011C8: CC                 int         3
  100011C9: CC                 int         3
  100011CA: CC                 int         3
  100011CB: CC                 int         3
  100011CC: CC                 int         3
  100011CD: CC                 int         3
  100011CE: CC                 int         3
  100011CF: CC                 int         3
  100011D0: 8B 41 04           mov         eax,dword ptr [ecx+4]
  100011D3: 56                 push        esi
  100011D4: 8B 31              mov         esi,dword ptr [ecx]
  100011D6: 2B C6              sub         eax,esi
  100011D8: C1 F8 03           sar         eax,3
  100011DB: 3D FE FF FF 1F     cmp         eax,1FFFFFFEh
  100011E0: 76 0B              jbe         100011ED
  100011E2: 68 70 FD 00 10     push        1000FD70h
  100011E7: FF 15 44 60 00 10  call        dword ptr ds:[10006044h]
  100011ED: 8B 51 08           mov         edx,dword ptr [ecx+8]
  100011F0: 2B D6              sub         edx,esi
  100011F2: 40                 inc         eax
  100011F3: C1 FA 03           sar         edx,3
  100011F6: 3B C2              cmp         eax,edx
  100011F8: 76 2D              jbe         10001227
  100011FA: 57                 push        edi
  100011FB: 8B F2              mov         esi,edx
  100011FD: D1 EE              shr         esi,1
  100011FF: BF FF FF FF 1F     mov         edi,1FFFFFFFh
  10001204: 2B FE              sub         edi,esi
  10001206: 3B FA              cmp         edi,edx
  10001208: 5F                 pop         edi
  10001209: 73 0F              jae         1000121A
  1000120B: 33 D2              xor         edx,edx
  1000120D: 3B D0              cmp         edx,eax
  1000120F: 0F 42 D0           cmovb       edx,eax
  10001212: 52                 push        edx
  10001213: E8 D8 00 00 00     call        100012F0
  10001218: 5E                 pop         esi
  10001219: C3                 ret
  1000121A: 03 D6              add         edx,esi
  1000121C: 3B D0              cmp         edx,eax
  1000121E: 0F 42 D0           cmovb       edx,eax
  10001221: 52                 push        edx
  10001222: E8 C9 00 00 00     call        100012F0
  10001227: 5E                 pop         esi
  10001228: C3                 ret
  10001229: CC                 int         3
  1000122A: CC                 int         3
  1000122B: CC                 int         3
  1000122C: CC                 int         3
  1000122D: CC                 int         3
  1000122E: CC                 int         3
  1000122F: CC                 int         3
  10001230: 56                 push        esi
  10001231: 8B F0              mov         esi,eax
  10001233: 8B 16              mov         edx,dword ptr [esi]
  10001235: 8B 46 04           mov         eax,dword ptr [esi+4]
  10001238: 2B C2              sub         eax,edx
  1000123A: C1 F8 02           sar         eax,2
  1000123D: 3D FE FF FF 3F     cmp         eax,3FFFFFFEh
  10001242: 76 0B              jbe         1000124F
  10001244: 68 70 FD 00 10     push        1000FD70h
  10001249: FF 15 44 60 00 10  call        dword ptr ds:[10006044h]
  1000124F: 8B 4E 08           mov         ecx,dword ptr [esi+8]
  10001252: 2B CA              sub         ecx,edx
  10001254: 40                 inc         eax
  10001255: C1 F9 02           sar         ecx,2
  10001258: 3B C1              cmp         eax,ecx
  1000125A: 76 2D              jbe         10001289
  1000125C: 57                 push        edi
  1000125D: 8B D1              mov         edx,ecx
  1000125F: D1 EA              shr         edx,1
  10001261: BF FF FF FF 3F     mov         edi,3FFFFFFFh
  10001266: 2B FA              sub         edi,edx
  10001268: 3B F9              cmp         edi,ecx
  1000126A: 5F                 pop         edi
  1000126B: 73 0F              jae         1000127C
  1000126D: 33 C9              xor         ecx,ecx
  1000126F: 3B C8              cmp         ecx,eax
  10001271: 0F 42 C8           cmovb       ecx,eax
  10001274: 51                 push        ecx
  10001275: E8 D6 FE FF FF     call        10001150
  1000127A: 5E                 pop         esi
  1000127B: C3                 ret
  1000127C: 03 CA              add         ecx,edx
  1000127E: 3B C8              cmp         ecx,eax
  10001280: 0F 42 C8           cmovb       ecx,eax
  10001283: 51                 push        ecx
  10001284: E8 C7 FE FF FF     call        10001150
  10001289: 5E                 pop         esi
  1000128A: C3                 ret
  1000128B: CC                 int         3
  1000128C: CC                 int         3
  1000128D: CC                 int         3
  1000128E: CC                 int         3
  1000128F: CC                 int         3
  10001290: 83 EC 10           sub         esp,10h
  10001293: 33 C0              xor         eax,eax
  10001295: 85 C9              test        ecx,ecx
  10001297: 74 4A              je          100012E3
  10001299: 81 F9 FF FF FF 3F  cmp         ecx,3FFFFFFFh
  1000129F: 77 15              ja          100012B6
  100012A1: 8D 04 8D 00 00 00  lea         eax,[ecx*4+00000000h]
            00
  100012A8: 50                 push        eax
  100012A9: FF 15 88 60 00 10  call        dword ptr ds:[10006088h]
  100012AF: 83 C4 04           add         esp,4
  100012B2: 85 C0              test        eax,eax
  100012B4: 75 2D              jne         100012E3
  100012B6: 8D 0C 24           lea         ecx,[esp]
  100012B9: 51                 push        ecx
  100012BA: 8D 4C 24 08        lea         ecx,[esp+8]
  100012BE: C7 44 24 04 00 00  mov         dword ptr [esp+4],0
            00 00
  100012C6: FF 15 9C 60 00 10  call        dword ptr ds:[1000609Ch]
  100012CC: 68 08 00 01 10     push        10010008h
  100012D1: 8D 54 24 08        lea         edx,[esp+8]
  100012D5: 52                 push        edx
  100012D6: C7 44 24 0C 88 FD  mov         dword ptr [esp+0Ch],1000FD88h
            00 10
  100012DE: E8 C1 41 00 00     call        100054A4
  100012E3: 83 C4 10           add         esp,10h
  100012E6: C3                 ret
  100012E7: CC                 int         3
  100012E8: CC                 int         3
  100012E9: CC                 int         3
  100012EA: CC                 int         3
  100012EB: CC                 int         3
  100012EC: CC                 int         3
  100012ED: CC                 int         3
  100012EE: CC                 int         3
  100012EF: CC                 int         3
  100012F0: 55                 push        ebp
  100012F1: 8B EC              mov         ebp,esp
  100012F3: 6A FF              push        0FFFFFFFFh
  100012F5: 68 C0 54 00 10     push        100054C0h
  100012FA: 64 A1 00 00 00 00  mov         eax,dword ptr fs:[00000000h]
  10001300: 50                 push        eax
  10001301: 64 89 25 00 00 00  mov         dword ptr fs:[00000000h],esp
            00
  10001308: 83 EC 08           sub         esp,8
  1000130B: 53                 push        ebx
  1000130C: 56                 push        esi
  1000130D: 8B F1              mov         esi,ecx
  1000130F: 8B 4D 08           mov         ecx,dword ptr [ebp+8]
  10001312: 57                 push        edi
  10001313: 89 65 F0           mov         dword ptr [ebp-10h],esp
  10001316: 81 F9 FF FF FF 1F  cmp         ecx,1FFFFFFFh
  1000131C: 76 0B              jbe         10001329
  1000131E: 68 70 FD 00 10     push        1000FD70h
  10001323: FF 15 44 60 00 10  call        dword ptr ds:[10006044h]
  10001329: 8B 46 08           mov         eax,dword ptr [esi+8]
  1000132C: 2B 06              sub         eax,dword ptr [esi]
  1000132E: C1 F8 03           sar         eax,3
  10001331: 3B C1              cmp         eax,ecx
  10001333: 73 4D              jae         10001382
  10001335: E8 76 00 00 00     call        100013B0
  1000133A: 8B D8              mov         ebx,eax
  1000133C: C7 45 FC 00 00 00  mov         dword ptr [ebp-4],0
            00
  10001343: 8B 45 08           mov         eax,dword ptr [ebp+8]
  10001346: 8B 56 04           mov         edx,dword ptr [esi+4]
  10001349: 8B 0E              mov         ecx,dword ptr [esi]
  1000134B: 50                 push        eax
  1000134C: 8B C3              mov         eax,ebx
  1000134E: 89 5D EC           mov         dword ptr [ebp-14h],ebx
  10001351: E8 BA 1F 00 00     call        10003310
  10001356: 8B 06              mov         eax,dword ptr [esi]
  10001358: 8B 7E 04           mov         edi,dword ptr [esi+4]
  1000135B: 2B F8              sub         edi,eax
  1000135D: 83 C4 04           add         esp,4
  10001360: C1 FF 03           sar         edi,3
  10001363: 85 C0              test        eax,eax
  10001365: 74 0A              je          10001371
  10001367: 50                 push        eax
  10001368: FF 15 8C 60 00 10  call        dword ptr ds:[1000608Ch]
  1000136E: 83 C4 04           add         esp,4
  10001371: 8B 4D 08           mov         ecx,dword ptr [ebp+8]
  10001374: 8D 14 CB           lea         edx,[ebx+ecx*8]
  10001377: 8D 04 FB           lea         eax,[ebx+edi*8]
  1000137A: 89 56 08           mov         dword ptr [esi+8],edx
  1000137D: 89 46 04           mov         dword ptr [esi+4],eax
  10001380: 89 1E              mov         dword ptr [esi],ebx
  10001382: 8B 4D F4           mov         ecx,dword ptr [ebp-0Ch]
  10001385: 5F                 pop         edi
  10001386: 5E                 pop         esi
  10001387: 64 89 0D 00 00 00  mov         dword ptr fs:[00000000h],ecx
            00
  1000138E: 5B                 pop         ebx
  1000138F: 8B E5              mov         esp,ebp
  10001391: 5D                 pop         ebp
  10001392: C2 04 00           ret         4
  10001395: 8B 4D EC           mov         ecx,dword ptr [ebp-14h]
  10001398: 51                 push        ecx
  10001399: FF 15 8C 60 00 10  call        dword ptr ds:[1000608Ch]
  1000139F: 83 C4 04           add         esp,4
  100013A2: 6A 00              push        0
  100013A4: 6A 00              push        0
  100013A6: E8 F9 40 00 00     call        100054A4
  100013AB: CC                 int         3
  100013AC: CC                 int         3
  100013AD: CC                 int         3
  100013AE: CC                 int         3
  100013AF: CC                 int         3
  100013B0: 83 EC 10           sub         esp,10h
  100013B3: 33 C0              xor         eax,eax
  100013B5: 85 C9              test        ecx,ecx
  100013B7: 74 4A              je          10001403
  100013B9: 81 F9 FF FF FF 1F  cmp         ecx,1FFFFFFFh
  100013BF: 77 15              ja          100013D6
  100013C1: 8D 04 CD 00 00 00  lea         eax,[ecx*8+00000000h]
            00
  100013C8: 50                 push        eax
  100013C9: FF 15 88 60 00 10  call        dword ptr ds:[10006088h]
  100013CF: 83 C4 04           add         esp,4
  100013D2: 85 C0              test        eax,eax
  100013D4: 75 2D              jne         10001403
  100013D6: 8D 0C 24           lea         ecx,[esp]
  100013D9: 51                 push        ecx
  100013DA: 8D 4C 24 08        lea         ecx,[esp+8]
  100013DE: C7 44 24 04 00 00  mov         dword ptr [esp+4],0
            00 00
  100013E6: FF 15 9C 60 00 10  call        dword ptr ds:[1000609Ch]
  100013EC: 68 08 00 01 10     push        10010008h
  100013F1: 8D 54 24 08        lea         edx,[esp+8]
  100013F5: 52                 push        edx
  100013F6: C7 44 24 0C 88 FD  mov         dword ptr [esp+0Ch],1000FD88h
            00 10
  100013FE: E8 A1 40 00 00     call        100054A4
  10001403: 83 C4 10           add         esp,10h
  10001406: C3                 ret
  10001407: CC                 int         3
  10001408: CC                 int         3
  10001409: CC                 int         3
  1000140A: CC                 int         3
  1000140B: CC                 int         3
  1000140C: CC                 int         3
  1000140D: CC                 int         3
  1000140E: CC                 int         3
  1000140F: CC                 int         3
  10001410: 53                 push        ebx
  10001411: 0F B6 5A 04        movzx       ebx,byte ptr [edx+4]
  10001415: 56                 push        esi
  10001416: 8B F1              mov         esi,ecx
  10001418: 8B 46 14           mov         eax,dword ptr [esi+14h]
  1000141B: 83 C0 0F           add         eax,0Fh
  1000141E: 39 46 18           cmp         dword ptr [esi+18h],eax
  10001421: 73 42              jae         10001465
  10001423: 80 7E 1C 00        cmp         byte ptr [esi+1Ch],0
  10001427: 75 1E              jne         10001447
  10001429: 68 00 01 00 00     push        100h
  1000142E: 68 E4 FB 00 10     push        1000FBE4h
  10001433: 68 58 FC 00 10     push        1000FC58h
  10001438: 68 78 FC 00 10     push        1000FC78h
  1000143D: FF 15 90 60 00 10  call        dword ptr ds:[10006090h]
  10001443: 83 C4 10           add         esp,10h
  10001446: CC                 int         3
  10001447: 8B 46 18           mov         eax,dword ptr [esi+18h]
  1000144A: 8B 56 04           mov         edx,dword ptr [esi+4]
  1000144D: 8D 8C 00 00 01 00  lea         ecx,[eax+eax+00000100h]
            00
  10001454: 51                 push        ecx
  10001455: 89 4E 18           mov         dword ptr [esi+18h],ecx
  10001458: 8B 4E 10           mov         ecx,dword ptr [esi+10h]
  1000145B: 50                 push        eax
  1000145C: 51                 push        ecx
  1000145D: FF D2              call        edx
  1000145F: 83 C4 0C           add         esp,0Ch
  10001462: 89 46 10           mov         dword ptr [esi+10h],eax
  10001465: 8B 4E 14           mov         ecx,dword ptr [esi+14h]
  10001468: 8B 46 10           mov         eax,dword ptr [esi+10h]
  1000146B: 88 1C 08           mov         byte ptr [eax+ecx],bl
  1000146E: FF 46 14           inc         dword ptr [esi+14h]
  10001471: 5E                 pop         esi
  10001472: 5B                 pop         ebx
  10001473: C2 0C 00           ret         0Ch
  10001476: CC                 int         3
  10001477: CC                 int         3
  10001478: CC                 int         3
  10001479: CC                 int         3
  1000147A: CC                 int         3
  1000147B: CC                 int         3
  1000147C: CC                 int         3
  1000147D: CC                 int         3
  1000147E: CC                 int         3
  1000147F: CC                 int         3
  10001480: 51                 push        ecx
  10001481: 53                 push        ebx
  10001482: 55                 push        ebp
  10001483: 8B 2D 90 60 00 10  mov         ebp,dword ptr ds:[10006090h]
  10001489: 56                 push        esi
  1000148A: 57                 push        edi
  1000148B: 89 54 24 10        mov         dword ptr [esp+10h],edx
  1000148F: 8B F1              mov         esi,ecx
  10001491: 33 FF              xor         edi,edi
  10001493: 8B 4E 14           mov         ecx,dword ptr [esi+14h]
  10001496: 8B 44 24 10        mov         eax,dword ptr [esp+10h]
  1000149A: 0F B6 5C 38 04     movzx       ebx,byte ptr [eax+edi+4]
  1000149F: 83 C1 0F           add         ecx,0Fh
  100014A2: 39 4E 18           cmp         dword ptr [esi+18h],ecx
  100014A5: 73 3E              jae         100014E5
  100014A7: 80 7E 1C 00        cmp         byte ptr [esi+1Ch],0
  100014AB: 75 1A              jne         100014C7
  100014AD: 68 00 01 00 00     push        100h
  100014B2: 68 E4 FB 00 10     push        1000FBE4h
  100014B7: 68 58 FC 00 10     push        1000FC58h
  100014BC: 68 78 FC 00 10     push        1000FC78h
  100014C1: FF D5              call        ebp
  100014C3: 83 C4 10           add         esp,10h
  100014C6: CC                 int         3
  100014C7: 8B 46 18           mov         eax,dword ptr [esi+18h]
  100014CA: 8B 56 10           mov         edx,dword ptr [esi+10h]
  100014CD: 8D 8C 00 00 01 00  lea         ecx,[eax+eax+00000100h]
            00
  100014D4: 51                 push        ecx
  100014D5: 50                 push        eax
  100014D6: 8B 46 04           mov         eax,dword ptr [esi+4]
  100014D9: 52                 push        edx
  100014DA: 89 4E 18           mov         dword ptr [esi+18h],ecx
  100014DD: FF D0              call        eax
  100014DF: 83 C4 0C           add         esp,0Ch
  100014E2: 89 46 10           mov         dword ptr [esi+10h],eax
  100014E5: 8B 56 14           mov         edx,dword ptr [esi+14h]
  100014E8: 8B 4E 10           mov         ecx,dword ptr [esi+10h]
  100014EB: 88 1C 11           mov         byte ptr [ecx+edx],bl
  100014EE: FF 46 14           inc         dword ptr [esi+14h]
  100014F1: 47                 inc         edi
  100014F2: 83 FF 02           cmp         edi,2
  100014F5: 72 9C              jb          10001493
  100014F7: 5F                 pop         edi
  100014F8: 5E                 pop         esi
  100014F9: 5D                 pop         ebp
  100014FA: 5B                 pop         ebx
  100014FB: 59                 pop         ecx
  100014FC: C2 0C 00           ret         0Ch
  100014FF: CC                 int         3
  10001500: 53                 push        ebx
  10001501: 56                 push        esi
  10001502: 57                 push        edi
  10001503: 6A 66              push        66h
  10001505: 8B F2              mov         esi,edx
  10001507: 8B D9              mov         ebx,ecx
  10001509: E8 42 30 00 00     call        10004550
  1000150E: 0F B6 46 04        movzx       eax,byte ptr [esi+4]
  10001512: 50                 push        eax
  10001513: 8B CB              mov         ecx,ebx
  10001515: E8 36 30 00 00     call        10004550
  1000151A: 8B 7C 24 10        mov         edi,dword ptr [esp+10h]
  1000151E: B8 02 00 00 00     mov         eax,2
  10001523: E8 08 34 00 00     call        10004930
  10001528: 8B 4C 24 18        mov         ecx,dword ptr [esp+18h]
  1000152C: 51                 push        ecx
  1000152D: 8B CB              mov         ecx,ebx
  1000152F: E8 1C 30 00 00     call        10004550
  10001534: 5F                 pop         edi
  10001535: 5E                 pop         esi
  10001536: 5B                 pop         ebx
  10001537: C2 0C 00           ret         0Ch
  1000153A: CC                 int         3
  1000153B: CC                 int         3
  1000153C: CC                 int         3
  1000153D: CC                 int         3
  1000153E: CC                 int         3
  1000153F: CC                 int         3
  10001540: 53                 push        ebx
  10001541: 56                 push        esi
  10001542: 57                 push        edi
  10001543: 6A 66              push        66h
  10001545: 8B FA              mov         edi,edx
  10001547: 8B F1              mov         esi,ecx
  10001549: E8 02 30 00 00     call        10004550
  1000154E: 8B 46 14           mov         eax,dword ptr [esi+14h]
  10001551: 0F B6 5F 04        movzx       ebx,byte ptr [edi+4]
  10001555: 83 C0 0F           add         eax,0Fh
  10001558: 39 46 18           cmp         dword ptr [esi+18h],eax
  1000155B: 73 42              jae         1000159F
  1000155D: 80 7E 1C 00        cmp         byte ptr [esi+1Ch],0
  10001561: 75 1E              jne         10001581
  10001563: 68 00 01 00 00     push        100h
  10001568: 68 E4 FB 00 10     push        1000FBE4h
  1000156D: 68 58 FC 00 10     push        1000FC58h
  10001572: 68 78 FC 00 10     push        1000FC78h
  10001577: FF 15 90 60 00 10  call        dword ptr ds:[10006090h]
  1000157D: 83 C4 10           add         esp,10h
  10001580: CC                 int         3
  10001581: 8B 46 18           mov         eax,dword ptr [esi+18h]
  10001584: 8B 56 04           mov         edx,dword ptr [esi+4]
  10001587: 8D 8C 00 00 01 00  lea         ecx,[eax+eax+00000100h]
            00
  1000158E: 51                 push        ecx
  1000158F: 89 4E 18           mov         dword ptr [esi+18h],ecx
  10001592: 8B 4E 10           mov         ecx,dword ptr [esi+10h]
  10001595: 50                 push        eax
  10001596: 51                 push        ecx
  10001597: FF D2              call        edx
  10001599: 83 C4 0C           add         esp,0Ch
  1000159C: 89 46 10           mov         dword ptr [esi+10h],eax
  1000159F: 8B 4E 14           mov         ecx,dword ptr [esi+14h]
  100015A2: 8B 46 10           mov         eax,dword ptr [esi+10h]
  100015A5: 8B 54 24 18        mov         edx,dword ptr [esp+18h]
  100015A9: 88 1C 08           mov         byte ptr [eax+ecx],bl
  100015AC: FF 46 14           inc         dword ptr [esi+14h]
  100015AF: 52                 push        edx
  100015B0: 8B CE              mov         ecx,esi
  100015B2: E8 29 2F 00 00     call        100044E0
  100015B7: 5F                 pop         edi
  100015B8: 5E                 pop         esi
  100015B9: 5B                 pop         ebx
  100015BA: C2 0C 00           ret         0Ch
  100015BD: CC                 int         3
  100015BE: CC                 int         3
  100015BF: CC                 int         3
  100015C0: 53                 push        ebx
  100015C1: 56                 push        esi
  100015C2: 57                 push        edi
  100015C3: 6A 66              push        66h
  100015C5: 8B F2              mov         esi,edx
  100015C7: 8B D9              mov         ebx,ecx
  100015C9: E8 82 2F 00 00     call        10004550
  100015CE: 0F B6 46 04        movzx       eax,byte ptr [esi+4]
  100015D2: 50                 push        eax
  100015D3: 8B CB              mov         ecx,ebx
  100015D5: E8 76 2F 00 00     call        10004550
  100015DA: 8B 7C 24 10        mov         edi,dword ptr [esp+10h]
  100015DE: B8 02 00 00 00     mov         eax,2
  100015E3: E8 48 33 00 00     call        10004930
  100015E8: 8B 4C 24 18        mov         ecx,dword ptr [esp+18h]
  100015EC: 51                 push        ecx
  100015ED: 8B CB              mov         ecx,ebx
  100015EF: E8 EC 2E 00 00     call        100044E0
  100015F4: 5F                 pop         edi
  100015F5: 5E                 pop         esi
  100015F6: 5B                 pop         ebx
  100015F7: C2 0C 00           ret         0Ch
  100015FA: CC                 int         3
  100015FB: CC                 int         3
  100015FC: CC                 int         3
  100015FD: CC                 int         3
  100015FE: CC                 int         3
  100015FF: CC                 int         3
  10001600: 53                 push        ebx
  10001601: 56                 push        esi
  10001602: 57                 push        edi
  10001603: 6A 66              push        66h
  10001605: 8B F2              mov         esi,edx
  10001607: 8B D9              mov         ebx,ecx
  10001609: E8 42 2F 00 00     call        10004550
  1000160E: 0F B6 46 04        movzx       eax,byte ptr [esi+4]
  10001612: 50                 push        eax
  10001613: 8B CB              mov         ecx,ebx
  10001615: E8 36 2F 00 00     call        10004550
  1000161A: 8B 4C 24 14        mov         ecx,dword ptr [esp+14h]
  1000161E: 0F B6 41 04        movzx       eax,byte ptr [ecx+4]
  10001622: 8B 7C 24 10        mov         edi,dword ptr [esp+10h]
  10001626: E8 05 33 00 00     call        10004930
  1000162B: 5F                 pop         edi
  1000162C: 5E                 pop         esi
  1000162D: 5B                 pop         ebx
  1000162E: C2 0C 00           ret         0Ch
  10001631: CC                 int         3
  10001632: CC                 int         3
  10001633: CC                 int         3
  10001634: CC                 int         3
  10001635: CC                 int         3
  10001636: CC                 int         3
  10001637: CC                 int         3
  10001638: CC                 int         3
  10001639: CC                 int         3
  1000163A: CC                 int         3
  1000163B: CC                 int         3
  1000163C: CC                 int         3
  1000163D: CC                 int         3
  1000163E: CC                 int         3
  1000163F: CC                 int         3
  10001640: 53                 push        ebx
  10001641: 56                 push        esi
  10001642: 57                 push        edi
  10001643: 6A 66              push        66h
  10001645: 8B F2              mov         esi,edx
  10001647: 8B D9              mov         ebx,ecx
  10001649: E8 02 2F 00 00     call        10004550
  1000164E: 0F B6 46 04        movzx       eax,byte ptr [esi+4]
  10001652: 50                 push        eax
  10001653: 8B CB              mov         ecx,ebx
  10001655: E8 F6 2E 00 00     call        10004550
  1000165A: 8B 4C 24 10        mov         ecx,dword ptr [esp+10h]
  1000165E: 0F B6 41 04        movzx       eax,byte ptr [ecx+4]
  10001662: 8B 7C 24 14        mov         edi,dword ptr [esp+14h]
  10001666: E8 C5 32 00 00     call        10004930
  1000166B: 5F                 pop         edi
  1000166C: 5E                 pop         esi
  1000166D: 5B                 pop         ebx
  1000166E: C2 0C 00           ret         0Ch
  10001671: CC                 int         3
  10001672: CC                 int         3
  10001673: CC                 int         3
  10001674: CC                 int         3
  10001675: CC                 int         3
  10001676: CC                 int         3
  10001677: CC                 int         3
  10001678: CC                 int         3
  10001679: CC                 int         3
  1000167A: CC                 int         3
  1000167B: CC                 int         3
  1000167C: CC                 int         3
  1000167D: CC                 int         3
  1000167E: CC                 int         3
  1000167F: CC                 int         3
  10001680: 53                 push        ebx
  10001681: 0F B6 5A 04        movzx       ebx,byte ptr [edx+4]
  10001685: 56                 push        esi
  10001686: 8B F1              mov         esi,ecx
  10001688: 8B 46 14           mov         eax,dword ptr [esi+14h]
  1000168B: 83 C0 0F           add         eax,0Fh
  1000168E: 39 46 18           cmp         dword ptr [esi+18h],eax
  10001691: 73 42              jae         100016D5
  10001693: 80 7E 1C 00        cmp         byte ptr [esi+1Ch],0
  10001697: 75 1E              jne         100016B7
  10001699: 68 00 01 00 00     push        100h
  1000169E: 68 E4 FB 00 10     push        1000FBE4h
  100016A3: 68 58 FC 00 10     push        1000FC58h
  100016A8: 68 78 FC 00 10     push        1000FC78h
  100016AD: FF 15 90 60 00 10  call        dword ptr ds:[10006090h]
  100016B3: 83 C4 10           add         esp,10h
  100016B6: CC                 int         3
  100016B7: 8B 46 18           mov         eax,dword ptr [esi+18h]
  100016BA: 8B 56 04           mov         edx,dword ptr [esi+4]
  100016BD: 8D 8C 00 00 01 00  lea         ecx,[eax+eax+00000100h]
            00
  100016C4: 51                 push        ecx
  100016C5: 89 4E 18           mov         dword ptr [esi+18h],ecx
  100016C8: 8B 4E 10           mov         ecx,dword ptr [esi+10h]
  100016CB: 50                 push        eax
  100016CC: 51                 push        ecx
  100016CD: FF D2              call        edx
  100016CF: 83 C4 0C           add         esp,0Ch
  100016D2: 89 46 10           mov         dword ptr [esi+10h],eax
  100016D5: 8B 4E 14           mov         ecx,dword ptr [esi+14h]
  100016D8: 8B 46 10           mov         eax,dword ptr [esi+10h]
  100016DB: 8B 54 24 14        mov         edx,dword ptr [esp+14h]
  100016DF: 88 1C 08           mov         byte ptr [eax+ecx],bl
  100016E2: FF 46 14           inc         dword ptr [esi+14h]
  100016E5: 52                 push        edx
  100016E6: 8B CE              mov         ecx,esi
  100016E8: E8 83 2D 00 00     call        10004470
  100016ED: 5E                 pop         esi
  100016EE: 5B                 pop         ebx
  100016EF: C2 0C 00           ret         0Ch
  100016F2: CC                 int         3
  100016F3: CC                 int         3
  100016F4: CC                 int         3
  100016F5: CC                 int         3
  100016F6: CC                 int         3
  100016F7: CC                 int         3
  100016F8: CC                 int         3
  100016F9: CC                 int         3
  100016FA: CC                 int         3
  100016FB: CC                 int         3
  100016FC: CC                 int         3
  100016FD: CC                 int         3
  100016FE: CC                 int         3
  100016FF: CC                 int         3
  10001700: 0F B6 42 04        movzx       eax,byte ptr [edx+4]
  10001704: 53                 push        ebx
  10001705: 57                 push        edi
  10001706: 50                 push        eax
  10001707: 8B D9              mov         ebx,ecx
  10001709: E8 42 2E 00 00     call        10004550
  1000170E: 8B 7C 24 0C        mov         edi,dword ptr [esp+0Ch]
  10001712: B8 02 00 00 00     mov         eax,2
  10001717: E8 14 32 00 00     call        10004930
  1000171C: 8B 4C 24 14        mov         ecx,dword ptr [esp+14h]
  10001720: 51                 push        ecx
  10001721: 8B CB              mov         ecx,ebx
  10001723: E8 48 2D 00 00     call        10004470
  10001728: 5F                 pop         edi
  10001729: 5B                 pop         ebx
  1000172A: C2 0C 00           ret         0Ch
  1000172D: CC                 int         3
  1000172E: CC                 int         3
  1000172F: CC                 int         3
  10001730: 0F B6 42 04        movzx       eax,byte ptr [edx+4]
  10001734: 53                 push        ebx
  10001735: 57                 push        edi
  10001736: 50                 push        eax
  10001737: 8B D9              mov         ebx,ecx
  10001739: E8 12 2E 00 00     call        10004550
  1000173E: 8B 4C 24 10        mov         ecx,dword ptr [esp+10h]
  10001742: 0F B6 41 04        movzx       eax,byte ptr [ecx+4]
  10001746: 8B 7C 24 0C        mov         edi,dword ptr [esp+0Ch]
  1000174A: E8 E1 31 00 00     call        10004930
  1000174F: 5F                 pop         edi
  10001750: 5B                 pop         ebx
  10001751: C2 0C 00           ret         0Ch
  10001754: CC                 int         3
  10001755: CC                 int         3
  10001756: CC                 int         3
  10001757: CC                 int         3
  10001758: CC                 int         3
  10001759: CC                 int         3
  1000175A: CC                 int         3
  1000175B: CC                 int         3
  1000175C: CC                 int         3
  1000175D: CC                 int         3
  1000175E: CC                 int         3
  1000175F: CC                 int         3
  10001760: 0F B6 42 04        movzx       eax,byte ptr [edx+4]
  10001764: 53                 push        ebx
  10001765: 57                 push        edi
  10001766: 50                 push        eax
  10001767: 8B D9              mov         ebx,ecx
  10001769: E8 E2 2D 00 00     call        10004550
  1000176E: 8B 4C 24 0C        mov         ecx,dword ptr [esp+0Ch]
  10001772: 0F B6 41 04        movzx       eax,byte ptr [ecx+4]
  10001776: 8B 7C 24 10        mov         edi,dword ptr [esp+10h]
  1000177A: E8 B1 31 00 00     call        10004930
  1000177F: 5F                 pop         edi
  10001780: 5B                 pop         ebx
  10001781: C2 0C 00           ret         0Ch
  10001784: CC                 int         3
  10001785: CC                 int         3
  10001786: CC                 int         3
  10001787: CC                 int         3
  10001788: CC                 int         3
  10001789: CC                 int         3
  1000178A: CC                 int         3
  1000178B: CC                 int         3
  1000178C: CC                 int         3
  1000178D: CC                 int         3
  1000178E: CC                 int         3
  1000178F: CC                 int         3
  10001790: 53                 push        ebx
  10001791: 0F B6 5A 04        movzx       ebx,byte ptr [edx+4]
  10001795: 56                 push        esi
  10001796: 8B F1              mov         esi,ecx
  10001798: 8B 46 14           mov         eax,dword ptr [esi+14h]
  1000179B: 83 C0 0F           add         eax,0Fh
  1000179E: 39 46 18           cmp         dword ptr [esi+18h],eax
  100017A1: 73 42              jae         100017E5
  100017A3: 80 7E 1C 00        cmp         byte ptr [esi+1Ch],0
  100017A7: 75 1E              jne         100017C7
  100017A9: 68 00 01 00 00     push        100h
  100017AE: 68 E4 FB 00 10     push        1000FBE4h
  100017B3: 68 58 FC 00 10     push        1000FC58h
  100017B8: 68 78 FC 00 10     push        1000FC78h
  100017BD: FF 15 90 60 00 10  call        dword ptr ds:[10006090h]
  100017C3: 83 C4 10           add         esp,10h
  100017C6: CC                 int         3
  100017C7: 8B 46 18           mov         eax,dword ptr [esi+18h]
  100017CA: 8B 56 04           mov         edx,dword ptr [esi+4]
  100017CD: 8D 8C 00 00 01 00  lea         ecx,[eax+eax+00000100h]
            00
  100017D4: 51                 push        ecx
  100017D5: 89 4E 18           mov         dword ptr [esi+18h],ecx
  100017D8: 8B 4E 10           mov         ecx,dword ptr [esi+10h]
  100017DB: 50                 push        eax
  100017DC: 51                 push        ecx
  100017DD: FF D2              call        edx
  100017DF: 83 C4 0C           add         esp,0Ch
  100017E2: 89 46 10           mov         dword ptr [esi+10h],eax
  100017E5: 8B 4E 14           mov         ecx,dword ptr [esi+14h]
  100017E8: 8B 46 10           mov         eax,dword ptr [esi+10h]
  100017EB: 8B 54 24 14        mov         edx,dword ptr [esp+14h]
  100017EF: 88 1C 08           mov         byte ptr [eax+ecx],bl
  100017F2: FF 46 14           inc         dword ptr [esi+14h]
  100017F5: 52                 push        edx
  100017F6: 8B CE              mov         ecx,esi
  100017F8: E8 53 2D 00 00     call        10004550
  100017FD: 5E                 pop         esi
  100017FE: 5B                 pop         ebx
  100017FF: C2 0C 00           ret         0Ch
  10001802: CC                 int         3
  10001803: CC                 int         3
  10001804: CC                 int         3
  10001805: CC                 int         3
  10001806: CC                 int         3
  10001807: CC                 int         3
  10001808: CC                 int         3
  10001809: CC                 int         3
  1000180A: CC                 int         3
  1000180B: CC                 int         3
  1000180C: CC                 int         3
  1000180D: CC                 int         3
  1000180E: CC                 int         3
  1000180F: CC                 int         3
  10001810: 0F B6 42 04        movzx       eax,byte ptr [edx+4]
  10001814: 53                 push        ebx
  10001815: 57                 push        edi
  10001816: 50                 push        eax
  10001817: 8B D9              mov         ebx,ecx
  10001819: E8 32 2D 00 00     call        10004550
  1000181E: 8B 7C 24 0C        mov         edi,dword ptr [esp+0Ch]
  10001822: B8 02 00 00 00     mov         eax,2
  10001827: E8 04 31 00 00     call        10004930
  1000182C: 8B 4C 24 14        mov         ecx,dword ptr [esp+14h]
  10001830: 51                 push        ecx
  10001831: 8B CB              mov         ecx,ebx
  10001833: E8 18 2D 00 00     call        10004550
  10001838: 5F                 pop         edi
  10001839: 5B                 pop         ebx
  1000183A: C2 0C 00           ret         0Ch
  1000183D: CC                 int         3
  1000183E: CC                 int         3
  1000183F: CC                 int         3
  10001840: 53                 push        ebx
  10001841: 56                 push        esi
  10001842: 57                 push        edi
  10001843: 6A 66              push        66h
  10001845: 8B F2              mov         esi,edx
  10001847: 8B D9              mov         ebx,ecx
  10001849: E8 02 2D 00 00     call        10004550
  1000184E: 0F B6 46 04        movzx       eax,byte ptr [esi+4]
  10001852: 50                 push        eax
  10001853: 8B CB              mov         ecx,ebx
  10001855: E8 F6 2C 00 00     call        10004550
  1000185A: 8B 7C 24 10        mov         edi,dword ptr [esp+10h]
  1000185E: 33 C0              xor         eax,eax
  10001860: E8 CB 30 00 00     call        10004930
  10001865: 8B 4C 24 18        mov         ecx,dword ptr [esp+18h]
  10001869: 51                 push        ecx
  1000186A: 8B CB              mov         ecx,ebx
  1000186C: E8 DF 2C 00 00     call        10004550
  10001871: 5F                 pop         edi
  10001872: 5E                 pop         esi
  10001873: 5B                 pop         ebx
  10001874: C2 0C 00           ret         0Ch
  10001877: CC                 int         3
  10001878: CC                 int         3
  10001879: CC                 int         3
  1000187A: CC                 int         3
  1000187B: CC                 int         3
  1000187C: CC                 int         3
  1000187D: CC                 int         3
  1000187E: CC                 int         3
  1000187F: CC                 int         3
  10001880: 53                 push        ebx
  10001881: 56                 push        esi
  10001882: 57                 push        edi
  10001883: 6A 66              push        66h
  10001885: 8B F2              mov         esi,edx
  10001887: 8B D9              mov         ebx,ecx
  10001889: E8 C2 2C 00 00     call        10004550
  1000188E: 0F B6 46 04        movzx       eax,byte ptr [esi+4]
  10001892: 50                 push        eax
  10001893: 8B CB              mov         ecx,ebx
  10001895: E8 B6 2C 00 00     call        10004550
  1000189A: 8B 7C 24 10        mov         edi,dword ptr [esp+10h]
  1000189E: 33 C0              xor         eax,eax
  100018A0: E8 8B 30 00 00     call        10004930
  100018A5: 8B 4C 24 18        mov         ecx,dword ptr [esp+18h]
  100018A9: 51                 push        ecx
  100018AA: 8B CB              mov         ecx,ebx
  100018AC: E8 2F 2C 00 00     call        100044E0
  100018B1: 5F                 pop         edi
  100018B2: 5E                 pop         esi
  100018B3: 5B                 pop         ebx
  100018B4: C2 0C 00           ret         0Ch
  100018B7: CC                 int         3
  100018B8: CC                 int         3
  100018B9: CC                 int         3
  100018BA: CC                 int         3
  100018BB: CC                 int         3
  100018BC: CC                 int         3
  100018BD: CC                 int         3
  100018BE: CC                 int         3
  100018BF: CC                 int         3
  100018C0: 0F B6 42 04        movzx       eax,byte ptr [edx+4]
  100018C4: 53                 push        ebx
  100018C5: 57                 push        edi
  100018C6: 50                 push        eax
  100018C7: 8B D9              mov         ebx,ecx
  100018C9: E8 82 2C 00 00     call        10004550
  100018CE: 8B 7C 24 0C        mov         edi,dword ptr [esp+0Ch]
  100018D2: 33 C0              xor         eax,eax
  100018D4: E8 57 30 00 00     call        10004930
  100018D9: 8B 4C 24 14        mov         ecx,dword ptr [esp+14h]
  100018DD: 51                 push        ecx
  100018DE: 8B CB              mov         ecx,ebx
  100018E0: E8 6B 2C 00 00     call        10004550
  100018E5: 5F                 pop         edi
  100018E6: 5B                 pop         ebx
  100018E7: C2 0C 00           ret         0Ch
  100018EA: CC                 int         3
  100018EB: CC                 int         3
  100018EC: CC                 int         3
  100018ED: CC                 int         3
  100018EE: CC                 int         3
  100018EF: CC                 int         3
  100018F0: 0F B6 42 04        movzx       eax,byte ptr [edx+4]
  100018F4: 53                 push        ebx
  100018F5: 57                 push        edi
  100018F6: 50                 push        eax
  100018F7: 8B D9              mov         ebx,ecx
  100018F9: E8 52 2C 00 00     call        10004550
  100018FE: 8B 7C 24 0C        mov         edi,dword ptr [esp+0Ch]
  10001902: 33 C0              xor         eax,eax
  10001904: E8 27 30 00 00     call        10004930
  10001909: 8B 4C 24 14        mov         ecx,dword ptr [esp+14h]
  1000190D: 51                 push        ecx
  1000190E: 8B CB              mov         ecx,ebx
  10001910: E8 5B 2B 00 00     call        10004470
  10001915: 5F                 pop         edi
  10001916: 5B                 pop         ebx
  10001917: C2 0C 00           ret         0Ch
  1000191A: CC                 int         3
  1000191B: CC                 int         3
  1000191C: CC                 int         3
  1000191D: CC                 int         3
  1000191E: CC                 int         3
  1000191F: CC                 int         3
  10001920: 53                 push        ebx
  10001921: 56                 push        esi
  10001922: 57                 push        edi
  10001923: 8B FA              mov         edi,edx
  10001925: 8B D9              mov         ebx,ecx
  10001927: 33 F6              xor         esi,esi
  10001929: 8D A4 24 00 00 00  lea         esp,[esp+00000000h]
            00
  10001930: 0F B6 44 37 04     movzx       eax,byte ptr [edi+esi+4]
  10001935: 50                 push        eax
  10001936: 8B CB              mov         ecx,ebx
  10001938: E8 13 2C 00 00     call        10004550
  1000193D: 46                 inc         esi
  1000193E: 83 FE 03           cmp         esi,3
  10001941: 72 ED              jb          10001930
  10001943: 8B 4C 24 10        mov         ecx,dword ptr [esp+10h]
  10001947: 0F B6 41 04        movzx       eax,byte ptr [ecx+4]
  1000194B: 8B 7C 24 14        mov         edi,dword ptr [esp+14h]
  1000194F: E8 DC 2F 00 00     call        10004930
  10001954: 5F                 pop         edi
  10001955: 5E                 pop         esi
  10001956: 5B                 pop         ebx
  10001957: C2 0C 00           ret         0Ch
  1000195A: CC                 int         3
  1000195B: CC                 int         3
  1000195C: CC                 int         3
  1000195D: CC                 int         3
  1000195E: CC                 int         3
  1000195F: CC                 int         3
  10001960: 53                 push        ebx
  10001961: 56                 push        esi
  10001962: 57                 push        edi
  10001963: 8B FA              mov         edi,edx
  10001965: 8B D9              mov         ebx,ecx
  10001967: 33 F6              xor         esi,esi
  10001969: 8D A4 24 00 00 00  lea         esp,[esp+00000000h]
            00
  10001970: 0F B6 44 37 04     movzx       eax,byte ptr [edi+esi+4]
  10001975: 50                 push        eax
  10001976: 8B CB              mov         ecx,ebx
  10001978: E8 D3 2B 00 00     call        10004550
  1000197D: 46                 inc         esi
  1000197E: 83 FE 02           cmp         esi,2
  10001981: 72 ED              jb          10001970
  10001983: 8B 4C 24 10        mov         ecx,dword ptr [esp+10h]
  10001987: 0F B6 41 04        movzx       eax,byte ptr [ecx+4]
  1000198B: 8B 7C 24 14        mov         edi,dword ptr [esp+14h]
  1000198F: E8 9C 2F 00 00     call        10004930
  10001994: 5F                 pop         edi
  10001995: 5E                 pop         esi
  10001996: 5B                 pop         ebx
  10001997: C2 0C 00           ret         0Ch
  1000199A: CC                 int         3
  1000199B: CC                 int         3
  1000199C: CC                 int         3
  1000199D: CC                 int         3
  1000199E: CC                 int         3
  1000199F: CC                 int         3
  100019A0: 53                 push        ebx
  100019A1: 56                 push        esi
  100019A2: 57                 push        edi
  100019A3: 6A 66              push        66h
  100019A5: 8B F2              mov         esi,edx
  100019A7: 8B D9              mov         ebx,ecx
  100019A9: E8 A2 2B 00 00     call        10004550
  100019AE: 0F B6 46 04        movzx       eax,byte ptr [esi+4]
  100019B2: 50                 push        eax
  100019B3: 8B CB              mov         ecx,ebx
  100019B5: E8 96 2B 00 00     call        10004550
  100019BA: 8B 7C 24 10        mov         edi,dword ptr [esp+10h]
  100019BE: B8 04 00 00 00     mov         eax,4
  100019C3: E8 68 2F 00 00     call        10004930
  100019C8: 8B 4C 24 18        mov         ecx,dword ptr [esp+18h]
  100019CC: 51                 push        ecx
  100019CD: 8B CB              mov         ecx,ebx
  100019CF: E8 7C 2B 00 00     call        10004550
  100019D4: 5F                 pop         edi
  100019D5: 5E                 pop         esi
  100019D6: 5B                 pop         ebx
  100019D7: C2 0C 00           ret         0Ch
  100019DA: CC                 int         3
  100019DB: CC                 int         3
  100019DC: CC                 int         3
  100019DD: CC                 int         3
  100019DE: CC                 int         3
  100019DF: CC                 int         3
  100019E0: 53                 push        ebx
  100019E1: 56                 push        esi
  100019E2: 57                 push        edi
  100019E3: 6A 66              push        66h
  100019E5: 8B F2              mov         esi,edx
  100019E7: 8B D9              mov         ebx,ecx
  100019E9: E8 62 2B 00 00     call        10004550
  100019EE: 0F B6 46 04        movzx       eax,byte ptr [esi+4]
  100019F2: 50                 push        eax
  100019F3: 8B CB              mov         ecx,ebx
  100019F5: E8 56 2B 00 00     call        10004550
  100019FA: 8B 7C 24 10        mov         edi,dword ptr [esp+10h]
  100019FE: B8 04 00 00 00     mov         eax,4
  10001A03: E8 28 2F 00 00     call        10004930
  10001A08: 8B 4C 24 18        mov         ecx,dword ptr [esp+18h]
  10001A0C: 51                 push        ecx
  10001A0D: 8B CB              mov         ecx,ebx
  10001A0F: E8 CC 2A 00 00     call        100044E0
  10001A14: 5F                 pop         edi
  10001A15: 5E                 pop         esi
  10001A16: 5B                 pop         ebx
  10001A17: C2 0C 00           ret         0Ch
  10001A1A: CC                 int         3
  10001A1B: CC                 int         3
  10001A1C: CC                 int         3
  10001A1D: CC                 int         3
  10001A1E: CC                 int         3
  10001A1F: CC                 int         3
  10001A20: 0F B6 42 04        movzx       eax,byte ptr [edx+4]
  10001A24: 53                 push        ebx
  10001A25: 57                 push        edi
  10001A26: 50                 push        eax
  10001A27: 8B D9              mov         ebx,ecx
  10001A29: E8 22 2B 00 00     call        10004550
  10001A2E: 8B 7C 24 0C        mov         edi,dword ptr [esp+0Ch]
  10001A32: B8 04 00 00 00     mov         eax,4
  10001A37: E8 F4 2E 00 00     call        10004930
  10001A3C: 8B 4C 24 14        mov         ecx,dword ptr [esp+14h]
  10001A40: 51                 push        ecx
  10001A41: 8B CB              mov         ecx,ebx
  10001A43: E8 28 2A 00 00     call        10004470
  10001A48: 5F                 pop         edi
  10001A49: 5B                 pop         ebx
  10001A4A: C2 0C 00           ret         0Ch
  10001A4D: CC                 int         3
  10001A4E: CC                 int         3
  10001A4F: CC                 int         3
  10001A50: 0F B6 42 04        movzx       eax,byte ptr [edx+4]
  10001A54: 53                 push        ebx
  10001A55: 57                 push        edi
  10001A56: 50                 push        eax
  10001A57: 8B D9              mov         ebx,ecx
  10001A59: E8 F2 2A 00 00     call        10004550
  10001A5E: 8B 7C 24 0C        mov         edi,dword ptr [esp+0Ch]
  10001A62: B8 04 00 00 00     mov         eax,4
  10001A67: E8 C4 2E 00 00     call        10004930
  10001A6C: 8B 4C 24 14        mov         ecx,dword ptr [esp+14h]
  10001A70: 51                 push        ecx
  10001A71: 8B CB              mov         ecx,ebx
  10001A73: E8 D8 2A 00 00     call        10004550
  10001A78: 5F                 pop         edi
  10001A79: 5B                 pop         ebx
  10001A7A: C2 0C 00           ret         0Ch
  10001A7D: CC                 int         3
  10001A7E: CC                 int         3
  10001A7F: CC                 int         3
  10001A80: 53                 push        ebx
  10001A81: 56                 push        esi
  10001A82: 57                 push        edi
  10001A83: 6A 66              push        66h
  10001A85: 8B FA              mov         edi,edx
  10001A87: 8B D9              mov         ebx,ecx
  10001A89: E8 C2 2A 00 00     call        10004550
  10001A8E: 33 F6              xor         esi,esi
  10001A90: 0F B6 44 37 04     movzx       eax,byte ptr [edi+esi+4]
  10001A95: 50                 push        eax
  10001A96: 8B CB              mov         ecx,ebx
  10001A98: E8 B3 2A 00 00     call        10004550
  10001A9D: 46                 inc         esi
  10001A9E: 83 FE 02           cmp         esi,2
  10001AA1: 72 ED              jb          10001A90
  10001AA3: 8B 4C 24 10        mov         ecx,dword ptr [esp+10h]
  10001AA7: 0F B6 41 04        movzx       eax,byte ptr [ecx+4]
  10001AAB: 8B 7C 24 14        mov         edi,dword ptr [esp+14h]
  10001AAF: E8 7C 2E 00 00     call        10004930
  10001AB4: 5F                 pop         edi
  10001AB5: 5E                 pop         esi
  10001AB6: 5B                 pop         ebx
  10001AB7: C2 0C 00           ret         0Ch
  10001ABA: CC                 int         3
  10001ABB: CC                 int         3
  10001ABC: CC                 int         3
  10001ABD: CC                 int         3
  10001ABE: CC                 int         3
  10001ABF: CC                 int         3
  10001AC0: 56                 push        esi
  10001AC1: 8B F2              mov         esi,edx
  10001AC3: 0F B6 46 04        movzx       eax,byte ptr [esi+4]
  10001AC7: 57                 push        edi
  10001AC8: 50                 push        eax
  10001AC9: 8B F9              mov         edi,ecx
  10001ACB: E8 80 2A 00 00     call        10004550
  10001AD0: 8B 4C 24 0C        mov         ecx,dword ptr [esp+0Ch]
  10001AD4: 0F B6 51 04        movzx       edx,byte ptr [ecx+4]
  10001AD8: 0F B6 46 05        movzx       eax,byte ptr [esi+5]
  10001ADC: 83 E2 07           and         edx,7
  10001ADF: 03 D0              add         edx,eax
  10001AE1: 52                 push        edx
  10001AE2: 8B CF              mov         ecx,edi
  10001AE4: E8 67 2A 00 00     call        10004550
  10001AE9: 5F                 pop         edi
  10001AEA: 5E                 pop         esi
  10001AEB: C2 0C 00           ret         0Ch
  10001AEE: CC                 int         3
  10001AEF: CC                 int         3
  10001AF0: 53                 push        ebx
  10001AF1: 56                 push        esi
  10001AF2: 57                 push        edi
  10001AF3: 6A 66              push        66h
  10001AF5: 8B FA              mov         edi,edx
  10001AF7: 8B D9              mov         ebx,ecx
  10001AF9: E8 52 2A 00 00     call        10004550
  10001AFE: 33 F6              xor         esi,esi
  10001B00: 0F B6 44 37 04     movzx       eax,byte ptr [edi+esi+4]
  10001B05: 50                 push        eax
  10001B06: 8B CB              mov         ecx,ebx
  10001B08: E8 43 2A 00 00     call        10004550
  10001B0D: 46                 inc         esi
  10001B0E: 83 FE 02           cmp         esi,2
  10001B11: 72 ED              jb          10001B00
  10001B13: 8B 7C 24 10        mov         edi,dword ptr [esp+10h]
  10001B17: B8 04 00 00 00     mov         eax,4
  10001B1C: E8 0F 2E 00 00     call        10004930
  10001B21: 8B 4C 24 18        mov         ecx,dword ptr [esp+18h]
  10001B25: 51                 push        ecx
  10001B26: 8B CB              mov         ecx,ebx
  10001B28: E8 23 2A 00 00     call        10004550
  10001B2D: 5F                 pop         edi
  10001B2E: 5E                 pop         esi
  10001B2F: 5B                 pop         ebx
  10001B30: C2 0C 00           ret         0Ch
  10001B33: CC                 int         3
  10001B34: CC                 int         3
  10001B35: CC                 int         3
  10001B36: CC                 int         3
  10001B37: CC                 int         3
  10001B38: CC                 int         3
  10001B39: CC                 int         3
  10001B3A: CC                 int         3
  10001B3B: CC                 int         3
  10001B3C: CC                 int         3
  10001B3D: CC                 int         3
  10001B3E: CC                 int         3
  10001B3F: CC                 int         3
  10001B40: 53                 push        ebx
  10001B41: 56                 push        esi
  10001B42: 57                 push        edi
  10001B43: 6A 66              push        66h
  10001B45: 8B FA              mov         edi,edx
  10001B47: 8B D9              mov         ebx,ecx
  10001B49: E8 02 2A 00 00     call        10004550
  10001B4E: 33 F6              xor         esi,esi
  10001B50: 0F B6 44 37 04     movzx       eax,byte ptr [edi+esi+4]
  10001B55: 50                 push        eax
  10001B56: 8B CB              mov         ecx,ebx
  10001B58: E8 F3 29 00 00     call        10004550
  10001B5D: 46                 inc         esi
  10001B5E: 83 FE 02           cmp         esi,2
  10001B61: 72 ED              jb          10001B50
  10001B63: 8B 4C 24 14        mov         ecx,dword ptr [esp+14h]
  10001B67: 0F B6 41 04        movzx       eax,byte ptr [ecx+4]
  10001B6B: 8B 7C 24 10        mov         edi,dword ptr [esp+10h]
  10001B6F: E8 BC 2D 00 00     call        10004930
  10001B74: 5F                 pop         edi
  10001B75: 5E                 pop         esi
  10001B76: 5B                 pop         ebx
  10001B77: C2 0C 00           ret         0Ch
  10001B7A: CC                 int         3
  10001B7B: CC                 int         3
  10001B7C: CC                 int         3
  10001B7D: CC                 int         3
  10001B7E: CC                 int         3
  10001B7F: CC                 int         3
  10001B80: 53                 push        ebx
  10001B81: 56                 push        esi
  10001B82: 57                 push        edi
  10001B83: 8B FA              mov         edi,edx
  10001B85: 8B D9              mov         ebx,ecx
  10001B87: 33 F6              xor         esi,esi
  10001B89: 8D A4 24 00 00 00  lea         esp,[esp+00000000h]
            00
  10001B90: 0F B6 44 37 04     movzx       eax,byte ptr [edi+esi+4]
  10001B95: 50                 push        eax
  10001B96: 8B CB              mov         ecx,ebx
  10001B98: E8 B3 29 00 00     call        10004550
  10001B9D: 46                 inc         esi
  10001B9E: 83 FE 02           cmp         esi,2
  10001BA1: 72 ED              jb          10001B90
  10001BA3: 8B 7C 24 10        mov         edi,dword ptr [esp+10h]
  10001BA7: B8 04 00 00 00     mov         eax,4
  10001BAC: E8 7F 2D 00 00     call        10004930
  10001BB1: 8B 4C 24 18        mov         ecx,dword ptr [esp+18h]
  10001BB5: 51                 push        ecx
  10001BB6: 8B CB              mov         ecx,ebx
  10001BB8: E8 93 29 00 00     call        10004550
  10001BBD: 5F                 pop         edi
  10001BBE: 5E                 pop         esi
  10001BBF: 5B                 pop         ebx
  10001BC0: C2 0C 00           ret         0Ch
  10001BC3: CC                 int         3
  10001BC4: CC                 int         3
  10001BC5: CC                 int         3
  10001BC6: CC                 int         3
  10001BC7: CC                 int         3
  10001BC8: CC                 int         3
  10001BC9: CC                 int         3
  10001BCA: CC                 int         3
  10001BCB: CC                 int         3
  10001BCC: CC                 int         3
  10001BCD: CC                 int         3
  10001BCE: CC                 int         3
  10001BCF: CC                 int         3
  10001BD0: 53                 push        ebx
  10001BD1: 56                 push        esi
  10001BD2: 57                 push        edi
  10001BD3: 8B FA              mov         edi,edx
  10001BD5: 8B D9              mov         ebx,ecx
  10001BD7: 33 F6              xor         esi,esi
  10001BD9: 8D A4 24 00 00 00  lea         esp,[esp+00000000h]
            00
  10001BE0: 0F B6 44 37 04     movzx       eax,byte ptr [edi+esi+4]
  10001BE5: 50                 push        eax
  10001BE6: 8B CB              mov         ecx,ebx
  10001BE8: E8 63 29 00 00     call        10004550
  10001BED: 46                 inc         esi
  10001BEE: 83 FE 02           cmp         esi,2
  10001BF1: 72 ED              jb          10001BE0
  10001BF3: 8B 4C 24 14        mov         ecx,dword ptr [esp+14h]
  10001BF7: 0F B6 41 04        movzx       eax,byte ptr [ecx+4]
  10001BFB: 8B 7C 24 10        mov         edi,dword ptr [esp+10h]
  10001BFF: E8 2C 2D 00 00     call        10004930
  10001C04: 5F                 pop         edi
  10001C05: 5E                 pop         esi
  10001C06: 5B                 pop         ebx
  10001C07: C2 0C 00           ret         0Ch
  10001C0A: CC                 int         3
  10001C0B: CC                 int         3
  10001C0C: CC                 int         3
  10001C0D: CC                 int         3
  10001C0E: CC                 int         3
  10001C0F: CC                 int         3
  10001C10: 53                 push        ebx
  10001C11: 56                 push        esi
  10001C12: 57                 push        edi
  10001C13: 6A 66              push        66h
  10001C15: 8B FA              mov         edi,edx
  10001C17: 8B D9              mov         ebx,ecx
  10001C19: E8 32 29 00 00     call        10004550
  10001C1E: 33 F6              xor         esi,esi
  10001C20: 0F B6 44 37 04     movzx       eax,byte ptr [edi+esi+4]
  10001C25: 50                 push        eax
  10001C26: 8B CB              mov         ecx,ebx
  10001C28: E8 23 29 00 00     call        10004550
  10001C2D: 46                 inc         esi
  10001C2E: 83 FE 02           cmp         esi,2
  10001C31: 72 ED              jb          10001C20
  10001C33: 8B 7C 24 10        mov         edi,dword ptr [esp+10h]
  10001C37: B8 07 00 00 00     mov         eax,7
  10001C3C: E8 EF 2C 00 00     call        10004930
  10001C41: 8B 4C 24 18        mov         ecx,dword ptr [esp+18h]
  10001C45: 51                 push        ecx
  10001C46: 8B CB              mov         ecx,ebx
  10001C48: E8 03 29 00 00     call        10004550
  10001C4D: 5F                 pop         edi
  10001C4E: 5E                 pop         esi
  10001C4F: 5B                 pop         ebx
  10001C50: C2 0C 00           ret         0Ch
  10001C53: CC                 int         3
  10001C54: CC                 int         3
  10001C55: CC                 int         3
  10001C56: CC                 int         3
  10001C57: CC                 int         3
  10001C58: CC                 int         3
  10001C59: CC                 int         3
  10001C5A: CC                 int         3
  10001C5B: CC                 int         3
  10001C5C: CC                 int         3
  10001C5D: CC                 int         3
  10001C5E: CC                 int         3
  10001C5F: CC                 int         3
  10001C60: 53                 push        ebx
  10001C61: 56                 push        esi
  10001C62: 57                 push        edi
  10001C63: 8B FA              mov         edi,edx
  10001C65: 8B D9              mov         ebx,ecx
  10001C67: 33 F6              xor         esi,esi
  10001C69: 8D A4 24 00 00 00  lea         esp,[esp+00000000h]
            00
  10001C70: 0F B6 44 37 04     movzx       eax,byte ptr [edi+esi+4]
  10001C75: 50                 push        eax
  10001C76: 8B CB              mov         ecx,ebx
  10001C78: E8 D3 28 00 00     call        10004550
  10001C7D: 46                 inc         esi
  10001C7E: 83 FE 02           cmp         esi,2
  10001C81: 72 ED              jb          10001C70
  10001C83: 8B 7C 24 10        mov         edi,dword ptr [esp+10h]
  10001C87: B8 07 00 00 00     mov         eax,7
  10001C8C: E8 9F 2C 00 00     call        10004930
  10001C91: 8B 4C 24 18        mov         ecx,dword ptr [esp+18h]
  10001C95: 51                 push        ecx
  10001C96: 8B CB              mov         ecx,ebx
  10001C98: E8 B3 28 00 00     call        10004550
  10001C9D: 5F                 pop         edi
  10001C9E: 5E                 pop         esi
  10001C9F: 5B                 pop         ebx
  10001CA0: C2 0C 00           ret         0Ch
  10001CA3: CC                 int         3
  10001CA4: CC                 int         3
  10001CA5: CC                 int         3
  10001CA6: CC                 int         3
  10001CA7: CC                 int         3
  10001CA8: CC                 int         3
  10001CA9: CC                 int         3
  10001CAA: CC                 int         3
  10001CAB: CC                 int         3
  10001CAC: CC                 int         3
  10001CAD: CC                 int         3
  10001CAE: CC                 int         3
  10001CAF: CC                 int         3
  10001CB0: 53                 push        ebx
  10001CB1: 56                 push        esi
  10001CB2: 57                 push        edi
  10001CB3: 6A 66              push        66h
  10001CB5: 8B FA              mov         edi,edx
  10001CB7: 8B D9              mov         ebx,ecx
  10001CB9: E8 92 28 00 00     call        10004550
  10001CBE: 33 F6              xor         esi,esi
  10001CC0: 0F B6 44 37 04     movzx       eax,byte ptr [edi+esi+4]
  10001CC5: 50                 push        eax
  10001CC6: 8B CB              mov         ecx,ebx
  10001CC8: E8 83 28 00 00     call        10004550
  10001CCD: 46                 inc         esi
  10001CCE: 83 FE 02           cmp         esi,2
  10001CD1: 72 ED              jb          10001CC0
  10001CD3: 8B 7C 24 10        mov         edi,dword ptr [esp+10h]
  10001CD7: B8 06 00 00 00     mov         eax,6
  10001CDC: E8 4F 2C 00 00     call        10004930
  10001CE1: 8B 4C 24 18        mov         ecx,dword ptr [esp+18h]
  10001CE5: 51                 push        ecx
  10001CE6: 8B CB              mov         ecx,ebx
  10001CE8: E8 63 28 00 00     call        10004550
  10001CED: 5F                 pop         edi
  10001CEE: 5E                 pop         esi
  10001CEF: 5B                 pop         ebx
  10001CF0: C2 0C 00           ret         0Ch
  10001CF3: CC                 int         3
  10001CF4: CC                 int         3
  10001CF5: CC                 int         3
  10001CF6: CC                 int         3
  10001CF7: CC                 int         3
  10001CF8: CC                 int         3
  10001CF9: CC                 int         3
  10001CFA: CC                 int         3
  10001CFB: CC                 int         3
  10001CFC: CC                 int         3
  10001CFD: CC                 int         3
  10001CFE: CC                 int         3
  10001CFF: CC                 int         3
  10001D00: 53                 push        ebx
  10001D01: 56                 push        esi
  10001D02: 57                 push        edi
  10001D03: 8B FA              mov         edi,edx
  10001D05: 8B D9              mov         ebx,ecx
  10001D07: 33 F6              xor         esi,esi
  10001D09: 8D A4 24 00 00 00  lea         esp,[esp+00000000h]
            00
  10001D10: 0F B6 44 37 04     movzx       eax,byte ptr [edi+esi+4]
  10001D15: 50                 push        eax
  10001D16: 8B CB              mov         ecx,ebx
  10001D18: E8 33 28 00 00     call        10004550
  10001D1D: 46                 inc         esi
  10001D1E: 83 FE 02           cmp         esi,2
  10001D21: 72 ED              jb          10001D10
  10001D23: 8B 7C 24 10        mov         edi,dword ptr [esp+10h]
  10001D27: B8 06 00 00 00     mov         eax,6
  10001D2C: E8 FF 2B 00 00     call        10004930
  10001D31: 8B 4C 24 18        mov         ecx,dword ptr [esp+18h]
  10001D35: 51                 push        ecx
  10001D36: 8B CB              mov         ecx,ebx
  10001D38: E8 13 28 00 00     call        10004550
  10001D3D: 5F                 pop         edi
  10001D3E: 5E                 pop         esi
  10001D3F: 5B                 pop         ebx
  10001D40: C2 0C 00           ret         0Ch
  10001D43: CC                 int         3
  10001D44: CC                 int         3
  10001D45: CC                 int         3
  10001D46: CC                 int         3
  10001D47: CC                 int         3
  10001D48: CC                 int         3
  10001D49: CC                 int         3
  10001D4A: CC                 int         3
  10001D4B: CC                 int         3
  10001D4C: CC                 int         3
  10001D4D: CC                 int         3
  10001D4E: CC                 int         3
  10001D4F: CC                 int         3
  10001D50: 53                 push        ebx
  10001D51: 56                 push        esi
  10001D52: 57                 push        edi
  10001D53: 6A 66              push        66h
  10001D55: 8B FA              mov         edi,edx
  10001D57: 8B D9              mov         ebx,ecx
  10001D59: E8 F2 27 00 00     call        10004550
  10001D5E: 33 F6              xor         esi,esi
  10001D60: 0F B6 44 37 04     movzx       eax,byte ptr [edi+esi+4]
  10001D65: 50                 push        eax
  10001D66: 8B CB              mov         ecx,ebx
  10001D68: E8 E3 27 00 00     call        10004550
  10001D6D: 46                 inc         esi
  10001D6E: 83 FE 02           cmp         esi,2
  10001D71: 72 ED              jb          10001D60
  10001D73: 8B 7C 24 10        mov         edi,dword ptr [esp+10h]
  10001D77: B8 05 00 00 00     mov         eax,5
  10001D7C: E8 AF 2B 00 00     call        10004930
  10001D81: 8B 4C 24 18        mov         ecx,dword ptr [esp+18h]
  10001D85: 51                 push        ecx
  10001D86: 8B CB              mov         ecx,ebx
  10001D88: E8 C3 27 00 00     call        10004550
  10001D8D: 5F                 pop         edi
  10001D8E: 5E                 pop         esi
  10001D8F: 5B                 pop         ebx
  10001D90: C2 0C 00           ret         0Ch
  10001D93: CC                 int         3
  10001D94: CC                 int         3
  10001D95: CC                 int         3
  10001D96: CC                 int         3
  10001D97: CC                 int         3
  10001D98: CC                 int         3
  10001D99: CC                 int         3
  10001D9A: CC                 int         3
  10001D9B: CC                 int         3
  10001D9C: CC                 int         3
  10001D9D: CC                 int         3
  10001D9E: CC                 int         3
  10001D9F: CC                 int         3
  10001DA0: 53                 push        ebx
  10001DA1: 56                 push        esi
  10001DA2: 57                 push        edi
  10001DA3: 8B FA              mov         edi,edx
  10001DA5: 8B D9              mov         ebx,ecx
  10001DA7: 33 F6              xor         esi,esi
  10001DA9: 8D A4 24 00 00 00  lea         esp,[esp+00000000h]
            00
  10001DB0: 0F B6 44 37 04     movzx       eax,byte ptr [edi+esi+4]
  10001DB5: 50                 push        eax
  10001DB6: 8B CB              mov         ecx,ebx
  10001DB8: E8 93 27 00 00     call        10004550
  10001DBD: 46                 inc         esi
  10001DBE: 83 FE 02           cmp         esi,2
  10001DC1: 72 ED              jb          10001DB0
  10001DC3: 8B 7C 24 10        mov         edi,dword ptr [esp+10h]
  10001DC7: B8 05 00 00 00     mov         eax,5
  10001DCC: E8 5F 2B 00 00     call        10004930
  10001DD1: 8B 4C 24 18        mov         ecx,dword ptr [esp+18h]
  10001DD5: 51                 push        ecx
  10001DD6: 8B CB              mov         ecx,ebx
  10001DD8: E8 73 27 00 00     call        10004550
  10001DDD: 5F                 pop         edi
  10001DDE: 5E                 pop         esi
  10001DDF: 5B                 pop         ebx
  10001DE0: C2 0C 00           ret         0Ch
  10001DE3: CC                 int         3
  10001DE4: CC                 int         3
  10001DE5: CC                 int         3
  10001DE6: CC                 int         3
  10001DE7: CC                 int         3
  10001DE8: CC                 int         3
  10001DE9: CC                 int         3
  10001DEA: CC                 int         3
  10001DEB: CC                 int         3
  10001DEC: CC                 int         3
  10001DED: CC                 int         3
  10001DEE: CC                 int         3
  10001DEF: CC                 int         3
  10001DF0: 83 EC 0C           sub         esp,0Ch
  10001DF3: 0F B6 42 04        movzx       eax,byte ptr [edx+4]
  10001DF7: 56                 push        esi
  10001DF8: 57                 push        edi
  10001DF9: 50                 push        eax
  10001DFA: 8B F1              mov         esi,ecx
  10001DFC: E8 4F 27 00 00     call        10004550
  10001E01: 8B 44 24 18        mov         eax,dword ptr [esp+18h]
  10001E05: 80 78 08 00        cmp         byte ptr [eax+8],0
  10001E09: 8B 48 04           mov         ecx,dword ptr [eax+4]
  10001E0C: 89 4C 24 0C        mov         dword ptr [esp+0Ch],ecx
  10001E10: C6 44 24 08 04     mov         byte ptr [esp+8],4
  10001E15: 74 05              je          10001E1C
  10001E17: C6 44 24 08 14     mov         byte ptr [esp+8],14h
  10001E1C: 8B 56 14           mov         edx,dword ptr [esi+14h]
  10001E1F: 8B 7E 0C           mov         edi,dword ptr [esi+0Ch]
  10001E22: 8D 44 24 08        lea         eax,[esp+8]
  10001E26: 89 54 24 10        mov         dword ptr [esp+10h],edx
  10001E2A: E8 A1 12 00 00     call        100030D0
  10001E2F: 68 78 56 34 12     push        12345678h
  10001E34: 8B CE              mov         ecx,esi
  10001E36: E8 35 26 00 00     call        10004470
  10001E3B: 5F                 pop         edi
  10001E3C: 5E                 pop         esi
  10001E3D: 83 C4 0C           add         esp,0Ch
  10001E40: C2 0C 00           ret         0Ch
  10001E43: CC                 int         3
  10001E44: CC                 int         3
  10001E45: CC                 int         3
  10001E46: CC                 int         3
  10001E47: CC                 int         3
  10001E48: CC                 int         3
  10001E49: CC                 int         3
  10001E4A: CC                 int         3
  10001E4B: CC                 int         3
  10001E4C: CC                 int         3
  10001E4D: CC                 int         3
  10001E4E: CC                 int         3
  10001E4F: CC                 int         3
  10001E50: 0F B6 42 04        movzx       eax,byte ptr [edx+4]
  10001E54: 53                 push        ebx
  10001E55: 57                 push        edi
  10001E56: 50                 push        eax
  10001E57: 8B D9              mov         ebx,ecx
  10001E59: E8 F2 26 00 00     call        10004550
  10001E5E: 8B 7C 24 0C        mov         edi,dword ptr [esp+0Ch]
  10001E62: B8 02 00 00 00     mov         eax,2
  10001E67: E8 C4 2A 00 00     call        10004930
  10001E6C: 5F                 pop         edi
  10001E6D: 5B                 pop         ebx
  10001E6E: C2 0C 00           ret         0Ch
  10001E71: CC                 int         3
  10001E72: CC                 int         3
  10001E73: CC                 int         3
  10001E74: CC                 int         3
  10001E75: CC                 int         3
  10001E76: CC                 int         3
  10001E77: CC                 int         3
  10001E78: CC                 int         3
  10001E79: CC                 int         3
  10001E7A: CC                 int         3
  10001E7B: CC                 int         3
  10001E7C: CC                 int         3
  10001E7D: CC                 int         3
  10001E7E: CC                 int         3
  10001E7F: CC                 int         3
  10001E80: 53                 push        ebx
  10001E81: 56                 push        esi
  10001E82: 57                 push        edi
  10001E83: 6A 66              push        66h
  10001E85: 8B F2              mov         esi,edx
  10001E87: 8B D9              mov         ebx,ecx
  10001E89: E8 C2 26 00 00     call        10004550
  10001E8E: 0F B6 46 04        movzx       eax,byte ptr [esi+4]
  10001E92: 50                 push        eax
  10001E93: 8B CB              mov         ecx,ebx
  10001E95: E8 B6 26 00 00     call        10004550
  10001E9A: 8B 7C 24 10        mov         edi,dword ptr [esp+10h]
  10001E9E: B8 07 00 00 00     mov         eax,7
  10001EA3: E8 88 2A 00 00     call        10004930
  10001EA8: 8B 4C 24 18        mov         ecx,dword ptr [esp+18h]
  10001EAC: 51                 push        ecx
  10001EAD: 8B CB              mov         ecx,ebx
  10001EAF: E8 9C 26 00 00     call        10004550
  10001EB4: 5F                 pop         edi
  10001EB5: 5E                 pop         esi
  10001EB6: 5B                 pop         ebx
  10001EB7: C2 0C 00           ret         0Ch
  10001EBA: CC                 int         3
  10001EBB: CC                 int         3
  10001EBC: CC                 int         3
  10001EBD: CC                 int         3
  10001EBE: CC                 int         3
  10001EBF: CC                 int         3
  10001EC0: 53                 push        ebx
  10001EC1: 56                 push        esi
  10001EC2: 57                 push        edi
  10001EC3: 6A 66              push        66h
  10001EC5: 8B F2              mov         esi,edx
  10001EC7: 8B D9              mov         ebx,ecx
  10001EC9: E8 82 26 00 00     call        10004550
  10001ECE: 0F B6 46 04        movzx       eax,byte ptr [esi+4]
  10001ED2: 50                 push        eax
  10001ED3: 8B CB              mov         ecx,ebx
  10001ED5: E8 76 26 00 00     call        10004550
  10001EDA: 8B 7C 24 10        mov         edi,dword ptr [esp+10h]
  10001EDE: B8 07 00 00 00     mov         eax,7
  10001EE3: E8 48 2A 00 00     call        10004930
  10001EE8: 8B 4C 24 18        mov         ecx,dword ptr [esp+18h]
  10001EEC: 51                 push        ecx
  10001EED: 8B CB              mov         ecx,ebx
  10001EEF: E8 EC 25 00 00     call        100044E0
  10001EF4: 5F                 pop         edi
  10001EF5: 5E                 pop         esi
  10001EF6: 5B                 pop         ebx
  10001EF7: C2 0C 00           ret         0Ch
  10001EFA: CC                 int         3
  10001EFB: CC                 int         3
  10001EFC: CC                 int         3
  10001EFD: CC                 int         3
  10001EFE: CC                 int         3
  10001EFF: CC                 int         3
  10001F00: 0F B6 42 04        movzx       eax,byte ptr [edx+4]
  10001F04: 53                 push        ebx
  10001F05: 57                 push        edi
  10001F06: 50                 push        eax
  10001F07: 8B D9              mov         ebx,ecx
  10001F09: E8 42 26 00 00     call        10004550
  10001F0E: 8B 7C 24 0C        mov         edi,dword ptr [esp+0Ch]
  10001F12: B8 07 00 00 00     mov         eax,7
  10001F17: E8 14 2A 00 00     call        10004930
  10001F1C: 8B 4C 24 14        mov         ecx,dword ptr [esp+14h]
  10001F20: 51                 push        ecx
  10001F21: 8B CB              mov         ecx,ebx
  10001F23: E8 48 25 00 00     call        10004470
  10001F28: 5F                 pop         edi
  10001F29: 5B                 pop         ebx
  10001F2A: C2 0C 00           ret         0Ch
  10001F2D: CC                 int         3
  10001F2E: CC                 int         3
  10001F2F: CC                 int         3
  10001F30: 0F B6 42 04        movzx       eax,byte ptr [edx+4]
  10001F34: 53                 push        ebx
  10001F35: 57                 push        edi
  10001F36: 50                 push        eax
  10001F37: 8B D9              mov         ebx,ecx
  10001F39: E8 12 26 00 00     call        10004550
  10001F3E: 8B 7C 24 0C        mov         edi,dword ptr [esp+0Ch]
  10001F42: B8 07 00 00 00     mov         eax,7
  10001F47: E8 E4 29 00 00     call        10004930
  10001F4C: 8B 4C 24 14        mov         ecx,dword ptr [esp+14h]
  10001F50: 51                 push        ecx
  10001F51: 8B CB              mov         ecx,ebx
  10001F53: E8 F8 25 00 00     call        10004550
  10001F58: 5F                 pop         edi
  10001F59: 5B                 pop         ebx
  10001F5A: C2 0C 00           ret         0Ch
  10001F5D: CC                 int         3
  10001F5E: CC                 int         3
  10001F5F: CC                 int         3
  10001F60: 53                 push        ebx
  10001F61: 56                 push        esi
  10001F62: 57                 push        edi
  10001F63: 8B FA              mov         edi,edx
  10001F65: 8B D9              mov         ebx,ecx
  10001F67: 33 F6              xor         esi,esi
  10001F69: 8D A4 24 00 00 00  lea         esp,[esp+00000000h]
            00
  10001F70: 0F B6 44 37 04     movzx       eax,byte ptr [edi+esi+4]
  10001F75: 50                 push        eax
  10001F76: 8B CB              mov         ecx,ebx
  10001F78: E8 D3 25 00 00     call        10004550
  10001F7D: 46                 inc         esi
  10001F7E: 83 FE 04           cmp         esi,4
  10001F81: 72 ED              jb          10001F70
  10001F83: 8B 4C 24 10        mov         ecx,dword ptr [esp+10h]
  10001F87: 0F B6 41 04        movzx       eax,byte ptr [ecx+4]
  10001F8B: 8B 7C 24 14        mov         edi,dword ptr [esp+14h]
  10001F8F: E8 9C 29 00 00     call        10004930
  10001F94: 5F                 pop         edi
  10001F95: 5E                 pop         esi
  10001F96: 5B                 pop         ebx
  10001F97: C2 0C 00           ret         0Ch
  10001F9A: CC                 int         3
  10001F9B: CC                 int         3
  10001F9C: CC                 int         3
  10001F9D: CC                 int         3
  10001F9E: CC                 int         3
  10001F9F: CC                 int         3
  10001FA0: 53                 push        ebx
  10001FA1: 56                 push        esi
  10001FA2: 57                 push        edi
  10001FA3: 8B FA              mov         edi,edx
  10001FA5: 8B D9              mov         ebx,ecx
  10001FA7: 33 F6              xor         esi,esi
  10001FA9: 8D A4 24 00 00 00  lea         esp,[esp+00000000h]
            00
  10001FB0: 0F B6 44 37 04     movzx       eax,byte ptr [edi+esi+4]
  10001FB5: 50                 push        eax
  10001FB6: 8B CB              mov         ecx,ebx
  10001FB8: E8 93 25 00 00     call        10004550
  10001FBD: 46                 inc         esi
  10001FBE: 83 FE 03           cmp         esi,3
  10001FC1: 72 ED              jb          10001FB0
  10001FC3: 8B 4C 24 10        mov         ecx,dword ptr [esp+10h]
  10001FC7: 0F B6 41 04        movzx       eax,byte ptr [ecx+4]
  10001FCB: 8B 7C 24 14        mov         edi,dword ptr [esp+14h]
  10001FCF: E8 5C 29 00 00     call        10004930
  10001FD4: 8B 54 24 18        mov         edx,dword ptr [esp+18h]
  10001FD8: 52                 push        edx
  10001FD9: 8B CB              mov         ecx,ebx
  10001FDB: E8 70 25 00 00     call        10004550
  10001FE0: 5F                 pop         edi
  10001FE1: 5E                 pop         esi
  10001FE2: 5B                 pop         ebx
  10001FE3: C2 0C 00           ret         0Ch
  10001FE6: CC                 int         3
  10001FE7: CC                 int         3
  10001FE8: CC                 int         3
  10001FE9: CC                 int         3
  10001FEA: CC                 int         3
  10001FEB: CC                 int         3
  10001FEC: CC                 int         3
  10001FED: CC                 int         3
  10001FEE: CC                 int         3
  10001FEF: CC                 int         3
  10001FF0: 53                 push        ebx
  10001FF1: 56                 push        esi
  10001FF2: 57                 push        edi
  10001FF3: 8B FA              mov         edi,edx
  10001FF5: 8B D9              mov         ebx,ecx
  10001FF7: 33 F6              xor         esi,esi
  10001FF9: 8D A4 24 00 00 00  lea         esp,[esp+00000000h]
            00
  10002000: 0F B6 44 37 04     movzx       eax,byte ptr [edi+esi+4]
  10002005: 50                 push        eax
  10002006: 8B CB              mov         ecx,ebx
  10002008: E8 43 25 00 00     call        10004550
  1000200D: 46                 inc         esi
  1000200E: 83 FE 02           cmp         esi,2
  10002011: 72 ED              jb          10002000
  10002013: 8B 4C 24 10        mov         ecx,dword ptr [esp+10h]
  10002017: 0F B6 41 04        movzx       eax,byte ptr [ecx+4]
  1000201B: 8B 7C 24 14        mov         edi,dword ptr [esp+14h]
  1000201F: E8 0C 29 00 00     call        10004930
  10002024: 8B 54 24 18        mov         edx,dword ptr [esp+18h]
  10002028: 52                 push        edx
  10002029: 8B CB              mov         ecx,ebx
  1000202B: E8 20 25 00 00     call        10004550
  10002030: 5F                 pop         edi
  10002031: 5E                 pop         esi
  10002032: 5B                 pop         ebx
  10002033: C2 0C 00           ret         0Ch
  10002036: CC                 int         3
  10002037: CC                 int         3
  10002038: CC                 int         3
  10002039: CC                 int         3
  1000203A: CC                 int         3
  1000203B: CC                 int         3
  1000203C: CC                 int         3
  1000203D: CC                 int         3
  1000203E: CC                 int         3
  1000203F: CC                 int         3
  10002040: 53                 push        ebx
  10002041: 56                 push        esi
  10002042: 57                 push        edi
  10002043: 8B FA              mov         edi,edx
  10002045: 8B D9              mov         ebx,ecx
  10002047: 33 F6              xor         esi,esi
  10002049: 8D A4 24 00 00 00  lea         esp,[esp+00000000h]
            00
  10002050: 0F B6 44 37 04     movzx       eax,byte ptr [edi+esi+4]
  10002055: 50                 push        eax
  10002056: 8B CB              mov         ecx,ebx
  10002058: E8 F3 24 00 00     call        10004550
  1000205D: 46                 inc         esi
  1000205E: 83 FE 02           cmp         esi,2
  10002061: 72 ED              jb          10002050
  10002063: 8B 7C 24 10        mov         edi,dword ptr [esp+10h]
  10002067: B8 01 00 00 00     mov         eax,1
  1000206C: E8 BF 28 00 00     call        10004930
  10002071: 5F                 pop         edi
  10002072: 5E                 pop         esi
  10002073: 5B                 pop         ebx
  10002074: C2 0C 00           ret         0Ch
  10002077: CC                 int         3
  10002078: CC                 int         3
  10002079: CC                 int         3
  1000207A: CC                 int         3
  1000207B: CC                 int         3
  1000207C: CC                 int         3
  1000207D: CC                 int         3
  1000207E: CC                 int         3
  1000207F: CC                 int         3
  10002080: 53                 push        ebx
  10002081: 56                 push        esi
  10002082: 57                 push        edi
  10002083: 6A 66              push        66h
  10002085: 8B F2              mov         esi,edx
  10002087: 8B D9              mov         ebx,ecx
  10002089: E8 C2 24 00 00     call        10004550
  1000208E: 0F B6 46 04        movzx       eax,byte ptr [esi+4]
  10002092: 50                 push        eax
  10002093: 8B CB              mov         ecx,ebx
  10002095: E8 B6 24 00 00     call        10004550
  1000209A: 8B 7C 24 10        mov         edi,dword ptr [esp+10h]
  1000209E: B8 01 00 00 00     mov         eax,1
  100020A3: E8 88 28 00 00     call        10004930
  100020A8: 5F                 pop         edi
  100020A9: 5E                 pop         esi
  100020AA: 5B                 pop         ebx
  100020AB: C2 0C 00           ret         0Ch
  100020AE: CC                 int         3
  100020AF: CC                 int         3
  100020B0: 56                 push        esi
  100020B1: 57                 push        edi
  100020B2: 6A 66              push        66h
  100020B4: 8B FA              mov         edi,edx
  100020B6: 8B F1              mov         esi,ecx
  100020B8: E8 93 24 00 00     call        10004550
  100020BD: 8B 44 24 0C        mov         eax,dword ptr [esp+0Ch]
  100020C1: 0F B6 48 04        movzx       ecx,byte ptr [eax+4]
  100020C5: 0F B6 57 04        movzx       edx,byte ptr [edi+4]
  100020C9: 83 E1 07           and         ecx,7
  100020CC: 03 CA              add         ecx,edx
  100020CE: 51                 push        ecx
  100020CF: 8B CE              mov         ecx,esi
  100020D1: E8 7A 24 00 00     call        10004550
  100020D6: 5F                 pop         edi
  100020D7: 5E                 pop         esi
  100020D8: C2 0C 00           ret         0Ch
  100020DB: CC                 int         3
  100020DC: CC                 int         3
  100020DD: CC                 int         3
  100020DE: CC                 int         3
  100020DF: CC                 int         3
  100020E0: 0F B6 42 04        movzx       eax,byte ptr [edx+4]
  100020E4: 53                 push        ebx
  100020E5: 57                 push        edi
  100020E6: 50                 push        eax
  100020E7: 8B D9              mov         ebx,ecx
  100020E9: E8 62 24 00 00     call        10004550
  100020EE: 8B 7C 24 0C        mov         edi,dword ptr [esp+0Ch]
  100020F2: B8 01 00 00 00     mov         eax,1
  100020F7: E8 34 28 00 00     call        10004930
  100020FC: 5F                 pop         edi
  100020FD: 5B                 pop         ebx
  100020FE: C2 0C 00           ret         0Ch
  10002101: CC                 int         3
  10002102: CC                 int         3
  10002103: CC                 int         3
  10002104: CC                 int         3
  10002105: CC                 int         3
  10002106: CC                 int         3
  10002107: CC                 int         3
  10002108: CC                 int         3
  10002109: CC                 int         3
  1000210A: CC                 int         3
  1000210B: CC                 int         3
  1000210C: CC                 int         3
  1000210D: CC                 int         3
  1000210E: CC                 int         3
  1000210F: CC                 int         3
  10002110: 8B 44 24 04        mov         eax,dword ptr [esp+4]
  10002114: 0F B6 40 04        movzx       eax,byte ptr [eax+4]
  10002118: 0F B6 52 04        movzx       edx,byte ptr [edx+4]
  1000211C: 83 E0 07           and         eax,7
  1000211F: 03 C2              add         eax,edx
  10002121: 50                 push        eax
  10002122: E8 29 24 00 00     call        10004550
  10002127: C2 0C 00           ret         0Ch
  1000212A: CC                 int         3
  1000212B: CC                 int         3
  1000212C: CC                 int         3
  1000212D: CC                 int         3
  1000212E: CC                 int         3
  1000212F: CC                 int         3
  10002130: 53                 push        ebx
  10002131: 56                 push        esi
  10002132: 57                 push        edi
  10002133: 6A 66              push        66h
  10002135: 8B F2              mov         esi,edx
  10002137: 8B D9              mov         ebx,ecx
  10002139: E8 12 24 00 00     call        10004550
  1000213E: 0F B6 46 04        movzx       eax,byte ptr [esi+4]
  10002142: 50                 push        eax
  10002143: 8B CB              mov         ecx,ebx
  10002145: E8 06 24 00 00     call        10004550
  1000214A: 8B 7C 24 10        mov         edi,dword ptr [esp+10h]
  1000214E: B8 06 00 00 00     mov         eax,6
  10002153: E8 D8 27 00 00     call        10004930
  10002158: 5F                 pop         edi
  10002159: 5E                 pop         esi
  1000215A: 5B                 pop         ebx
  1000215B: C2 0C 00           ret         0Ch
  1000215E: CC                 int         3
  1000215F: CC                 int         3
  10002160: 0F B6 42 04        movzx       eax,byte ptr [edx+4]
  10002164: 53                 push        ebx
  10002165: 57                 push        edi
  10002166: 50                 push        eax
  10002167: 8B D9              mov         ebx,ecx
  10002169: E8 E2 23 00 00     call        10004550
  1000216E: 8B 7C 24 0C        mov         edi,dword ptr [esp+0Ch]
  10002172: B8 06 00 00 00     mov         eax,6
  10002177: E8 B4 27 00 00     call        10004930
  1000217C: 5F                 pop         edi
  1000217D: 5B                 pop         ebx
  1000217E: C2 0C 00           ret         0Ch
  10002181: CC                 int         3
  10002182: CC                 int         3
  10002183: CC                 int         3
  10002184: CC                 int         3
  10002185: CC                 int         3
  10002186: CC                 int         3
  10002187: CC                 int         3
  10002188: CC                 int         3
  10002189: CC                 int         3
  1000218A: CC                 int         3
  1000218B: CC                 int         3
  1000218C: CC                 int         3
  1000218D: CC                 int         3
  1000218E: CC                 int         3
  1000218F: CC                 int         3
  10002190: 51                 push        ecx
  10002191: 53                 push        ebx
  10002192: 55                 push        ebp
  10002193: 8B 2D 90 60 00 10  mov         ebp,dword ptr ds:[10006090h]
  10002199: 56                 push        esi
  1000219A: 57                 push        edi
  1000219B: 89 54 24 10        mov         dword ptr [esp+10h],edx
  1000219F: 8B F1              mov         esi,ecx
  100021A1: 33 FF              xor         edi,edi
  100021A3: 8B 4E 14           mov         ecx,dword ptr [esi+14h]
  100021A6: 8B 44 24 10        mov         eax,dword ptr [esp+10h]
  100021AA: 0F B6 5C 38 04     movzx       ebx,byte ptr [eax+edi+4]
  100021AF: 83 C1 0F           add         ecx,0Fh
  100021B2: 39 4E 18           cmp         dword ptr [esi+18h],ecx
  100021B5: 73 3E              jae         100021F5
  100021B7: 80 7E 1C 00        cmp         byte ptr [esi+1Ch],0
  100021BB: 75 1A              jne         100021D7
  100021BD: 68 00 01 00 00     push        100h
  100021C2: 68 E4 FB 00 10     push        1000FBE4h
  100021C7: 68 58 FC 00 10     push        1000FC58h
  100021CC: 68 78 FC 00 10     push        1000FC78h
  100021D1: FF D5              call        ebp
  100021D3: 83 C4 10           add         esp,10h
  100021D6: CC                 int         3
  100021D7: 8B 46 18           mov         eax,dword ptr [esi+18h]
  100021DA: 8B 56 10           mov         edx,dword ptr [esi+10h]
  100021DD: 8D 8C 00 00 01 00  lea         ecx,[eax+eax+00000100h]
            00
  100021E4: 51                 push        ecx
  100021E5: 50                 push        eax
  100021E6: 8B 46 04           mov         eax,dword ptr [esi+4]
  100021E9: 52                 push        edx
  100021EA: 89 4E 18           mov         dword ptr [esi+18h],ecx
  100021ED: FF D0              call        eax
  100021EF: 83 C4 0C           add         esp,0Ch
  100021F2: 89 46 10           mov         dword ptr [esi+10h],eax
  100021F5: 8B 56 14           mov         edx,dword ptr [esi+14h]
  100021F8: 8B 4E 10           mov         ecx,dword ptr [esi+10h]
  100021FB: 88 1C 11           mov         byte ptr [ecx+edx],bl
  100021FE: FF 46 14           inc         dword ptr [esi+14h]
  10002201: 47                 inc         edi
  10002202: 83 FF 03           cmp         edi,3
  10002205: 72 9C              jb          100021A3
  10002207: 5F                 pop         edi
  10002208: 5E                 pop         esi
  10002209: 5D                 pop         ebp
  1000220A: 5B                 pop         ebx
  1000220B: 59                 pop         ecx
  1000220C: C2 0C 00           ret         0Ch
  1000220F: CC                 int         3
  10002210: 0F B6 42 04        movzx       eax,byte ptr [edx+4]
  10002214: 53                 push        ebx
  10002215: 57                 push        edi
  10002216: 50                 push        eax
  10002217: 8B D9              mov         ebx,ecx
  10002219: E8 32 23 00 00     call        10004550
  1000221E: 8B 7C 24 0C        mov         edi,dword ptr [esp+0Ch]
  10002222: B8 03 00 00 00     mov         eax,3
  10002227: E8 04 27 00 00     call        10004930
  1000222C: 5F                 pop         edi
  1000222D: 5B                 pop         ebx
  1000222E: C2 0C 00           ret         0Ch
  10002231: CC                 int         3
  10002232: CC                 int         3
  10002233: CC                 int         3
  10002234: CC                 int         3
  10002235: CC                 int         3
  10002236: CC                 int         3
  10002237: CC                 int         3
  10002238: CC                 int         3
  10002239: CC                 int         3
  1000223A: CC                 int         3
  1000223B: CC                 int         3
  1000223C: CC                 int         3
  1000223D: CC                 int         3
  1000223E: CC                 int         3
  1000223F: CC                 int         3
  10002240: 53                 push        ebx
  10002241: 56                 push        esi
  10002242: 57                 push        edi
  10002243: 6A 66              push        66h
  10002245: 8B F2              mov         esi,edx
  10002247: 8B D9              mov         ebx,ecx
  10002249: E8 02 23 00 00     call        10004550
  1000224E: 0F B6 46 04        movzx       eax,byte ptr [esi+4]
  10002252: 50                 push        eax
  10002253: 8B CB              mov         ecx,ebx
  10002255: E8 F6 22 00 00     call        10004550
  1000225A: 8B 7C 24 10        mov         edi,dword ptr [esp+10h]
  1000225E: 33 C0              xor         eax,eax
  10002260: E8 CB 26 00 00     call        10004930
  10002265: 5F                 pop         edi
  10002266: 5E                 pop         esi
  10002267: 5B                 pop         ebx
  10002268: C2 0C 00           ret         0Ch
  1000226B: CC                 int         3
  1000226C: CC                 int         3
  1000226D: CC                 int         3
  1000226E: CC                 int         3
  1000226F: CC                 int         3
  10002270: 53                 push        ebx
  10002271: 56                 push        esi
  10002272: 57                 push        edi
  10002273: 6A 66              push        66h
  10002275: 8B F2              mov         esi,edx
  10002277: 8B D9              mov         ebx,ecx
  10002279: E8 D2 22 00 00     call        10004550
  1000227E: 0F B6 46 04        movzx       eax,byte ptr [esi+4]
  10002282: 50                 push        eax
  10002283: 8B CB              mov         ecx,ebx
  10002285: E8 C6 22 00 00     call        10004550
  1000228A: 8B 7C 24 10        mov         edi,dword ptr [esp+10h]
  1000228E: B8 02 00 00 00     mov         eax,2
  10002293: E8 98 26 00 00     call        10004930
  10002298: 5F                 pop         edi
  10002299: 5E                 pop         esi
  1000229A: 5B                 pop         ebx
  1000229B: C2 0C 00           ret         0Ch
  1000229E: CC                 int         3
  1000229F: CC                 int         3
  100022A0: 53                 push        ebx
  100022A1: 56                 push        esi
  100022A2: 57                 push        edi
  100022A3: 6A 66              push        66h
  100022A5: 8B F2              mov         esi,edx
  100022A7: 8B D9              mov         ebx,ecx
  100022A9: E8 A2 22 00 00     call        10004550
  100022AE: 0F B6 46 04        movzx       eax,byte ptr [esi+4]
  100022B2: 50                 push        eax
  100022B3: 8B CB              mov         ecx,ebx
  100022B5: E8 96 22 00 00     call        10004550
  100022BA: 8B 7C 24 10        mov         edi,dword ptr [esp+10h]
  100022BE: B8 03 00 00 00     mov         eax,3
  100022C3: E8 68 26 00 00     call        10004930
  100022C8: 5F                 pop         edi
  100022C9: 5E                 pop         esi
  100022CA: 5B                 pop         ebx
  100022CB: C2 0C 00           ret         0Ch
  100022CE: CC                 int         3
  100022CF: CC                 int         3
  100022D0: 53                 push        ebx
  100022D1: 56                 push        esi
  100022D2: 57                 push        edi
  100022D3: 6A 66              push        66h
  100022D5: 8B F2              mov         esi,edx
  100022D7: 8B D9              mov         ebx,ecx
  100022D9: E8 72 22 00 00     call        10004550
  100022DE: 0F B6 46 04        movzx       eax,byte ptr [esi+4]
  100022E2: 50                 push        eax
  100022E3: 8B CB              mov         ecx,ebx
  100022E5: E8 66 22 00 00     call        10004550
  100022EA: 8B 7C 24 10        mov         edi,dword ptr [esp+10h]
  100022EE: B8 07 00 00 00     mov         eax,7
  100022F3: E8 38 26 00 00     call        10004930
  100022F8: 5F                 pop         edi
  100022F9: 5E                 pop         esi
  100022FA: 5B                 pop         ebx
  100022FB: C2 0C 00           ret         0Ch
  100022FE: CC                 int         3
  100022FF: CC                 int         3
  10002300: 0F B6 42 04        movzx       eax,byte ptr [edx+4]
  10002304: 53                 push        ebx
  10002305: 57                 push        edi
  10002306: 50                 push        eax
  10002307: 8B D9              mov         ebx,ecx
  10002309: E8 42 22 00 00     call        10004550
  1000230E: 8B 7C 24 0C        mov         edi,dword ptr [esp+0Ch]
  10002312: B8 04 00 00 00     mov         eax,4
  10002317: E8 14 26 00 00     call        10004930
  1000231C: 5F                 pop         edi
  1000231D: 5B                 pop         ebx
  1000231E: C2 0C 00           ret         0Ch
  10002321: CC                 int         3
  10002322: CC                 int         3
  10002323: CC                 int         3
  10002324: CC                 int         3
  10002325: CC                 int         3
  10002326: CC                 int         3
  10002327: CC                 int         3
  10002328: CC                 int         3
  10002329: CC                 int         3
  1000232A: CC                 int         3
  1000232B: CC                 int         3
  1000232C: CC                 int         3
  1000232D: CC                 int         3
  1000232E: CC                 int         3
  1000232F: CC                 int         3
  10002330: 53                 push        ebx
  10002331: 56                 push        esi
  10002332: 57                 push        edi
  10002333: 6A 66              push        66h
  10002335: 8B F2              mov         esi,edx
  10002337: 8B D9              mov         ebx,ecx
  10002339: E8 12 22 00 00     call        10004550
  1000233E: 0F B6 46 04        movzx       eax,byte ptr [esi+4]
  10002342: 50                 push        eax
  10002343: 8B CB              mov         ecx,ebx
  10002345: E8 06 22 00 00     call        10004550
  1000234A: 8B 7C 24 10        mov         edi,dword ptr [esp+10h]
  1000234E: B8 04 00 00 00     mov         eax,4
  10002353: E8 D8 25 00 00     call        10004930
  10002358: 5F                 pop         edi
  10002359: 5E                 pop         esi
  1000235A: 5B                 pop         ebx
  1000235B: C2 0C 00           ret         0Ch
  1000235E: CC                 int         3
  1000235F: CC                 int         3
  10002360: 53                 push        ebx
  10002361: 56                 push        esi
  10002362: 57                 push        edi
  10002363: 6A 66              push        66h
  10002365: 8B F2              mov         esi,edx
  10002367: 8B D9              mov         ebx,ecx
  10002369: E8 E2 21 00 00     call        10004550
  1000236E: 0F B6 46 04        movzx       eax,byte ptr [esi+4]
  10002372: 50                 push        eax
  10002373: 8B CB              mov         ecx,ebx
  10002375: E8 D6 21 00 00     call        10004550
  1000237A: 8B 7C 24 10        mov         edi,dword ptr [esp+10h]
  1000237E: B8 05 00 00 00     mov         eax,5
  10002383: E8 A8 25 00 00     call        10004930
  10002388: 5F                 pop         edi
  10002389: 5E                 pop         esi
  1000238A: 5B                 pop         ebx
  1000238B: C2 0C 00           ret         0Ch
  1000238E: CC                 int         3
  1000238F: CC                 int         3
  10002390: 51                 push        ecx
  10002391: 53                 push        ebx
  10002392: 55                 push        ebp
  10002393: 56                 push        esi
  10002394: 57                 push        edi
  10002395: 6A 66              push        66h
  10002397: 89 54 24 14        mov         dword ptr [esp+14h],edx
  1000239B: 8B F1              mov         esi,ecx
  1000239D: E8 AE 21 00 00     call        10004550
  100023A2: 8B 2D 90 60 00 10  mov         ebp,dword ptr ds:[10006090h]
  100023A8: 33 FF              xor         edi,edi
  100023AA: 8D 9B 00 00 00 00  lea         ebx,[ebx+00000000h]
  100023B0: 8B 4E 14           mov         ecx,dword ptr [esi+14h]
  100023B3: 8B 44 24 10        mov         eax,dword ptr [esp+10h]
  100023B7: 0F B6 5C 38 04     movzx       ebx,byte ptr [eax+edi+4]
  100023BC: 83 C1 0F           add         ecx,0Fh
  100023BF: 39 4E 18           cmp         dword ptr [esi+18h],ecx
  100023C2: 73 3E              jae         10002402
  100023C4: 80 7E 1C 00        cmp         byte ptr [esi+1Ch],0
  100023C8: 75 1A              jne         100023E4
  100023CA: 68 00 01 00 00     push        100h
  100023CF: 68 E4 FB 00 10     push        1000FBE4h
  100023D4: 68 58 FC 00 10     push        1000FC58h
  100023D9: 68 78 FC 00 10     push        1000FC78h
  100023DE: FF D5              call        ebp
  100023E0: 83 C4 10           add         esp,10h
  100023E3: CC                 int         3
  100023E4: 8B 46 18           mov         eax,dword ptr [esi+18h]
  100023E7: 8B 56 10           mov         edx,dword ptr [esi+10h]
  100023EA: 8D 8C 00 00 01 00  lea         ecx,[eax+eax+00000100h]
            00
  100023F1: 51                 push        ecx
  100023F2: 50                 push        eax
  100023F3: 8B 46 04           mov         eax,dword ptr [esi+4]
  100023F6: 52                 push        edx
  100023F7: 89 4E 18           mov         dword ptr [esi+18h],ecx
  100023FA: FF D0              call        eax
  100023FC: 83 C4 0C           add         esp,0Ch
  100023FF: 89 46 10           mov         dword ptr [esi+10h],eax
  10002402: 8B 56 14           mov         edx,dword ptr [esi+14h]
  10002405: 8B 4E 10           mov         ecx,dword ptr [esi+10h]
  10002408: 88 1C 11           mov         byte ptr [ecx+edx],bl
  1000240B: FF 46 14           inc         dword ptr [esi+14h]
  1000240E: 47                 inc         edi
  1000240F: 83 FF 02           cmp         edi,2
  10002412: 72 9C              jb          100023B0
  10002414: 5F                 pop         edi
  10002415: 5E                 pop         esi
  10002416: 5D                 pop         ebp
  10002417: 5B                 pop         ebx
  10002418: 59                 pop         ecx
  10002419: C2 0C 00           ret         0Ch
  1000241C: CC                 int         3
  1000241D: CC                 int         3
  1000241E: CC                 int         3
  1000241F: CC                 int         3
  10002420: 51                 push        ecx
  10002421: 53                 push        ebx
  10002422: 55                 push        ebp
  10002423: 56                 push        esi
  10002424: 57                 push        edi
  10002425: 6A 66              push        66h
  10002427: 89 54 24 14        mov         dword ptr [esp+14h],edx
  1000242B: 8B F1              mov         esi,ecx
  1000242D: E8 1E 21 00 00     call        10004550
  10002432: 8B 2D 90 60 00 10  mov         ebp,dword ptr ds:[10006090h]
  10002438: 33 FF              xor         edi,edi
  1000243A: 8D 9B 00 00 00 00  lea         ebx,[ebx+00000000h]
  10002440: 8B 4E 14           mov         ecx,dword ptr [esi+14h]
  10002443: 8B 44 24 10        mov         eax,dword ptr [esp+10h]
  10002447: 0F B6 5C 38 04     movzx       ebx,byte ptr [eax+edi+4]
  1000244C: 83 C1 0F           add         ecx,0Fh
  1000244F: 39 4E 18           cmp         dword ptr [esi+18h],ecx
  10002452: 73 3E              jae         10002492
  10002454: 80 7E 1C 00        cmp         byte ptr [esi+1Ch],0
  10002458: 75 1A              jne         10002474
  1000245A: 68 00 01 00 00     push        100h
  1000245F: 68 E4 FB 00 10     push        1000FBE4h
  10002464: 68 58 FC 00 10     push        1000FC58h
  10002469: 68 78 FC 00 10     push        1000FC78h
  1000246E: FF D5              call        ebp
  10002470: 83 C4 10           add         esp,10h
  10002473: CC                 int         3
  10002474: 8B 46 18           mov         eax,dword ptr [esi+18h]
  10002477: 8B 56 10           mov         edx,dword ptr [esi+10h]
  1000247A: 8D 8C 00 00 01 00  lea         ecx,[eax+eax+00000100h]
            00
  10002481: 51                 push        ecx
  10002482: 50                 push        eax
  10002483: 8B 46 04           mov         eax,dword ptr [esi+4]
  10002486: 52                 push        edx
  10002487: 89 4E 18           mov         dword ptr [esi+18h],ecx
  1000248A: FF D0              call        eax
  1000248C: 83 C4 0C           add         esp,0Ch
  1000248F: 89 46 10           mov         dword ptr [esi+10h],eax
  10002492: 8B 56 14           mov         edx,dword ptr [esi+14h]
  10002495: 8B 4E 10           mov         ecx,dword ptr [esi+10h]
  10002498: 88 1C 11           mov         byte ptr [ecx+edx],bl
  1000249B: FF 46 14           inc         dword ptr [esi+14h]
  1000249E: 47                 inc         edi
  1000249F: 83 FF 03           cmp         edi,3
  100024A2: 72 9C              jb          10002440
  100024A4: 5F                 pop         edi
  100024A5: 5E                 pop         esi
  100024A6: 5D                 pop         ebp
  100024A7: 5B                 pop         ebx
  100024A8: 59                 pop         ecx
  100024A9: C2 0C 00           ret         0Ch
  100024AC: CC                 int         3
  100024AD: CC                 int         3
  100024AE: CC                 int         3
  100024AF: CC                 int         3
  100024B0: 0F B6 42 04        movzx       eax,byte ptr [edx+4]
  100024B4: 53                 push        ebx
  100024B5: 57                 push        edi
  100024B6: 50                 push        eax
  100024B7: 8B D9              mov         ebx,ecx
  100024B9: E8 92 20 00 00     call        10004550
  100024BE: 8B 7C 24 0C        mov         edi,dword ptr [esp+0Ch]
  100024C2: B8 07 00 00 00     mov         eax,7
  100024C7: E8 64 24 00 00     call        10004930
  100024CC: 5F                 pop         edi
  100024CD: 5B                 pop         ebx
  100024CE: C2 0C 00           ret         0Ch
  100024D1: CC                 int         3
  100024D2: CC                 int         3
  100024D3: CC                 int         3
  100024D4: CC                 int         3
  100024D5: CC                 int         3
  100024D6: CC                 int         3
  100024D7: CC                 int         3
  100024D8: CC                 int         3
  100024D9: CC                 int         3
  100024DA: CC                 int         3
  100024DB: CC                 int         3
  100024DC: CC                 int         3
  100024DD: CC                 int         3
  100024DE: CC                 int         3
  100024DF: CC                 int         3
  100024E0: 0F B6 42 04        movzx       eax,byte ptr [edx+4]
  100024E4: 53                 push        ebx
  100024E5: 57                 push        edi
  100024E6: 50                 push        eax
  100024E7: 8B D9              mov         ebx,ecx
  100024E9: E8 62 20 00 00     call        10004550
  100024EE: 8B 4C 24 0C        mov         ecx,dword ptr [esp+0Ch]
  100024F2: 0F B6 41 04        movzx       eax,byte ptr [ecx+4]
  100024F6: 8B 7C 24 10        mov         edi,dword ptr [esp+10h]
  100024FA: E8 31 24 00 00     call        10004930
  100024FF: 8B 54 24 14        mov         edx,dword ptr [esp+14h]
  10002503: 52                 push        edx
  10002504: 8B CB              mov         ecx,ebx
  10002506: E8 45 20 00 00     call        10004550
  1000250B: 5F                 pop         edi
  1000250C: 5B                 pop         ebx
  1000250D: C2 0C 00           ret         0Ch
  10002510: 0F B6 42 04        movzx       eax,byte ptr [edx+4]
  10002514: 53                 push        ebx
  10002515: 57                 push        edi
  10002516: 50                 push        eax
  10002517: 8B D9              mov         ebx,ecx
  10002519: E8 32 20 00 00     call        10004550
  1000251E: 8B 4C 24 0C        mov         ecx,dword ptr [esp+0Ch]
  10002522: 0F B6 41 04        movzx       eax,byte ptr [ecx+4]
  10002526: 8B 7C 24 10        mov         edi,dword ptr [esp+10h]
  1000252A: E8 01 24 00 00     call        10004930
  1000252F: 8B 54 24 14        mov         edx,dword ptr [esp+14h]
  10002533: 52                 push        edx
  10002534: 8B CB              mov         ecx,ebx
  10002536: E8 35 1F 00 00     call        10004470
  1000253B: 5F                 pop         edi
  1000253C: 5B                 pop         ebx
  1000253D: C2 0C 00           ret         0Ch
  10002540: 53                 push        ebx
  10002541: 56                 push        esi
  10002542: 57                 push        edi
  10002543: 6A 66              push        66h
  10002545: 8B F2              mov         esi,edx
  10002547: 8B D9              mov         ebx,ecx
  10002549: E8 02 20 00 00     call        10004550
  1000254E: 0F B6 46 04        movzx       eax,byte ptr [esi+4]
  10002552: 50                 push        eax
  10002553: 8B CB              mov         ecx,ebx
  10002555: E8 F6 1F 00 00     call        10004550
  1000255A: 8B 4C 24 10        mov         ecx,dword ptr [esp+10h]
  1000255E: 0F B6 41 04        movzx       eax,byte ptr [ecx+4]
  10002562: 8B 7C 24 14        mov         edi,dword ptr [esp+14h]
  10002566: E8 C5 23 00 00     call        10004930
  1000256B: 8B 54 24 18        mov         edx,dword ptr [esp+18h]
  1000256F: 52                 push        edx
  10002570: 8B CB              mov         ecx,ebx
  10002572: E8 D9 1F 00 00     call        10004550
  10002577: 5F                 pop         edi
  10002578: 5E                 pop         esi
  10002579: 5B                 pop         ebx
  1000257A: C2 0C 00           ret         0Ch
  1000257D: CC                 int         3
  1000257E: CC                 int         3
  1000257F: CC                 int         3
  10002580: 53                 push        ebx
  10002581: 56                 push        esi
  10002582: 57                 push        edi
  10002583: 6A 66              push        66h
  10002585: 8B F2              mov         esi,edx
  10002587: 8B D9              mov         ebx,ecx
  10002589: E8 C2 1F 00 00     call        10004550
  1000258E: 0F B6 46 04        movzx       eax,byte ptr [esi+4]
  10002592: 50                 push        eax
  10002593: 8B CB              mov         ecx,ebx
  10002595: E8 B6 1F 00 00     call        10004550
  1000259A: 8B 4C 24 10        mov         ecx,dword ptr [esp+10h]
  1000259E: 0F B6 41 04        movzx       eax,byte ptr [ecx+4]
  100025A2: 8B 7C 24 14        mov         edi,dword ptr [esp+14h]
  100025A6: E8 85 23 00 00     call        10004930
  100025AB: 8B 54 24 18        mov         edx,dword ptr [esp+18h]
  100025AF: 52                 push        edx
  100025B0: 8B CB              mov         ecx,ebx
  100025B2: E8 29 1F 00 00     call        100044E0
  100025B7: 5F                 pop         edi
  100025B8: 5E                 pop         esi
  100025B9: 5B                 pop         ebx
  100025BA: C2 0C 00           ret         0Ch
  100025BD: CC                 int         3
  100025BE: CC                 int         3
  100025BF: CC                 int         3
  100025C0: 0F B6 42 04        movzx       eax,byte ptr [edx+4]
  100025C4: 53                 push        ebx
  100025C5: 57                 push        edi
  100025C6: 50                 push        eax
  100025C7: 8B D9              mov         ebx,ecx
  100025C9: E8 82 1F 00 00     call        10004550
  100025CE: 8B 7C 24 0C        mov         edi,dword ptr [esp+0Ch]
  100025D2: B8 05 00 00 00     mov         eax,5
  100025D7: E8 54 23 00 00     call        10004930
  100025DC: 5F                 pop         edi
  100025DD: 5B                 pop         ebx
  100025DE: C2 0C 00           ret         0Ch
  100025E1: CC                 int         3
  100025E2: CC                 int         3
  100025E3: CC                 int         3
  100025E4: CC                 int         3
  100025E5: CC                 int         3
  100025E6: CC                 int         3
  100025E7: CC                 int         3
  100025E8: CC                 int         3
  100025E9: CC                 int         3
  100025EA: CC                 int         3
  100025EB: CC                 int         3
  100025EC: CC                 int         3
  100025ED: CC                 int         3
  100025EE: CC                 int         3
  100025EF: CC                 int         3
  100025F0: 0F B6 42 04        movzx       eax,byte ptr [edx+4]
  100025F4: 53                 push        ebx
  100025F5: 57                 push        edi
  100025F6: 50                 push        eax
  100025F7: 8B D9              mov         ebx,ecx
  100025F9: E8 52 1F 00 00     call        10004550
  100025FE: 8B 7C 24 0C        mov         edi,dword ptr [esp+0Ch]
  10002602: 33 C0              xor         eax,eax
  10002604: E8 27 23 00 00     call        10004930
  10002609: 5F                 pop         edi
  1000260A: 5B                 pop         ebx
  1000260B: C2 0C 00           ret         0Ch
  1000260E: CC                 int         3
  1000260F: CC                 int         3
  10002610: 53                 push        ebx
  10002611: 56                 push        esi
  10002612: 57                 push        edi
  10002613: 8B FA              mov         edi,edx
  10002615: 8B D9              mov         ebx,ecx
  10002617: 33 F6              xor         esi,esi
  10002619: 8D A4 24 00 00 00  lea         esp,[esp+00000000h]
            00
  10002620: 0F B6 44 37 04     movzx       eax,byte ptr [edi+esi+4]
  10002625: 50                 push        eax
  10002626: 8B CB              mov         ecx,ebx
  10002628: E8 23 1F 00 00     call        10004550
  1000262D: 46                 inc         esi
  1000262E: 83 FE 02           cmp         esi,2
  10002631: 72 ED              jb          10002620
  10002633: 8B 7C 24 10        mov         edi,dword ptr [esp+10h]
  10002637: B8 07 00 00 00     mov         eax,7
  1000263C: E8 EF 22 00 00     call        10004930
  10002641: 5F                 pop         edi
  10002642: 5E                 pop         esi
  10002643: 5B                 pop         ebx
  10002644: C2 0C 00           ret         0Ch
  10002647: CC                 int         3
  10002648: CC                 int         3
  10002649: CC                 int         3
  1000264A: CC                 int         3
  1000264B: CC                 int         3
  1000264C: CC                 int         3
  1000264D: CC                 int         3
  1000264E: CC                 int         3
  1000264F: CC                 int         3
  10002650: 83 EC 0C           sub         esp,0Ch
  10002653: 0F B6 42 04        movzx       eax,byte ptr [edx+4]
  10002657: 56                 push        esi
  10002658: 57                 push        edi
  10002659: 50                 push        eax
  1000265A: 8B F1              mov         esi,ecx
  1000265C: E8 EF 1E 00 00     call        10004550
  10002661: 8B 44 24 18        mov         eax,dword ptr [esp+18h]
  10002665: 80 78 08 00        cmp         byte ptr [eax+8],0
  10002669: 8B 48 04           mov         ecx,dword ptr [eax+4]
  1000266C: 89 4C 24 0C        mov         dword ptr [esp+0Ch],ecx
  10002670: C6 44 24 08 01     mov         byte ptr [esp+8],1
  10002675: 74 05              je          1000267C
  10002677: C6 44 24 08 11     mov         byte ptr [esp+8],11h
  1000267C: 8B 56 14           mov         edx,dword ptr [esi+14h]
  1000267F: 8B 7E 0C           mov         edi,dword ptr [esi+0Ch]
  10002682: 8D 44 24 08        lea         eax,[esp+8]
  10002686: 89 54 24 10        mov         dword ptr [esp+10h],edx
  1000268A: E8 41 0A 00 00     call        100030D0
  1000268F: 6A 12              push        12h
  10002691: 8B CE              mov         ecx,esi
  10002693: E8 B8 1E 00 00     call        10004550
  10002698: 5F                 pop         edi
  10002699: 5E                 pop         esi
  1000269A: 83 C4 0C           add         esp,0Ch
  1000269D: C2 0C 00           ret         0Ch
  100026A0: 83 EC 0C           sub         esp,0Ch
  100026A3: 53                 push        ebx
  100026A4: 56                 push        esi
  100026A5: 57                 push        edi
  100026A6: 8B FA              mov         edi,edx
  100026A8: 8B D9              mov         ebx,ecx
  100026AA: 33 F6              xor         esi,esi
  100026AC: 8D 64 24 00        lea         esp,[esp]
  100026B0: 0F B6 44 37 04     movzx       eax,byte ptr [edi+esi+4]
  100026B5: 50                 push        eax
  100026B6: 8B CB              mov         ecx,ebx
  100026B8: E8 93 1E 00 00     call        10004550
  100026BD: 46                 inc         esi
  100026BE: 83 FE 02           cmp         esi,2
  100026C1: 72 ED              jb          100026B0
  100026C3: 8B 44 24 1C        mov         eax,dword ptr [esp+1Ch]
  100026C7: 80 78 08 00        cmp         byte ptr [eax+8],0
  100026CB: 8B 48 04           mov         ecx,dword ptr [eax+4]
  100026CE: 89 4C 24 10        mov         dword ptr [esp+10h],ecx
  100026D2: C6 44 24 0C 04     mov         byte ptr [esp+0Ch],4
  100026D7: 74 05              je          100026DE
  100026D9: C6 44 24 0C 14     mov         byte ptr [esp+0Ch],14h
  100026DE: 8B 53 14           mov         edx,dword ptr [ebx+14h]
  100026E1: 8B 7B 0C           mov         edi,dword ptr [ebx+0Ch]
  100026E4: 8D 44 24 0C        lea         eax,[esp+0Ch]
  100026E8: 89 54 24 14        mov         dword ptr [esp+14h],edx
  100026EC: E8 DF 09 00 00     call        100030D0
  100026F1: 68 78 56 34 12     push        12345678h
  100026F6: 8B CB              mov         ecx,ebx
  100026F8: E8 73 1D 00 00     call        10004470
  100026FD: 5F                 pop         edi
  100026FE: 5E                 pop         esi
  100026FF: 5B                 pop         ebx
  10002700: 83 C4 0C           add         esp,0Ch
  10002703: C2 0C 00           ret         0Ch
  10002706: CC                 int         3
  10002707: CC                 int         3
  10002708: CC                 int         3
  10002709: CC                 int         3
  1000270A: CC                 int         3
  1000270B: CC                 int         3
  1000270C: CC                 int         3
  1000270D: CC                 int         3
  1000270E: CC                 int         3
  1000270F: CC                 int         3
  10002710: 53                 push        ebx
  10002711: 56                 push        esi
  10002712: 57                 push        edi
  10002713: 6A 66              push        66h
  10002715: 8B FA              mov         edi,edx
  10002717: 8B D9              mov         ebx,ecx
  10002719: E8 32 1E 00 00     call        10004550
  1000271E: 33 F6              xor         esi,esi
  10002720: 0F B6 44 37 04     movzx       eax,byte ptr [edi+esi+4]
  10002725: 50                 push        eax
  10002726: 8B CB              mov         ecx,ebx
  10002728: E8 23 1E 00 00     call        10004550
  1000272D: 46                 inc         esi
  1000272E: 83 FE 02           cmp         esi,2
  10002731: 72 ED              jb          10002720
  10002733: 8B 7C 24 10        mov         edi,dword ptr [esp+10h]
  10002737: B8 02 00 00 00     mov         eax,2
  1000273C: E8 EF 21 00 00     call        10004930
  10002741: 5F                 pop         edi
  10002742: 5E                 pop         esi
  10002743: 5B                 pop         ebx
  10002744: C2 0C 00           ret         0Ch
  10002747: CC                 int         3
  10002748: CC                 int         3
  10002749: CC                 int         3
  1000274A: CC                 int         3
  1000274B: CC                 int         3
  1000274C: CC                 int         3
  1000274D: CC                 int         3
  1000274E: CC                 int         3
  1000274F: CC                 int         3
  10002750: 53                 push        ebx
  10002751: 56                 push        esi
  10002752: 57                 push        edi
  10002753: 6A 66              push        66h
  10002755: 8B FA              mov         edi,edx
  10002757: 8B D9              mov         ebx,ecx
  10002759: E8 F2 1D 00 00     call        10004550
  1000275E: 33 F6              xor         esi,esi
  10002760: 0F B6 44 37 04     movzx       eax,byte ptr [edi+esi+4]
  10002765: 50                 push        eax
  10002766: 8B CB              mov         ecx,ebx
  10002768: E8 E3 1D 00 00     call        10004550
  1000276D: 46                 inc         esi
  1000276E: 83 FE 02           cmp         esi,2
  10002771: 72 ED              jb          10002760
  10002773: 8B 7C 24 10        mov         edi,dword ptr [esp+10h]
  10002777: B8 06 00 00 00     mov         eax,6
  1000277C: E8 AF 21 00 00     call        10004930
  10002781: 5F                 pop         edi
  10002782: 5E                 pop         esi
  10002783: 5B                 pop         ebx
  10002784: C2 0C 00           ret         0Ch
  10002787: CC                 int         3
  10002788: CC                 int         3
  10002789: CC                 int         3
  1000278A: CC                 int         3
  1000278B: CC                 int         3
  1000278C: CC                 int         3
  1000278D: CC                 int         3
  1000278E: CC                 int         3
  1000278F: CC                 int         3
  10002790: 8B 44 24 04        mov         eax,dword ptr [esp+4]
  10002794: 0F B6 52 04        movzx       edx,byte ptr [edx+4]
  10002798: 56                 push        esi
  10002799: 8B F1              mov         esi,ecx
  1000279B: 0F B6 48 04        movzx       ecx,byte ptr [eax+4]
  1000279F: 83 E1 07           and         ecx,7
  100027A2: 03 CA              add         ecx,edx
  100027A4: 51                 push        ecx
  100027A5: 8B CE              mov         ecx,esi
  100027A7: E8 A4 1D 00 00     call        10004550
  100027AC: 8B 44 24 10        mov         eax,dword ptr [esp+10h]
  100027B0: 50                 push        eax
  100027B1: 8B CE              mov         ecx,esi
  100027B3: E8 98 1D 00 00     call        10004550
  100027B8: 5E                 pop         esi
  100027B9: C2 0C 00           ret         0Ch
  100027BC: CC                 int         3
  100027BD: CC                 int         3
  100027BE: CC                 int         3
  100027BF: CC                 int         3
  100027C0: 56                 push        esi
  100027C1: 57                 push        edi
  100027C2: 6A 66              push        66h
  100027C4: 8B FA              mov         edi,edx
  100027C6: 8B F1              mov         esi,ecx
  100027C8: E8 83 1D 00 00     call        10004550
  100027CD: 8B 44 24 0C        mov         eax,dword ptr [esp+0Ch]
  100027D1: 0F B6 48 04        movzx       ecx,byte ptr [eax+4]
  100027D5: 0F B6 57 04        movzx       edx,byte ptr [edi+4]
  100027D9: 83 E1 07           and         ecx,7
  100027DC: 03 CA              add         ecx,edx
  100027DE: 51                 push        ecx
  100027DF: 8B CE              mov         ecx,esi
  100027E1: E8 6A 1D 00 00     call        10004550
  100027E6: 8B 44 24 14        mov         eax,dword ptr [esp+14h]
  100027EA: 50                 push        eax
  100027EB: 8B CE              mov         ecx,esi
  100027ED: E8 EE 1C 00 00     call        100044E0
  100027F2: 5F                 pop         edi
  100027F3: 5E                 pop         esi
  100027F4: C2 0C 00           ret         0Ch
  100027F7: CC                 int         3
  100027F8: CC                 int         3
  100027F9: CC                 int         3
  100027FA: CC                 int         3
  100027FB: CC                 int         3
  100027FC: CC                 int         3
  100027FD: CC                 int         3
  100027FE: CC                 int         3
  100027FF: CC                 int         3
  10002800: 8B 44 24 04        mov         eax,dword ptr [esp+4]
  10002804: 0F B6 52 04        movzx       edx,byte ptr [edx+4]
  10002808: 56                 push        esi
  10002809: 8B F1              mov         esi,ecx
  1000280B: 0F B6 48 04        movzx       ecx,byte ptr [eax+4]
  1000280F: 83 E1 07           and         ecx,7
  10002812: 03 CA              add         ecx,edx
  10002814: 51                 push        ecx
  10002815: 8B CE              mov         ecx,esi
  10002817: E8 34 1D 00 00     call        10004550
  1000281C: 8B 44 24 10        mov         eax,dword ptr [esp+10h]
  10002820: 50                 push        eax
  10002821: 8B CE              mov         ecx,esi
  10002823: E8 48 1C 00 00     call        10004470
  10002828: 5E                 pop         esi
  10002829: C2 0C 00           ret         0Ch
  1000282C: CC                 int         3
  1000282D: CC                 int         3
  1000282E: CC                 int         3
  1000282F: CC                 int         3
  10002830: 53                 push        ebx
  10002831: 56                 push        esi
  10002832: 57                 push        edi
  10002833: 8B FA              mov         edi,edx
  10002835: 8B D9              mov         ebx,ecx
  10002837: 33 F6              xor         esi,esi
  10002839: 8D A4 24 00 00 00  lea         esp,[esp+00000000h]
            00
  10002840: 0F B6 44 37 04     movzx       eax,byte ptr [edi+esi+4]
  10002845: 50                 push        eax
  10002846: 8B CB              mov         ecx,ebx
  10002848: E8 03 1D 00 00     call        10004550
  1000284D: 46                 inc         esi
  1000284E: 83 FE 03           cmp         esi,3
  10002851: 72 ED              jb          10002840
  10002853: 8B 4C 24 14        mov         ecx,dword ptr [esp+14h]
  10002857: 0F B6 41 04        movzx       eax,byte ptr [ecx+4]
  1000285B: 8B 7C 24 10        mov         edi,dword ptr [esp+10h]
  1000285F: E8 CC 20 00 00     call        10004930
  10002864: 5F                 pop         edi
  10002865: 5E                 pop         esi
  10002866: 5B                 pop         ebx
  10002867: C2 0C 00           ret         0Ch
  1000286A: CC                 int         3
  1000286B: CC                 int         3
  1000286C: CC                 int         3
  1000286D: CC                 int         3
  1000286E: CC                 int         3
  1000286F: CC                 int         3
  10002870: 53                 push        ebx
  10002871: 56                 push        esi
  10002872: 57                 push        edi
  10002873: 6A 66              push        66h
  10002875: 8B F2              mov         esi,edx
  10002877: 8B D9              mov         ebx,ecx
  10002879: E8 D2 1C 00 00     call        10004550
  1000287E: 0F B6 46 04        movzx       eax,byte ptr [esi+4]
  10002882: 50                 push        eax
  10002883: 8B CB              mov         ecx,ebx
  10002885: E8 C6 1C 00 00     call        10004550
  1000288A: 8B 7C 24 10        mov         edi,dword ptr [esp+10h]
  1000288E: B8 01 00 00 00     mov         eax,1
  10002893: E8 98 20 00 00     call        10004930
  10002898: 8B 4C 24 18        mov         ecx,dword ptr [esp+18h]
  1000289C: 51                 push        ecx
  1000289D: 8B CB              mov         ecx,ebx
  1000289F: E8 AC 1C 00 00     call        10004550
  100028A4: 5F                 pop         edi
  100028A5: 5E                 pop         esi
  100028A6: 5B                 pop         ebx
  100028A7: C2 0C 00           ret         0Ch
  100028AA: CC                 int         3
  100028AB: CC                 int         3
  100028AC: CC                 int         3
  100028AD: CC                 int         3
  100028AE: CC                 int         3
  100028AF: CC                 int         3
  100028B0: 53                 push        ebx
  100028B1: 56                 push        esi
  100028B2: 57                 push        edi
  100028B3: 6A 66              push        66h
  100028B5: 8B F2              mov         esi,edx
  100028B7: 8B D9              mov         ebx,ecx
  100028B9: E8 92 1C 00 00     call        10004550
  100028BE: 0F B6 46 04        movzx       eax,byte ptr [esi+4]
  100028C2: 50                 push        eax
  100028C3: 8B CB              mov         ecx,ebx
  100028C5: E8 86 1C 00 00     call        10004550
  100028CA: 8B 7C 24 10        mov         edi,dword ptr [esp+10h]
  100028CE: B8 01 00 00 00     mov         eax,1
  100028D3: E8 58 20 00 00     call        10004930
  100028D8: 8B 4C 24 18        mov         ecx,dword ptr [esp+18h]
  100028DC: 51                 push        ecx
  100028DD: 8B CB              mov         ecx,ebx
  100028DF: E8 FC 1B 00 00     call        100044E0
  100028E4: 5F                 pop         edi
  100028E5: 5E                 pop         esi
  100028E6: 5B                 pop         ebx
  100028E7: C2 0C 00           ret         0Ch
  100028EA: CC                 int         3
  100028EB: CC                 int         3
  100028EC: CC                 int         3
  100028ED: CC                 int         3
  100028EE: CC                 int         3
  100028EF: CC                 int         3
  100028F0: 0F B6 42 04        movzx       eax,byte ptr [edx+4]
  100028F4: 53                 push        ebx
  100028F5: 57                 push        edi
  100028F6: 50                 push        eax
  100028F7: 8B D9              mov         ebx,ecx
  100028F9: E8 52 1C 00 00     call        10004550
  100028FE: 8B 7C 24 0C        mov         edi,dword ptr [esp+0Ch]
  10002902: B8 01 00 00 00     mov         eax,1
  10002907: E8 24 20 00 00     call        10004930
  1000290C: 8B 4C 24 14        mov         ecx,dword ptr [esp+14h]
  10002910: 51                 push        ecx
  10002911: 8B CB              mov         ecx,ebx
  10002913: E8 58 1B 00 00     call        10004470
  10002918: 5F                 pop         edi
  10002919: 5B                 pop         ebx
  1000291A: C2 0C 00           ret         0Ch
  1000291D: CC                 int         3
  1000291E: CC                 int         3
  1000291F: CC                 int         3
  10002920: 0F B6 42 04        movzx       eax,byte ptr [edx+4]
  10002924: 53                 push        ebx
  10002925: 57                 push        edi
  10002926: 50                 push        eax
  10002927: 8B D9              mov         ebx,ecx
  10002929: E8 22 1C 00 00     call        10004550
  1000292E: 8B 7C 24 0C        mov         edi,dword ptr [esp+0Ch]
  10002932: B8 01 00 00 00     mov         eax,1
  10002937: E8 F4 1F 00 00     call        10004930
  1000293C: 8B 4C 24 14        mov         ecx,dword ptr [esp+14h]
  10002940: 51                 push        ecx
  10002941: 8B CB              mov         ecx,ebx
  10002943: E8 08 1C 00 00     call        10004550
  10002948: 5F                 pop         edi
  10002949: 5B                 pop         ebx
  1000294A: C2 0C 00           ret         0Ch
  1000294D: CC                 int         3
  1000294E: CC                 int         3
  1000294F: CC                 int         3
  10002950: 53                 push        ebx
  10002951: 56                 push        esi
  10002952: 57                 push        edi
  10002953: 8B FA              mov         edi,edx
  10002955: 8B D9              mov         ebx,ecx
  10002957: 33 F6              xor         esi,esi
  10002959: 8D A4 24 00 00 00  lea         esp,[esp+00000000h]
            00
  10002960: 0F B6 44 37 04     movzx       eax,byte ptr [edi+esi+4]
  10002965: 50                 push        eax
  10002966: 8B CB              mov         ecx,ebx
  10002968: E8 E3 1B 00 00     call        10004550
  1000296D: 46                 inc         esi
  1000296E: 83 FE 02           cmp         esi,2
  10002971: 72 ED              jb          10002960
  10002973: 8B 7C 24 10        mov         edi,dword ptr [esp+10h]
  10002977: B8 02 00 00 00     mov         eax,2
  1000297C: E8 AF 1F 00 00     call        10004930
  10002981: 5F                 pop         edi
  10002982: 5E                 pop         esi
  10002983: 5B                 pop         ebx
  10002984: C2 0C 00           ret         0Ch
  10002987: CC                 int         3
  10002988: CC                 int         3
  10002989: CC                 int         3
  1000298A: CC                 int         3
  1000298B: CC                 int         3
  1000298C: CC                 int         3
  1000298D: CC                 int         3
  1000298E: CC                 int         3
  1000298F: CC                 int         3
  10002990: 53                 push        ebx
  10002991: 56                 push        esi
  10002992: 57                 push        edi
  10002993: 8B FA              mov         edi,edx
  10002995: 8B D9              mov         ebx,ecx
  10002997: 33 F6              xor         esi,esi
  10002999: 8D A4 24 00 00 00  lea         esp,[esp+00000000h]
            00
  100029A0: 0F B6 44 37 04     movzx       eax,byte ptr [edi+esi+4]
  100029A5: 50                 push        eax
  100029A6: 8B CB              mov         ecx,ebx
  100029A8: E8 A3 1B 00 00     call        10004550
  100029AD: 46                 inc         esi
  100029AE: 83 FE 03           cmp         esi,3
  100029B1: 72 ED              jb          100029A0
  100029B3: 8B 7C 24 10        mov         edi,dword ptr [esp+10h]
  100029B7: B8 06 00 00 00     mov         eax,6
  100029BC: E8 6F 1F 00 00     call        10004930
  100029C1: 8B 4C 24 18        mov         ecx,dword ptr [esp+18h]
  100029C5: 51                 push        ecx
  100029C6: 8B CB              mov         ecx,ebx
  100029C8: E8 83 1B 00 00     call        10004550
  100029CD: 5F                 pop         edi
  100029CE: 5E                 pop         esi
  100029CF: 5B                 pop         ebx
  100029D0: C2 0C 00           ret         0Ch
  100029D3: CC                 int         3
  100029D4: CC                 int         3
  100029D5: CC                 int         3
  100029D6: CC                 int         3
  100029D7: CC                 int         3
  100029D8: CC                 int         3
  100029D9: CC                 int         3
  100029DA: CC                 int         3
  100029DB: CC                 int         3
  100029DC: CC                 int         3
  100029DD: CC                 int         3
  100029DE: CC                 int         3
  100029DF: CC                 int         3
  100029E0: 53                 push        ebx
  100029E1: 56                 push        esi
  100029E2: 57                 push        edi
  100029E3: 8B FA              mov         edi,edx
  100029E5: 8B D9              mov         ebx,ecx
  100029E7: 33 F6              xor         esi,esi
  100029E9: 8D A4 24 00 00 00  lea         esp,[esp+00000000h]
            00
  100029F0: 0F B6 44 37 04     movzx       eax,byte ptr [edi+esi+4]
  100029F5: 50                 push        eax
  100029F6: 8B CB              mov         ecx,ebx
  100029F8: E8 53 1B 00 00     call        10004550
  100029FD: 46                 inc         esi
  100029FE: 83 FE 03           cmp         esi,3
  10002A01: 72 ED              jb          100029F0
  10002A03: 8B 7C 24 10        mov         edi,dword ptr [esp+10h]
  10002A07: B8 07 00 00 00     mov         eax,7
  10002A0C: E8 1F 1F 00 00     call        10004930
  10002A11: 8B 4C 24 18        mov         ecx,dword ptr [esp+18h]
  10002A15: 51                 push        ecx
  10002A16: 8B CB              mov         ecx,ebx
  10002A18: E8 33 1B 00 00     call        10004550
  10002A1D: 5F                 pop         edi
  10002A1E: 5E                 pop         esi
  10002A1F: 5B                 pop         ebx
  10002A20: C2 0C 00           ret         0Ch
  10002A23: CC                 int         3
  10002A24: CC                 int         3
  10002A25: CC                 int         3
  10002A26: CC                 int         3
  10002A27: CC                 int         3
  10002A28: CC                 int         3
  10002A29: CC                 int         3
  10002A2A: CC                 int         3
  10002A2B: CC                 int         3
  10002A2C: CC                 int         3
  10002A2D: CC                 int         3
  10002A2E: CC                 int         3
  10002A2F: CC                 int         3
  10002A30: 53                 push        ebx
  10002A31: 56                 push        esi
  10002A32: 57                 push        edi
  10002A33: 8B FA              mov         edi,edx
  10002A35: 8B D9              mov         ebx,ecx
  10002A37: 33 F6              xor         esi,esi
  10002A39: 8D A4 24 00 00 00  lea         esp,[esp+00000000h]
            00
  10002A40: 0F B6 44 37 04     movzx       eax,byte ptr [edi+esi+4]
  10002A45: 50                 push        eax
  10002A46: 8B CB              mov         ecx,ebx
  10002A48: E8 03 1B 00 00     call        10004550
  10002A4D: 46                 inc         esi
  10002A4E: 83 FE 03           cmp         esi,3
  10002A51: 72 ED              jb          10002A40
  10002A53: 8B 7C 24 10        mov         edi,dword ptr [esp+10h]
  10002A57: B8 04 00 00 00     mov         eax,4
  10002A5C: E8 CF 1E 00 00     call        10004930
  10002A61: 8B 4C 24 18        mov         ecx,dword ptr [esp+18h]
  10002A65: 51                 push        ecx
  10002A66: 8B CB              mov         ecx,ebx
  10002A68: E8 E3 1A 00 00     call        10004550
  10002A6D: 5F                 pop         edi
  10002A6E: 5E                 pop         esi
  10002A6F: 5B                 pop         ebx
  10002A70: C2 0C 00           ret         0Ch
  10002A73: CC                 int         3
  10002A74: CC                 int         3
  10002A75: CC                 int         3
  10002A76: CC                 int         3
  10002A77: CC                 int         3
  10002A78: CC                 int         3
  10002A79: CC                 int         3
  10002A7A: CC                 int         3
  10002A7B: CC                 int         3
  10002A7C: CC                 int         3
  10002A7D: CC                 int         3
  10002A7E: CC                 int         3
  10002A7F: CC                 int         3
  10002A80: 53                 push        ebx
  10002A81: 56                 push        esi
  10002A82: 57                 push        edi
  10002A83: 8B FA              mov         edi,edx
  10002A85: 8B D9              mov         ebx,ecx
  10002A87: 33 F6              xor         esi,esi
  10002A89: 8D A4 24 00 00 00  lea         esp,[esp+00000000h]
            00
  10002A90: 0F B6 44 37 04     movzx       eax,byte ptr [edi+esi+4]
  10002A95: 50                 push        eax
  10002A96: 8B CB              mov         ecx,ebx
  10002A98: E8 B3 1A 00 00     call        10004550
  10002A9D: 46                 inc         esi
  10002A9E: 83 FE 03           cmp         esi,3
  10002AA1: 72 ED              jb          10002A90
  10002AA3: 8B 7C 24 10        mov         edi,dword ptr [esp+10h]
  10002AA7: B8 02 00 00 00     mov         eax,2
  10002AAC: E8 7F 1E 00 00     call        10004930
  10002AB1: 8B 4C 24 18        mov         ecx,dword ptr [esp+18h]
  10002AB5: 51                 push        ecx
  10002AB6: 8B CB              mov         ecx,ebx
  10002AB8: E8 93 1A 00 00     call        10004550
  10002ABD: 5F                 pop         edi
  10002ABE: 5E                 pop         esi
  10002ABF: 5B                 pop         ebx
  10002AC0: C2 0C 00           ret         0Ch
  10002AC3: CC                 int         3
  10002AC4: CC                 int         3
  10002AC5: CC                 int         3
  10002AC6: CC                 int         3
  10002AC7: CC                 int         3
  10002AC8: CC                 int         3
  10002AC9: CC                 int         3
  10002ACA: CC                 int         3
  10002ACB: CC                 int         3
  10002ACC: CC                 int         3
  10002ACD: CC                 int         3
  10002ACE: CC                 int         3
  10002ACF: CC                 int         3
  10002AD0: 53                 push        ebx
  10002AD1: 56                 push        esi
  10002AD2: 57                 push        edi
  10002AD3: 8B FA              mov         edi,edx
  10002AD5: 8B D9              mov         ebx,ecx
  10002AD7: 33 F6              xor         esi,esi
  10002AD9: 8D A4 24 00 00 00  lea         esp,[esp+00000000h]
            00
  10002AE0: 0F B6 44 37 04     movzx       eax,byte ptr [edi+esi+4]
  10002AE5: 50                 push        eax
  10002AE6: 8B CB              mov         ecx,ebx
  10002AE8: E8 63 1A 00 00     call        10004550
  10002AED: 46                 inc         esi
  10002AEE: 83 FE 02           cmp         esi,2
  10002AF1: 72 ED              jb          10002AE0
  10002AF3: 8B 7C 24 10        mov         edi,dword ptr [esp+10h]
  10002AF7: B8 02 00 00 00     mov         eax,2
  10002AFC: E8 2F 1E 00 00     call        10004930
  10002B01: 8B 4C 24 18        mov         ecx,dword ptr [esp+18h]
  10002B05: 51                 push        ecx
  10002B06: 8B CB              mov         ecx,ebx
  10002B08: E8 43 1A 00 00     call        10004550
  10002B0D: 5F                 pop         edi
  10002B0E: 5E                 pop         esi
  10002B0F: 5B                 pop         ebx
  10002B10: C2 0C 00           ret         0Ch
  10002B13: CC                 int         3
  10002B14: CC                 int         3
  10002B15: CC                 int         3
  10002B16: CC                 int         3
  10002B17: CC                 int         3
  10002B18: CC                 int         3
  10002B19: CC                 int         3
  10002B1A: CC                 int         3
  10002B1B: CC                 int         3
  10002B1C: CC                 int         3
  10002B1D: CC                 int         3
  10002B1E: CC                 int         3
  10002B1F: CC                 int         3
  10002B20: 53                 push        ebx
  10002B21: 56                 push        esi
  10002B22: 57                 push        edi
  10002B23: 8B FA              mov         edi,edx
  10002B25: 8B D9              mov         ebx,ecx
  10002B27: 33 F6              xor         esi,esi
  10002B29: 8D A4 24 00 00 00  lea         esp,[esp+00000000h]
            00
  10002B30: 0F B6 44 37 04     movzx       eax,byte ptr [edi+esi+4]
  10002B35: 50                 push        eax
  10002B36: 8B CB              mov         ecx,ebx
  10002B38: E8 13 1A 00 00     call        10004550
  10002B3D: 46                 inc         esi
  10002B3E: 83 FE 03           cmp         esi,3
  10002B41: 72 ED              jb          10002B30
  10002B43: 8B 7C 24 10        mov         edi,dword ptr [esp+10h]
  10002B47: B8 03 00 00 00     mov         eax,3
  10002B4C: E8 DF 1D 00 00     call        10004930
  10002B51: 8B 4C 24 18        mov         ecx,dword ptr [esp+18h]
  10002B55: 51                 push        ecx
  10002B56: 8B CB              mov         ecx,ebx
  10002B58: E8 F3 19 00 00     call        10004550
  10002B5D: 5F                 pop         edi
  10002B5E: 5E                 pop         esi
  10002B5F: 5B                 pop         ebx
  10002B60: C2 0C 00           ret         0Ch
  10002B63: CC                 int         3
  10002B64: CC                 int         3
  10002B65: CC                 int         3
  10002B66: CC                 int         3
  10002B67: CC                 int         3
  10002B68: CC                 int         3
  10002B69: CC                 int         3
  10002B6A: CC                 int         3
  10002B6B: CC                 int         3
  10002B6C: CC                 int         3
  10002B6D: CC                 int         3
  10002B6E: CC                 int         3
  10002B6F: CC                 int         3
  10002B70: 53                 push        ebx
  10002B71: 0F B6 5A 04        movzx       ebx,byte ptr [edx+4]
  10002B75: 56                 push        esi
  10002B76: 8B F1              mov         esi,ecx
  10002B78: 8B 46 14           mov         eax,dword ptr [esi+14h]
  10002B7B: 83 C0 0F           add         eax,0Fh
  10002B7E: 39 46 18           cmp         dword ptr [esi+18h],eax
  10002B81: 73 42              jae         10002BC5
  10002B83: 80 7E 1C 00        cmp         byte ptr [esi+1Ch],0
  10002B87: 75 1E              jne         10002BA7
  10002B89: 68 00 01 00 00     push        100h
  10002B8E: 68 E4 FB 00 10     push        1000FBE4h
  10002B93: 68 58 FC 00 10     push        1000FC58h
  10002B98: 68 78 FC 00 10     push        1000FC78h
  10002B9D: FF 15 90 60 00 10  call        dword ptr ds:[10006090h]
  10002BA3: 83 C4 10           add         esp,10h
  10002BA6: CC                 int         3
  10002BA7: 8B 46 18           mov         eax,dword ptr [esi+18h]
  10002BAA: 8B 56 04           mov         edx,dword ptr [esi+4]
  10002BAD: 8D 8C 00 00 01 00  lea         ecx,[eax+eax+00000100h]
            00
  10002BB4: 51                 push        ecx
  10002BB5: 89 4E 18           mov         dword ptr [esi+18h],ecx
  10002BB8: 8B 4E 10           mov         ecx,dword ptr [esi+10h]
  10002BBB: 50                 push        eax
  10002BBC: 51                 push        ecx
  10002BBD: FF D2              call        edx
  10002BBF: 83 C4 0C           add         esp,0Ch
  10002BC2: 89 46 10           mov         dword ptr [esi+10h],eax
  10002BC5: 8B 4E 14           mov         ecx,dword ptr [esi+14h]
  10002BC8: 8B 46 10           mov         eax,dword ptr [esi+10h]
  10002BCB: 8B 54 24 14        mov         edx,dword ptr [esp+14h]
  10002BCF: 88 1C 08           mov         byte ptr [eax+ecx],bl
  10002BD2: FF 46 14           inc         dword ptr [esi+14h]
  10002BD5: 52                 push        edx
  10002BD6: 8B CE              mov         ecx,esi
  10002BD8: E8 03 19 00 00     call        100044E0
  10002BDD: 5E                 pop         esi
  10002BDE: 5B                 pop         ebx
  10002BDF: C2 0C 00           ret         0Ch
  10002BE2: CC                 int         3
  10002BE3: CC                 int         3
  10002BE4: CC                 int         3
  10002BE5: CC                 int         3
  10002BE6: CC                 int         3
  10002BE7: CC                 int         3
  10002BE8: CC                 int         3
  10002BE9: CC                 int         3
  10002BEA: CC                 int         3
  10002BEB: CC                 int         3
  10002BEC: CC                 int         3
  10002BED: CC                 int         3
  10002BEE: CC                 int         3
  10002BEF: CC                 int         3
  10002BF0: 0F B6 42 04        movzx       eax,byte ptr [edx+4]
  10002BF4: 53                 push        ebx
  10002BF5: 57                 push        edi
  10002BF6: 50                 push        eax
  10002BF7: 8B D9              mov         ebx,ecx
  10002BF9: E8 52 19 00 00     call        10004550
  10002BFE: 8B 7C 24 0C        mov         edi,dword ptr [esp+0Ch]
  10002C02: B8 03 00 00 00     mov         eax,3
  10002C07: E8 24 1D 00 00     call        10004930
  10002C0C: 8B 4C 24 14        mov         ecx,dword ptr [esp+14h]
  10002C10: 51                 push        ecx
  10002C11: 8B CB              mov         ecx,ebx
  10002C13: E8 38 19 00 00     call        10004550
  10002C18: 5F                 pop         edi
  10002C19: 5B                 pop         ebx
  10002C1A: C2 0C 00           ret         0Ch
  10002C1D: CC                 int         3
  10002C1E: CC                 int         3
  10002C1F: CC                 int         3
  10002C20: 53                 push        ebx
  10002C21: 56                 push        esi
  10002C22: 57                 push        edi
  10002C23: 6A 66              push        66h
  10002C25: 8B F2              mov         esi,edx
  10002C27: 8B D9              mov         ebx,ecx
  10002C29: E8 22 19 00 00     call        10004550
  10002C2E: 0F B6 46 04        movzx       eax,byte ptr [esi+4]
  10002C32: 50                 push        eax
  10002C33: 8B CB              mov         ecx,ebx
  10002C35: E8 16 19 00 00     call        10004550
  10002C3A: 8B 7C 24 10        mov         edi,dword ptr [esp+10h]
  10002C3E: B8 03 00 00 00     mov         eax,3
  10002C43: E8 E8 1C 00 00     call        10004930
  10002C48: 8B 4C 24 18        mov         ecx,dword ptr [esp+18h]
  10002C4C: 51                 push        ecx
  10002C4D: 8B CB              mov         ecx,ebx
  10002C4F: E8 FC 18 00 00     call        10004550
  10002C54: 5F                 pop         edi
  10002C55: 5E                 pop         esi
  10002C56: 5B                 pop         ebx
  10002C57: C2 0C 00           ret         0Ch
  10002C5A: CC                 int         3
  10002C5B: CC                 int         3
  10002C5C: CC                 int         3
  10002C5D: CC                 int         3
  10002C5E: CC                 int         3
  10002C5F: CC                 int         3
  10002C60: 53                 push        ebx
  10002C61: 56                 push        esi
  10002C62: 57                 push        edi
  10002C63: 6A 66              push        66h
  10002C65: 8B F2              mov         esi,edx
  10002C67: 8B D9              mov         ebx,ecx
  10002C69: E8 E2 18 00 00     call        10004550
  10002C6E: 0F B6 46 04        movzx       eax,byte ptr [esi+4]
  10002C72: 50                 push        eax
  10002C73: 8B CB              mov         ecx,ebx
  10002C75: E8 D6 18 00 00     call        10004550
  10002C7A: 8B 7C 24 10        mov         edi,dword ptr [esp+10h]
  10002C7E: B8 03 00 00 00     mov         eax,3
  10002C83: E8 A8 1C 00 00     call        10004930
  10002C88: 8B 4C 24 18        mov         ecx,dword ptr [esp+18h]
  10002C8C: 51                 push        ecx
  10002C8D: 8B CB              mov         ecx,ebx
  10002C8F: E8 4C 18 00 00     call        100044E0
  10002C94: 5F                 pop         edi
  10002C95: 5E                 pop         esi
  10002C96: 5B                 pop         ebx
  10002C97: C2 0C 00           ret         0Ch
  10002C9A: CC                 int         3
  10002C9B: CC                 int         3
  10002C9C: CC                 int         3
  10002C9D: CC                 int         3
  10002C9E: CC                 int         3
  10002C9F: CC                 int         3
  10002CA0: 0F B6 42 04        movzx       eax,byte ptr [edx+4]
  10002CA4: 53                 push        ebx
  10002CA5: 57                 push        edi
  10002CA6: 50                 push        eax
  10002CA7: 8B D9              mov         ebx,ecx
  10002CA9: E8 A2 18 00 00     call        10004550
  10002CAE: 8B 7C 24 0C        mov         edi,dword ptr [esp+0Ch]
  10002CB2: B8 03 00 00 00     mov         eax,3
  10002CB7: E8 74 1C 00 00     call        10004930
  10002CBC: 8B 4C 24 14        mov         ecx,dword ptr [esp+14h]
  10002CC0: 51                 push        ecx
  10002CC1: 8B CB              mov         ecx,ebx
  10002CC3: E8 A8 17 00 00     call        10004470
  10002CC8: 5F                 pop         edi
  10002CC9: 5B                 pop         ebx
  10002CCA: C2 0C 00           ret         0Ch
  10002CCD: CC                 int         3
  10002CCE: CC                 int         3
  10002CCF: CC                 int         3
  10002CD0: 53                 push        ebx
  10002CD1: 56                 push        esi
  10002CD2: 57                 push        edi
  10002CD3: 8B FA              mov         edi,edx
  10002CD5: 8B D9              mov         ebx,ecx
  10002CD7: 33 F6              xor         esi,esi
  10002CD9: 8D A4 24 00 00 00  lea         esp,[esp+00000000h]
            00
  10002CE0: 0F B6 44 37 04     movzx       eax,byte ptr [edi+esi+4]
  10002CE5: 50                 push        eax
  10002CE6: 8B CB              mov         ecx,ebx
  10002CE8: E8 63 18 00 00     call        10004550
  10002CED: 46                 inc         esi
  10002CEE: 83 FE 02           cmp         esi,2
  10002CF1: 72 ED              jb          10002CE0
  10002CF3: 8B 7C 24 10        mov         edi,dword ptr [esp+10h]
  10002CF7: 33 C0              xor         eax,eax
  10002CF9: E8 32 1C 00 00     call        10004930
  10002CFE: 5F                 pop         edi
  10002CFF: 5E                 pop         esi
  10002D00: 5B                 pop         ebx
  10002D01: C2 0C 00           ret         0Ch
  10002D04: CC                 int         3
  10002D05: CC                 int         3
  10002D06: CC                 int         3
  10002D07: CC                 int         3
  10002D08: CC                 int         3
  10002D09: CC                 int         3
  10002D0A: CC                 int         3
  10002D0B: CC                 int         3
  10002D0C: CC                 int         3
  10002D0D: CC                 int         3
  10002D0E: CC                 int         3
  10002D0F: CC                 int         3
  10002D10: 53                 push        ebx
  10002D11: 56                 push        esi
  10002D12: 57                 push        edi
  10002D13: 6A 66              push        66h
  10002D15: 8B FA              mov         edi,edx
  10002D17: 8B D9              mov         ebx,ecx
  10002D19: E8 32 18 00 00     call        10004550
  10002D1E: 33 F6              xor         esi,esi
  10002D20: 0F B6 44 37 04     movzx       eax,byte ptr [edi+esi+4]
  10002D25: 50                 push        eax
  10002D26: 8B CB              mov         ecx,ebx
  10002D28: E8 23 18 00 00     call        10004550
  10002D2D: 46                 inc         esi
  10002D2E: 83 FE 02           cmp         esi,2
  10002D31: 72 ED              jb          10002D20
  10002D33: 8B 4C 24 14        mov         ecx,dword ptr [esp+14h]
  10002D37: 0F B6 41 04        movzx       eax,byte ptr [ecx+4]
  10002D3B: 8B 7C 24 10        mov         edi,dword ptr [esp+10h]
  10002D3F: E8 EC 1B 00 00     call        10004930
  10002D44: 8B 54 24 18        mov         edx,dword ptr [esp+18h]
  10002D48: 52                 push        edx
  10002D49: 8B CB              mov         ecx,ebx
  10002D4B: E8 00 18 00 00     call        10004550
  10002D50: 5F                 pop         edi
  10002D51: 5E                 pop         esi
  10002D52: 5B                 pop         ebx
  10002D53: C2 0C 00           ret         0Ch
  10002D56: CC                 int         3
  10002D57: CC                 int         3
  10002D58: CC                 int         3
  10002D59: CC                 int         3
  10002D5A: CC                 int         3
  10002D5B: CC                 int         3
  10002D5C: CC                 int         3
  10002D5D: CC                 int         3
  10002D5E: CC                 int         3
  10002D5F: CC                 int         3
  10002D60: 53                 push        ebx
  10002D61: 56                 push        esi
  10002D62: 57                 push        edi
  10002D63: 8B FA              mov         edi,edx
  10002D65: 8B D9              mov         ebx,ecx
  10002D67: 33 F6              xor         esi,esi
  10002D69: 8D A4 24 00 00 00  lea         esp,[esp+00000000h]
            00
  10002D70: 0F B6 44 37 04     movzx       eax,byte ptr [edi+esi+4]
  10002D75: 50                 push        eax
  10002D76: 8B CB              mov         ecx,ebx
  10002D78: E8 D3 17 00 00     call        10004550
  10002D7D: 46                 inc         esi
  10002D7E: 83 FE 02           cmp         esi,2
  10002D81: 72 ED              jb          10002D70
  10002D83: 8B 4C 24 14        mov         ecx,dword ptr [esp+14h]
  10002D87: 0F B6 41 04        movzx       eax,byte ptr [ecx+4]
  10002D8B: 8B 7C 24 10        mov         edi,dword ptr [esp+10h]
  10002D8F: E8 9C 1B 00 00     call        10004930
  10002D94: 8B 54 24 18        mov         edx,dword ptr [esp+18h]
  10002D98: 52                 push        edx
  10002D99: 8B CB              mov         ecx,ebx
  10002D9B: E8 B0 17 00 00     call        10004550
  10002DA0: 5F                 pop         edi
  10002DA1: 5E                 pop         esi
  10002DA2: 5B                 pop         ebx
  10002DA3: C2 0C 00           ret         0Ch
  10002DA6: CC                 int         3
  10002DA7: CC                 int         3
  10002DA8: CC                 int         3
  10002DA9: CC                 int         3
  10002DAA: CC                 int         3
  10002DAB: CC                 int         3
  10002DAC: CC                 int         3
  10002DAD: CC                 int         3
  10002DAE: CC                 int         3
  10002DAF: CC                 int         3
  10002DB0: 53                 push        ebx
  10002DB1: 56                 push        esi
  10002DB2: 57                 push        edi
  10002DB3: 6A 66              push        66h
  10002DB5: 8B F2              mov         esi,edx
  10002DB7: 8B D9              mov         ebx,ecx
  10002DB9: E8 92 17 00 00     call        10004550
  10002DBE: 0F B6 46 04        movzx       eax,byte ptr [esi+4]
  10002DC2: 50                 push        eax
  10002DC3: 8B CB              mov         ecx,ebx
  10002DC5: E8 86 17 00 00     call        10004550
  10002DCA: 8B 7C 24 10        mov         edi,dword ptr [esp+10h]
  10002DCE: B8 05 00 00 00     mov         eax,5
  10002DD3: E8 58 1B 00 00     call        10004930
  10002DD8: 8B 4C 24 18        mov         ecx,dword ptr [esp+18h]
  10002DDC: 51                 push        ecx
  10002DDD: 8B CB              mov         ecx,ebx
  10002DDF: E8 6C 17 00 00     call        10004550
  10002DE4: 5F                 pop         edi
  10002DE5: 5E                 pop         esi
  10002DE6: 5B                 pop         ebx
  10002DE7: C2 0C 00           ret         0Ch
  10002DEA: CC                 int         3
  10002DEB: CC                 int         3
  10002DEC: CC                 int         3
  10002DED: CC                 int         3
  10002DEE: CC                 int         3
  10002DEF: CC                 int         3
  10002DF0: 0F B6 42 04        movzx       eax,byte ptr [edx+4]
  10002DF4: 53                 push        ebx
  10002DF5: 57                 push        edi
  10002DF6: 50                 push        eax
  10002DF7: 8B D9              mov         ebx,ecx
  10002DF9: E8 52 17 00 00     call        10004550
  10002DFE: 8B 7C 24 0C        mov         edi,dword ptr [esp+0Ch]
  10002E02: B8 05 00 00 00     mov         eax,5
  10002E07: E8 24 1B 00 00     call        10004930
  10002E0C: 8B 4C 24 14        mov         ecx,dword ptr [esp+14h]
  10002E10: 51                 push        ecx
  10002E11: 8B CB              mov         ecx,ebx
  10002E13: E8 38 17 00 00     call        10004550
  10002E18: 5F                 pop         edi
  10002E19: 5B                 pop         ebx
  10002E1A: C2 0C 00           ret         0Ch
  10002E1D: CC                 int         3
  10002E1E: CC                 int         3
  10002E1F: CC                 int         3
  10002E20: 53                 push        ebx
  10002E21: 56                 push        esi
  10002E22: 57                 push        edi
  10002E23: 6A 66              push        66h
  10002E25: 8B FA              mov         edi,edx
  10002E27: 8B D9              mov         ebx,ecx
  10002E29: E8 22 17 00 00     call        10004550
  10002E2E: 33 F6              xor         esi,esi
  10002E30: 0F B6 44 37 04     movzx       eax,byte ptr [edi+esi+4]
  10002E35: 50                 push        eax
  10002E36: 8B CB              mov         ecx,ebx
  10002E38: E8 13 17 00 00     call        10004550
  10002E3D: 46                 inc         esi
  10002E3E: 83 FE 02           cmp         esi,2
  10002E41: 72 ED              jb          10002E30
  10002E43: 8B 7C 24 10        mov         edi,dword ptr [esp+10h]
  10002E47: 33 C0              xor         eax,eax
  10002E49: E8 E2 1A 00 00     call        10004930
  10002E4E: 5F                 pop         edi
  10002E4F: 5E                 pop         esi
  10002E50: 5B                 pop         ebx
  10002E51: C2 0C 00           ret         0Ch
  10002E54: CC                 int         3
  10002E55: CC                 int         3
  10002E56: CC                 int         3
  10002E57: CC                 int         3
  10002E58: CC                 int         3
  10002E59: CC                 int         3
  10002E5A: CC                 int         3
  10002E5B: CC                 int         3
  10002E5C: CC                 int         3
  10002E5D: CC                 int         3
  10002E5E: CC                 int         3
  10002E5F: CC                 int         3
  10002E60: 53                 push        ebx
  10002E61: 56                 push        esi
  10002E62: 57                 push        edi
  10002E63: 6A 66              push        66h
  10002E65: 8B FA              mov         edi,edx
  10002E67: 8B D9              mov         ebx,ecx
  10002E69: E8 E2 16 00 00     call        10004550
  10002E6E: 33 F6              xor         esi,esi
  10002E70: 0F B6 44 37 04     movzx       eax,byte ptr [edi+esi+4]
  10002E75: 50                 push        eax
  10002E76: 8B CB              mov         ecx,ebx
  10002E78: E8 D3 16 00 00     call        10004550
  10002E7D: 46                 inc         esi
  10002E7E: 83 FE 02           cmp         esi,2
  10002E81: 72 ED              jb          10002E70
  10002E83: 8B 7C 24 10        mov         edi,dword ptr [esp+10h]
  10002E87: B8 04 00 00 00     mov         eax,4
  10002E8C: E8 9F 1A 00 00     call        10004930
  10002E91: 5F                 pop         edi
  10002E92: 5E                 pop         esi
  10002E93: 5B                 pop         ebx
  10002E94: C2 0C 00           ret         0Ch
  10002E97: CC                 int         3
  10002E98: CC                 int         3
  10002E99: CC                 int         3
  10002E9A: CC                 int         3
  10002E9B: CC                 int         3
  10002E9C: CC                 int         3
  10002E9D: CC                 int         3
  10002E9E: CC                 int         3
  10002E9F: CC                 int         3
  10002EA0: 53                 push        ebx
  10002EA1: 56                 push        esi
  10002EA2: 57                 push        edi
  10002EA3: 8B FA              mov         edi,edx
  10002EA5: 8B D9              mov         ebx,ecx
  10002EA7: 33 F6              xor         esi,esi
  10002EA9: 8D A4 24 00 00 00  lea         esp,[esp+00000000h]
            00
  10002EB0: 0F B6 44 37 04     movzx       eax,byte ptr [edi+esi+4]
  10002EB5: 50                 push        eax
  10002EB6: 8B CB              mov         ecx,ebx
  10002EB8: E8 93 16 00 00     call        10004550
  10002EBD: 46                 inc         esi
  10002EBE: 83 FE 02           cmp         esi,2
  10002EC1: 72 ED              jb          10002EB0
  10002EC3: 8B 7C 24 10        mov         edi,dword ptr [esp+10h]
  10002EC7: B8 03 00 00 00     mov         eax,3
  10002ECC: E8 5F 1A 00 00     call        10004930
  10002ED1: 5F                 pop         edi
  10002ED2: 5E                 pop         esi
  10002ED3: 5B                 pop         ebx
  10002ED4: C2 0C 00           ret         0Ch
  10002ED7: CC                 int         3
  10002ED8: CC                 int         3
  10002ED9: CC                 int         3
  10002EDA: CC                 int         3
  10002EDB: CC                 int         3
  10002EDC: CC                 int         3
  10002EDD: CC                 int         3
  10002EDE: CC                 int         3
  10002EDF: CC                 int         3
  10002EE0: 53                 push        ebx
  10002EE1: 56                 push        esi
  10002EE2: 57                 push        edi
  10002EE3: 6A 66              push        66h
  10002EE5: 8B FA              mov         edi,edx
  10002EE7: 8B D9              mov         ebx,ecx
  10002EE9: E8 62 16 00 00     call        10004550
  10002EEE: 33 F6              xor         esi,esi
  10002EF0: 0F B6 44 37 04     movzx       eax,byte ptr [edi+esi+4]
  10002EF5: 50                 push        eax
  10002EF6: 8B CB              mov         ecx,ebx
  10002EF8: E8 53 16 00 00     call        10004550
  10002EFD: 46                 inc         esi
  10002EFE: 83 FE 02           cmp         esi,2
  10002F01: 72 ED              jb          10002EF0
  10002F03: 8B 7C 24 10        mov         edi,dword ptr [esp+10h]
  10002F07: B8 01 00 00 00     mov         eax,1
  10002F0C: E8 1F 1A 00 00     call        10004930
  10002F11: 5F                 pop         edi
  10002F12: 5E                 pop         esi
  10002F13: 5B                 pop         ebx
  10002F14: C2 0C 00           ret         0Ch
  10002F17: CC                 int         3
  10002F18: CC                 int         3
  10002F19: CC                 int         3
  10002F1A: CC                 int         3
  10002F1B: CC                 int         3
  10002F1C: CC                 int         3
  10002F1D: CC                 int         3
  10002F1E: CC                 int         3
  10002F1F: CC                 int         3
  10002F20: 53                 push        ebx
  10002F21: 56                 push        esi
  10002F22: 57                 push        edi
  10002F23: 6A 66              push        66h
  10002F25: 8B F2              mov         esi,edx
  10002F27: 8B D9              mov         ebx,ecx
  10002F29: E8 22 16 00 00     call        10004550
  10002F2E: 0F B6 46 04        movzx       eax,byte ptr [esi+4]
  10002F32: 50                 push        eax
  10002F33: 8B CB              mov         ecx,ebx
  10002F35: E8 16 16 00 00     call        10004550
  10002F3A: 8B 7C 24 10        mov         edi,dword ptr [esp+10h]
  10002F3E: B8 05 00 00 00     mov         eax,5
  10002F43: E8 E8 19 00 00     call        10004930
  10002F48: 8B 4C 24 18        mov         ecx,dword ptr [esp+18h]
  10002F4C: 51                 push        ecx
  10002F4D: 8B CB              mov         ecx,ebx
  10002F4F: E8 8C 15 00 00     call        100044E0
  10002F54: 5F                 pop         edi
  10002F55: 5E                 pop         esi
  10002F56: 5B                 pop         ebx
  10002F57: C2 0C 00           ret         0Ch
  10002F5A: CC                 int         3
  10002F5B: CC                 int         3
  10002F5C: CC                 int         3
  10002F5D: CC                 int         3
  10002F5E: CC                 int         3
  10002F5F: CC                 int         3
  10002F60: 0F B6 42 04        movzx       eax,byte ptr [edx+4]
  10002F64: 53                 push        ebx
  10002F65: 57                 push        edi
  10002F66: 50                 push        eax
  10002F67: 8B D9              mov         ebx,ecx
  10002F69: E8 E2 15 00 00     call        10004550
  10002F6E: 8B 7C 24 0C        mov         edi,dword ptr [esp+0Ch]
  10002F72: B8 05 00 00 00     mov         eax,5
  10002F77: E8 B4 19 00 00     call        10004930
  10002F7C: 8B 4C 24 14        mov         ecx,dword ptr [esp+14h]
  10002F80: 51                 push        ecx
  10002F81: 8B CB              mov         ecx,ebx
  10002F83: E8 E8 14 00 00     call        10004470
  10002F88: 5F                 pop         edi
  10002F89: 5B                 pop         ebx
  10002F8A: C2 0C 00           ret         0Ch
  10002F8D: CC                 int         3
  10002F8E: CC                 int         3
  10002F8F: CC                 int         3
  10002F90: 53                 push        ebx
  10002F91: 56                 push        esi
  10002F92: 57                 push        edi
  10002F93: 6A 66              push        66h
  10002F95: 8B FA              mov         edi,edx
  10002F97: 8B D9              mov         ebx,ecx
  10002F99: E8 B2 15 00 00     call        10004550
  10002F9E: 33 F6              xor         esi,esi
  10002FA0: 0F B6 44 37 04     movzx       eax,byte ptr [edi+esi+4]
  10002FA5: 50                 push        eax
  10002FA6: 8B CB              mov         ecx,ebx
  10002FA8: E8 A3 15 00 00     call        10004550
  10002FAD: 46                 inc         esi
  10002FAE: 83 FE 02           cmp         esi,2
  10002FB1: 72 ED              jb          10002FA0
  10002FB3: 8B 7C 24 10        mov         edi,dword ptr [esp+10h]
  10002FB7: B8 05 00 00 00     mov         eax,5
  10002FBC: E8 6F 19 00 00     call        10004930
  10002FC1: 5F                 pop         edi
  10002FC2: 5E                 pop         esi
  10002FC3: 5B                 pop         ebx
  10002FC4: C2 0C 00           ret         0Ch
  10002FC7: CC                 int         3
  10002FC8: CC                 int         3
  10002FC9: CC                 int         3
  10002FCA: CC                 int         3
  10002FCB: CC                 int         3
  10002FCC: CC                 int         3
  10002FCD: CC                 int         3
  10002FCE: CC                 int         3
  10002FCF: CC                 int         3
  10002FD0: 53                 push        ebx
  10002FD1: 56                 push        esi
  10002FD2: 57                 push        edi
  10002FD3: 6A 66              push        66h
  10002FD5: 8B F2              mov         esi,edx
  10002FD7: 8B D9              mov         ebx,ecx
  10002FD9: E8 72 15 00 00     call        10004550
  10002FDE: 0F B6 46 04        movzx       eax,byte ptr [esi+4]
  10002FE2: 50                 push        eax
  10002FE3: 8B CB              mov         ecx,ebx
  10002FE5: E8 66 15 00 00     call        10004550
  10002FEA: 8B 7C 24 10        mov         edi,dword ptr [esp+10h]
  10002FEE: B8 06 00 00 00     mov         eax,6
  10002FF3: E8 38 19 00 00     call        10004930
  10002FF8: 8B 4C 24 18        mov         ecx,dword ptr [esp+18h]
  10002FFC: 51                 push        ecx
  10002FFD: 8B CB              mov         ecx,ebx
  10002FFF: E8 4C 15 00 00     call        10004550
  10003004: 5F                 pop         edi
  10003005: 5E                 pop         esi
  10003006: 5B                 pop         ebx
  10003007: C2 0C 00           ret         0Ch
  1000300A: CC                 int         3
  1000300B: CC                 int         3
  1000300C: CC                 int         3
  1000300D: CC                 int         3
  1000300E: CC                 int         3
  1000300F: CC                 int         3
  10003010: 53                 push        ebx
  10003011: 56                 push        esi
  10003012: 57                 push        edi
  10003013: 6A 66              push        66h
  10003015: 8B F2              mov         esi,edx
  10003017: 8B D9              mov         ebx,ecx
  10003019: E8 32 15 00 00     call        10004550
  1000301E: 0F B6 46 04        movzx       eax,byte ptr [esi+4]
  10003022: 50                 push        eax
  10003023: 8B CB              mov         ecx,ebx
  10003025: E8 26 15 00 00     call        10004550
  1000302A: 8B 7C 24 10        mov         edi,dword ptr [esp+10h]
  1000302E: B8 06 00 00 00     mov         eax,6
  10003033: E8 F8 18 00 00     call        10004930
  10003038: 8B 4C 24 18        mov         ecx,dword ptr [esp+18h]
  1000303C: 51                 push        ecx
  1000303D: 8B CB              mov         ecx,ebx
  1000303F: E8 9C 14 00 00     call        100044E0
  10003044: 5F                 pop         edi
  10003045: 5E                 pop         esi
  10003046: 5B                 pop         ebx
  10003047: C2 0C 00           ret         0Ch
  1000304A: CC                 int         3
  1000304B: CC                 int         3
  1000304C: CC                 int         3
  1000304D: CC                 int         3
  1000304E: CC                 int         3
  1000304F: CC                 int         3
  10003050: 0F B6 42 04        movzx       eax,byte ptr [edx+4]
  10003054: 53                 push        ebx
  10003055: 57                 push        edi
  10003056: 50                 push        eax
  10003057: 8B D9              mov         ebx,ecx
  10003059: E8 F2 14 00 00     call        10004550
  1000305E: 8B 7C 24 0C        mov         edi,dword ptr [esp+0Ch]
  10003062: B8 06 00 00 00     mov         eax,6
  10003067: E8 C4 18 00 00     call        10004930
  1000306C: 8B 4C 24 14        mov         ecx,dword ptr [esp+14h]
  10003070: 51                 push        ecx
  10003071: 8B CB              mov         ecx,ebx
  10003073: E8 F8 13 00 00     call        10004470
  10003078: 5F                 pop         edi
  10003079: 5B                 pop         ebx
  1000307A: C2 0C 00           ret         0Ch
  1000307D: CC                 int         3
  1000307E: CC                 int         3
  1000307F: CC                 int         3
  10003080: 0F B6 42 04        movzx       eax,byte ptr [edx+4]
  10003084: 53                 push        ebx
  10003085: 57                 push        edi
  10003086: 50                 push        eax
  10003087: 8B D9              mov         ebx,ecx
  10003089: E8 C2 14 00 00     call        10004550
  1000308E: 8B 7C 24 0C        mov         edi,dword ptr [esp+0Ch]
  10003092: B8 06 00 00 00     mov         eax,6
  10003097: E8 94 18 00 00     call        10004930
  1000309C: 8B 4C 24 14        mov         ecx,dword ptr [esp+14h]
  100030A0: 51                 push        ecx
  100030A1: 8B CB              mov         ecx,ebx
  100030A3: E8 A8 14 00 00     call        10004550
  100030A8: 5F                 pop         edi
  100030A9: 5B                 pop         ebx
  100030AA: C2 0C 00           ret         0Ch
  100030AD: CC                 int         3
  100030AE: CC                 int         3
  100030AF: CC                 int         3
  100030B0: 8B 44 24 04        mov         eax,dword ptr [esp+4]
  100030B4: 56                 push        esi
  100030B5: 50                 push        eax
  100030B6: 8B F1              mov         esi,ecx
  100030B8: FF 15 98 60 00 10  call        dword ptr ds:[10006098h]
  100030BE: C7 06 88 FD 00 10  mov         dword ptr [esi],1000FD88h
  100030C4: 8B C6              mov         eax,esi
  100030C6: 5E                 pop         esi
  100030C7: C2 04 00           ret         4
  100030CA: CC                 int         3
  100030CB: CC                 int         3
  100030CC: CC                 int         3
  100030CD: CC                 int         3
  100030CE: CC                 int         3
  100030CF: CC                 int         3
  100030D0: 8B 4F 04           mov         ecx,dword ptr [edi+4]
  100030D3: 56                 push        esi
  100030D4: 8B F0              mov         esi,eax
  100030D6: 3B F1              cmp         esi,ecx
  100030D8: 73 49              jae         10003123
  100030DA: 8B 07              mov         eax,dword ptr [edi]
  100030DC: 3B C6              cmp         eax,esi
  100030DE: 77 43              ja          10003123
  100030E0: 2B F0              sub         esi,eax
  100030E2: B8 AB AA AA 2A     mov         eax,2AAAAAABh
  100030E7: F7 EE              imul        esi
  100030E9: D1 FA              sar         edx,1
  100030EB: 8B F2              mov         esi,edx
  100030ED: C1 EE 1F           shr         esi,1Fh
  100030F0: 03 F2              add         esi,edx
  100030F2: 3B 4F 08           cmp         ecx,dword ptr [edi+8]
  100030F5: 75 07              jne         100030FE
  100030F7: 8B CF              mov         ecx,edi
  100030F9: E8 52 00 00 00     call        10003150
  100030FE: 8B 0F              mov         ecx,dword ptr [edi]
  10003100: 8D 04 76           lea         eax,[esi+esi*2]
  10003103: 8D 0C 81           lea         ecx,[ecx+eax*4]
  10003106: 8B 47 04           mov         eax,dword ptr [edi+4]
  10003109: 85 C0              test        eax,eax
  1000310B: 74 39              je          10003146
  1000310D: 8B 11              mov         edx,dword ptr [ecx]
  1000310F: 89 10              mov         dword ptr [eax],edx
  10003111: 8B 51 04           mov         edx,dword ptr [ecx+4]
  10003114: 89 50 04           mov         dword ptr [eax+4],edx
  10003117: 8B 49 08           mov         ecx,dword ptr [ecx+8]
  1000311A: 89 48 08           mov         dword ptr [eax+8],ecx
  1000311D: 83 47 04 0C        add         dword ptr [edi+4],0Ch
  10003121: 5E                 pop         esi
  10003122: C3                 ret
  10003123: 3B 4F 08           cmp         ecx,dword ptr [edi+8]
  10003126: 75 07              jne         1000312F
  10003128: 8B CF              mov         ecx,edi
  1000312A: E8 21 00 00 00     call        10003150
  1000312F: 8B 47 04           mov         eax,dword ptr [edi+4]
  10003132: 85 C0              test        eax,eax
  10003134: 74 10              je          10003146
  10003136: 8B 16              mov         edx,dword ptr [esi]
  10003138: 89 10              mov         dword ptr [eax],edx
  1000313A: 8B 4E 04           mov         ecx,dword ptr [esi+4]
  1000313D: 89 48 04           mov         dword ptr [eax+4],ecx
  10003140: 8B 56 08           mov         edx,dword ptr [esi+8]
  10003143: 89 50 08           mov         dword ptr [eax+8],edx
  10003146: 83 47 04 0C        add         dword ptr [edi+4],0Ch
  1000314A: 5E                 pop         esi
  1000314B: C3                 ret
  1000314C: CC                 int         3
  1000314D: CC                 int         3
  1000314E: CC                 int         3
  1000314F: CC                 int         3
  10003150: 8B 51 04           mov         edx,dword ptr [ecx+4]
  10003153: 56                 push        esi
  10003154: 57                 push        edi
  10003155: 8B 39              mov         edi,dword ptr [ecx]
  10003157: 2B D7              sub         edx,edi
  10003159: B8 AB AA AA 2A     mov         eax,2AAAAAABh
  1000315E: F7 EA              imul        edx
  10003160: D1 FA              sar         edx,1
  10003162: 8B F2              mov         esi,edx
  10003164: C1 EE 1F           shr         esi,1Fh
  10003167: 03 F2              add         esi,edx
  10003169: 81 FE 54 55 55 15  cmp         esi,15555554h
  1000316F: 76 0B              jbe         1000317C
  10003171: 68 70 FD 00 10     push        1000FD70h
  10003176: FF 15 44 60 00 10  call        dword ptr ds:[10006044h]
  1000317C: 8B 51 08           mov         edx,dword ptr [ecx+8]
  1000317F: 2B D7              sub         edx,edi
  10003181: B8 AB AA AA 2A     mov         eax,2AAAAAABh
  10003186: F7 EA              imul        edx
  10003188: D1 FA              sar         edx,1
  1000318A: 8B C2              mov         eax,edx
  1000318C: C1 E8 1F           shr         eax,1Fh
  1000318F: 46                 inc         esi
  10003190: 03 C2              add         eax,edx
  10003192: 3B F0              cmp         esi,eax
  10003194: 76 2C              jbe         100031C2
  10003196: 8B D0              mov         edx,eax
  10003198: D1 EA              shr         edx,1
  1000319A: BF 55 55 55 15     mov         edi,15555555h
  1000319F: 2B FA              sub         edi,edx
  100031A1: 3B F8              cmp         edi,eax
  100031A3: 73 10              jae         100031B5
  100031A5: 33 C0              xor         eax,eax
  100031A7: 3B C6              cmp         eax,esi
  100031A9: 0F 42 C6           cmovb       eax,esi
  100031AC: 50                 push        eax
  100031AD: E8 1E 00 00 00     call        100031D0
  100031B2: 5F                 pop         edi
  100031B3: 5E                 pop         esi
  100031B4: C3                 ret
  100031B5: 03 C2              add         eax,edx
  100031B7: 3B C6              cmp         eax,esi
  100031B9: 0F 42 C6           cmovb       eax,esi
  100031BC: 50                 push        eax
  100031BD: E8 0E 00 00 00     call        100031D0
  100031C2: 5F                 pop         edi
  100031C3: 5E                 pop         esi
  100031C4: C3                 ret
  100031C5: CC                 int         3
  100031C6: CC                 int         3
  100031C7: CC                 int         3
  100031C8: CC                 int         3
  100031C9: CC                 int         3
  100031CA: CC                 int         3
  100031CB: CC                 int         3
  100031CC: CC                 int         3
  100031CD: CC                 int         3
  100031CE: CC                 int         3
  100031CF: CC                 int         3
  100031D0: 55                 push        ebp
  100031D1: 8B EC              mov         ebp,esp
  100031D3: 6A FF              push        0FFFFFFFFh
  100031D5: 68 B0 54 00 10     push        100054B0h
  100031DA: 64 A1 00 00 00 00  mov         eax,dword ptr fs:[00000000h]
  100031E0: 50                 push        eax
  100031E1: 64 89 25 00 00 00  mov         dword ptr fs:[00000000h],esp
            00
  100031E8: 83 EC 08           sub         esp,8
  100031EB: 53                 push        ebx
  100031EC: 56                 push        esi
  100031ED: 8B F1              mov         esi,ecx
  100031EF: 8B 4D 08           mov         ecx,dword ptr [ebp+8]
  100031F2: 57                 push        edi
  100031F3: 89 65 F0           mov         dword ptr [ebp-10h],esp
  100031F6: 81 F9 55 55 55 15  cmp         ecx,15555555h
  100031FC: 76 0B              jbe         10003209
  100031FE: 68 70 FD 00 10     push        1000FD70h
  10003203: FF 15 44 60 00 10  call        dword ptr ds:[10006044h]
  10003209: 8B 56 08           mov         edx,dword ptr [esi+8]
  1000320C: 2B 16              sub         edx,dword ptr [esi]
  1000320E: B8 AB AA AA 2A     mov         eax,2AAAAAABh
  10003213: F7 EA              imul        edx
  10003215: D1 FA              sar         edx,1
  10003217: 8B C2              mov         eax,edx
  10003219: C1 E8 1F           shr         eax,1Fh
  1000321C: 03 C2              add         eax,edx
  1000321E: 3B C1              cmp         eax,ecx
  10003220: 73 5F              jae         10003281
  10003222: E8 89 00 00 00     call        100032B0
  10003227: C7 45 FC 00 00 00  mov         dword ptr [ebp-4],0
            00
  1000322E: 8B 7D 08           mov         edi,dword ptr [ebp+8]
  10003231: 8B 56 04           mov         edx,dword ptr [esi+4]
  10003234: 8B 0E              mov         ecx,dword ptr [esi]
  10003236: 57                 push        edi
  10003237: 89 45 EC           mov         dword ptr [ebp-14h],eax
  1000323A: E8 F1 00 00 00     call        10003330
  1000323F: 8B 1E              mov         ebx,dword ptr [esi]
  10003241: 8B 4E 04           mov         ecx,dword ptr [esi+4]
  10003244: 2B CB              sub         ecx,ebx
  10003246: B8 AB AA AA 2A     mov         eax,2AAAAAABh
  1000324B: F7 E9              imul        ecx
  1000324D: D1 FA              sar         edx,1
  1000324F: 8B FA              mov         edi,edx
  10003251: C1 EF 1F           shr         edi,1Fh
  10003254: 83 C4 04           add         esp,4
  10003257: 03 FA              add         edi,edx
  10003259: 85 DB              test        ebx,ebx
  1000325B: 74 0A              je          10003267
  1000325D: 53                 push        ebx
  1000325E: FF 15 8C 60 00 10  call        dword ptr ds:[1000608Ch]
  10003264: 83 C4 04           add         esp,4
  10003267: 8B 45 08           mov         eax,dword ptr [ebp+8]
  1000326A: 8D 0C 40           lea         ecx,[eax+eax*2]
  1000326D: 8B 45 EC           mov         eax,dword ptr [ebp-14h]
  10003270: 8D 14 88           lea         edx,[eax+ecx*4]
  10003273: 8D 0C 7F           lea         ecx,[edi+edi*2]
  10003276: 89 56 08           mov         dword ptr [esi+8],edx
  10003279: 8D 14 88           lea         edx,[eax+ecx*4]
  1000327C: 89 56 04           mov         dword ptr [esi+4],edx
  1000327F: 89 06              mov         dword ptr [esi],eax
  10003281: 8B 4D F4           mov         ecx,dword ptr [ebp-0Ch]
  10003284: 5F                 pop         edi
  10003285: 5E                 pop         esi
  10003286: 64 89 0D 00 00 00  mov         dword ptr fs:[00000000h],ecx
            00
  1000328D: 5B                 pop         ebx
  1000328E: 8B E5              mov         esp,ebp
  10003290: 5D                 pop         ebp
  10003291: C2 04 00           ret         4
  10003294: 8B 45 EC           mov         eax,dword ptr [ebp-14h]
  10003297: 50                 push        eax
  10003298: FF 15 8C 60 00 10  call        dword ptr ds:[1000608Ch]
  1000329E: 83 C4 04           add         esp,4
  100032A1: 6A 00              push        0
  100032A3: 6A 00              push        0
  100032A5: E8 FA 21 00 00     call        100054A4
  100032AA: CC                 int         3
  100032AB: CC                 int         3
  100032AC: CC                 int         3
  100032AD: CC                 int         3
  100032AE: CC                 int         3
  100032AF: CC                 int         3
  100032B0: 83 EC 10           sub         esp,10h
  100032B3: 33 C0              xor         eax,eax
  100032B5: 85 C9              test        ecx,ecx
  100032B7: 74 4A              je          10003303
  100032B9: 81 F9 55 55 55 15  cmp         ecx,15555555h
  100032BF: 77 15              ja          100032D6
  100032C1: 8D 04 49           lea         eax,[ecx+ecx*2]
  100032C4: 03 C0              add         eax,eax
  100032C6: 03 C0              add         eax,eax
  100032C8: 50                 push        eax
  100032C9: FF 15 88 60 00 10  call        dword ptr ds:[10006088h]
  100032CF: 83 C4 04           add         esp,4
  100032D2: 85 C0              test        eax,eax
  100032D4: 75 2D              jne         10003303
  100032D6: 8D 0C 24           lea         ecx,[esp]
  100032D9: 51                 push        ecx
  100032DA: 8D 4C 24 08        lea         ecx,[esp+8]
  100032DE: C7 44 24 04 00 00  mov         dword ptr [esp+4],0
            00 00
  100032E6: FF 15 9C 60 00 10  call        dword ptr ds:[1000609Ch]
  100032EC: 68 08 00 01 10     push        10010008h
  100032F1: 8D 54 24 08        lea         edx,[esp+8]
  100032F5: 52                 push        edx
  100032F6: C7 44 24 0C 88 FD  mov         dword ptr [esp+0Ch],1000FD88h
            00 10
  100032FE: E8 A1 21 00 00     call        100054A4
  10003303: 83 C4 10           add         esp,10h
  10003306: C3                 ret
  10003307: CC                 int         3
  10003308: CC                 int         3
  10003309: CC                 int         3
  1000330A: CC                 int         3
  1000330B: CC                 int         3
  1000330C: CC                 int         3
  1000330D: CC                 int         3
  1000330E: CC                 int         3
  1000330F: CC                 int         3
  10003310: 3B CA              cmp         ecx,edx
  10003312: 74 1A              je          1000332E
  10003314: 56                 push        esi
  10003315: 85 C0              test        eax,eax
  10003317: 74 0A              je          10003323
  10003319: 8B 31              mov         esi,dword ptr [ecx]
  1000331B: 89 30              mov         dword ptr [eax],esi
  1000331D: 8B 71 04           mov         esi,dword ptr [ecx+4]
  10003320: 89 70 04           mov         dword ptr [eax+4],esi
  10003323: 83 C1 08           add         ecx,8
  10003326: 83 C0 08           add         eax,8
  10003329: 3B CA              cmp         ecx,edx
  1000332B: 75 E8              jne         10003315
  1000332D: 5E                 pop         esi
  1000332E: C3                 ret
  1000332F: CC                 int         3
  10003330: 3B CA              cmp         ecx,edx
  10003332: 74 20              je          10003354
  10003334: 56                 push        esi
  10003335: 85 C0              test        eax,eax
  10003337: 74 10              je          10003349
  10003339: 8B 31              mov         esi,dword ptr [ecx]
  1000333B: 89 30              mov         dword ptr [eax],esi
  1000333D: 8B 71 04           mov         esi,dword ptr [ecx+4]
  10003340: 89 70 04           mov         dword ptr [eax+4],esi
  10003343: 8B 71 08           mov         esi,dword ptr [ecx+8]
  10003346: 89 70 08           mov         dword ptr [eax+8],esi
  10003349: 83 C1 0C           add         ecx,0Ch
  1000334C: 83 C0 0C           add         eax,0Ch
  1000334F: 3B CA              cmp         ecx,edx
  10003351: 75 E2              jne         10003335
  10003353: 5E                 pop         esi
  10003354: C3                 ret
  10003355: CC                 int         3
  10003356: FF 25 A4 60 00 10  jmp         dword ptr ds:[100060A4h]
  1000335C: FF 25 98 60 00 10  jmp         dword ptr ds:[10006098h]
  10003362: FF 25 8C 60 00 10  jmp         dword ptr ds:[1000608Ch]
  10003368: 8B FF              mov         edi,edi
  1000336A: 55                 push        ebp
  1000336B: 8B EC              mov         ebp,esp
  1000336D: F6 45 08 02        test        byte ptr [ebp+8],2
  10003371: 57                 push        edi
  10003372: 8B F9              mov         edi,ecx
  10003374: 74 25              je          1000339B
  10003376: 56                 push        esi
  10003377: 68 D0 3B 00 10     push        10003BD0h
  1000337C: 8D 77 FC           lea         esi,[edi-4]
  1000337F: FF 36              push        dword ptr [esi]
  10003381: 6A 0C              push        0Ch
  10003383: 57                 push        edi
  10003384: E8 1A 04 00 00     call        100037A3
  10003389: F6 45 08 01        test        byte ptr [ebp+8],1
  1000338D: 74 07              je          10003396
  1000338F: 56                 push        esi
  10003390: E8 CD FF FF FF     call        10003362
  10003395: 59                 pop         ecx
  10003396: 8B C6              mov         eax,esi
  10003398: 5E                 pop         esi
  10003399: EB 14              jmp         100033AF
  1000339B: E8 30 08 00 00     call        10003BD0
  100033A0: F6 45 08 01        test        byte ptr [ebp+8],1
  100033A4: 74 07              je          100033AD
  100033A6: 57                 push        edi
  100033A7: E8 B6 FF FF FF     call        10003362
  100033AC: 59                 pop         ecx
  100033AD: 8B C7              mov         eax,edi
  100033AF: 5F                 pop         edi
  100033B0: 5D                 pop         ebp
  100033B1: C2 04 00           ret         4
  100033B4: 8B FF              mov         edi,edi
  100033B6: 56                 push        esi
  100033B7: 68 80 00 00 00     push        80h
  100033BC: FF 15 84 60 00 10  call        dword ptr ds:[10006084h]
  100033C2: 59                 pop         ecx
  100033C3: 8B F0              mov         esi,eax
  100033C5: 56                 push        esi
  100033C6: FF 15 3C 60 00 10  call        dword ptr ds:[1000603Ch]
  100033CC: A3 00 2E 01 10     mov         dword ptr ds:[10012E00h],eax
  100033D1: A3 FC 2D 01 10     mov         dword ptr ds:[10012DFCh],eax
  100033D6: 85 F6              test        esi,esi
  100033D8: 75 05              jne         100033DF
  100033DA: 33 C0              xor         eax,eax
  100033DC: 40                 inc         eax
  100033DD: 5E                 pop         esi
  100033DE: C3                 ret
  100033DF: 83 26 00           and         dword ptr [esi],0
  100033E2: E8 E3 04 00 00     call        100038CA
  100033E7: 68 F0 38 00 10     push        100038F0h
  100033EC: E8 C2 04 00 00     call        100038B3
  100033F1: C7 04 24 06 38 00  mov         dword ptr [esp],10003806h
            10
  100033F8: E8 B6 04 00 00     call        100038B3
  100033FD: 59                 pop         ecx
  100033FE: 33 C0              xor         eax,eax
  10003400: 5E                 pop         esi
  10003401: C3                 ret
  10003402: 8B FF              mov         edi,edi
  10003404: 55                 push        ebp
  10003405: 8B EC              mov         ebp,esp
  10003407: 51                 push        ecx
  10003408: 51                 push        ecx
  10003409: 53                 push        ebx
  1000340A: 33 C0              xor         eax,eax
  1000340C: 56                 push        esi
  1000340D: 57                 push        edi
  1000340E: 39 45 0C           cmp         dword ptr [ebp+0Ch],eax
  10003411: 75 32              jne         10003445
  10003413: 39 05 C0 2A 01 10  cmp         dword ptr ds:[10012AC0h],eax
  10003419: 7E 23              jle         1000343E
  1000341B: 64 A1 18 00 00 00  mov         eax,dword ptr fs:[00000018h]
  10003421: FF 0D C0 2A 01 10  dec         dword ptr ds:[10012AC0h]
  10003427: 8B 58 04           mov         ebx,dword ptr [eax+4]
  1000342A: 83 65 FC 00        and         dword ptr [ebp-4],0
  1000342E: 8B 35 34 60 00 10  mov         esi,dword ptr ds:[10006034h]
  10003434: BF F8 2D 01 10     mov         edi,10012DF8h
  10003439: E9 EA 00 00 00     jmp         10003528
  1000343E: 33 C0              xor         eax,eax
  10003440: E9 C0 01 00 00     jmp         10003605
  10003445: 83 7D 0C 01        cmp         dword ptr [ebp+0Ch],1
  10003449: 0F 85 B3 01 00 00  jne         10003602
  1000344F: 64 8B 0D 18 00 00  mov         ecx,dword ptr fs:[00000018h]
            00
  10003456: 8B 59 04           mov         ebx,dword ptr [ecx+4]
  10003459: 8B 35 34 60 00 10  mov         esi,dword ptr ds:[10006034h]
  1000345F: 89 45 0C           mov         dword ptr [ebp+0Ch],eax
  10003462: 50                 push        eax
  10003463: BF F8 2D 01 10     mov         edi,10012DF8h
  10003468: EB 11              jmp         1000347B
  1000346A: 3B C3              cmp         eax,ebx
  1000346C: 74 17              je          10003485
  1000346E: 68 E8 03 00 00     push        3E8h
  10003473: FF 15 38 60 00 10  call        dword ptr ds:[10006038h]
  10003479: 6A 00              push        0
  1000347B: 53                 push        ebx
  1000347C: 57                 push        edi
  1000347D: FF D6              call        esi
  1000347F: 85 C0              test        eax,eax
  10003481: 75 E7              jne         1000346A
  10003483: EB 07              jmp         1000348C
  10003485: C7 45 0C 01 00 00  mov         dword ptr [ebp+0Ch],1
            00
  1000348C: A1 F4 2D 01 10     mov         eax,dword ptr ds:[10012DF4h]
  10003491: 6A 02              push        2
  10003493: 5E                 pop         esi
  10003494: 85 C0              test        eax,eax
  10003496: 74 09              je          100034A1
  10003498: 6A 1F              push        1Fh
  1000349A: E8 D9 05 00 00     call        10003A78
  1000349F: EB 39              jmp         100034DA
  100034A1: 68 CC 60 00 10     push        100060CCh
  100034A6: 68 C4 60 00 10     push        100060C4h
  100034AB: C7 05 F4 2D 01 10  mov         dword ptr ds:[10012DF4h],1
            01 00 00 00
  100034B5: E8 B8 05 00 00     call        10003A72
  100034BA: 59                 pop         ecx
  100034BB: 59                 pop         ecx
  100034BC: 85 C0              test        eax,eax
  100034BE: 0F 85 7A FF FF FF  jne         1000343E
  100034C4: 68 C0 60 00 10     push        100060C0h
  100034C9: 68 BC 60 00 10     push        100060BCh
  100034CE: E8 99 05 00 00     call        10003A6C
  100034D3: 59                 pop         ecx
  100034D4: 89 35 F4 2D 01 10  mov         dword ptr ds:[10012DF4h],esi
  100034DA: 33 DB              xor         ebx,ebx
  100034DC: 59                 pop         ecx
  100034DD: 39 5D 0C           cmp         dword ptr [ebp+0Ch],ebx
  100034E0: 75 08              jne         100034EA
  100034E2: 53                 push        ebx
  100034E3: 57                 push        edi
  100034E4: FF 15 04 60 00 10  call        dword ptr ds:[10006004h]
  100034EA: 39 1D 04 2E 01 10  cmp         dword ptr ds:[10012E04h],ebx
  100034F0: 74 1C              je          1000350E
  100034F2: 68 04 2E 01 10     push        10012E04h
  100034F7: E8 B4 04 00 00     call        100039B0
  100034FC: 59                 pop         ecx
  100034FD: 85 C0              test        eax,eax
  100034FF: 74 0D              je          1000350E
  10003501: FF 75 10           push        dword ptr [ebp+10h]
  10003504: 56                 push        esi
  10003505: FF 75 08           push        dword ptr [ebp+8]
  10003508: FF 15 04 2E 01 10  call        dword ptr ds:[10012E04h]
  1000350E: FF 05 C0 2A 01 10  inc         dword ptr ds:[10012AC0h]
  10003514: E9 E9 00 00 00     jmp         10003602
  10003519: 3B C3              cmp         eax,ebx
  1000351B: 74 17              je          10003534
  1000351D: 68 E8 03 00 00     push        3E8h
  10003522: FF 15 38 60 00 10  call        dword ptr ds:[10006038h]
  10003528: 6A 00              push        0
  1000352A: 53                 push        ebx
  1000352B: 57                 push        edi
  1000352C: FF D6              call        esi
  1000352E: 85 C0              test        eax,eax
  10003530: 75 E7              jne         10003519
  10003532: EB 07              jmp         1000353B
  10003534: C7 45 FC 01 00 00  mov         dword ptr [ebp-4],1
            00
  1000353B: A1 F4 2D 01 10     mov         eax,dword ptr ds:[10012DF4h]
  10003540: 83 F8 02           cmp         eax,2
  10003543: 74 0D              je          10003552
  10003545: 6A 1F              push        1Fh
  10003547: E8 2C 05 00 00     call        10003A78
  1000354C: 59                 pop         ecx
  1000354D: E9 B0 00 00 00     jmp         10003602
  10003552: FF 35 00 2E 01 10  push        dword ptr ds:[10012E00h]
  10003558: 8B 35 00 60 00 10  mov         esi,dword ptr ds:[10006000h]
  1000355E: FF D6              call        esi
  10003560: 89 45 0C           mov         dword ptr [ebp+0Ch],eax
  10003563: 85 C0              test        eax,eax
  10003565: 0F 84 83 00 00 00  je          100035EE
  1000356B: FF 35 FC 2D 01 10  push        dword ptr ds:[10012DFCh]
  10003571: FF D6              call        esi
  10003573: 8B D8              mov         ebx,eax
  10003575: 8B 45 0C           mov         eax,dword ptr [ebp+0Ch]
  10003578: 89 45 10           mov         dword ptr [ebp+10h],eax
  1000357B: 89 5D 08           mov         dword ptr [ebp+8],ebx
  1000357E: 83 EB 04           sub         ebx,4
  10003581: 3B 5D 0C           cmp         ebx,dword ptr [ebp+0Ch]
  10003584: 72 4E              jb          100035D4
  10003586: 83 3B 00           cmp         dword ptr [ebx],0
  10003589: 74 F3              je          1000357E
  1000358B: FF 15 7C 60 00 10  call        dword ptr ds:[1000607Ch]
  10003591: 39 03              cmp         dword ptr [ebx],eax
  10003593: 74 E9              je          1000357E
  10003595: FF 33              push        dword ptr [ebx]
  10003597: FF D6              call        esi
  10003599: 89 45 F8           mov         dword ptr [ebp-8],eax
  1000359C: FF 15 7C 60 00 10  call        dword ptr ds:[1000607Ch]
  100035A2: 89 03              mov         dword ptr [ebx],eax
  100035A4: FF 55 F8           call        dword ptr [ebp-8]
  100035A7: FF 35 00 2E 01 10  push        dword ptr ds:[10012E00h]
  100035AD: FF D6              call        esi
  100035AF: FF 35 FC 2D 01 10  push        dword ptr ds:[10012DFCh]
  100035B5: 89 45 F8           mov         dword ptr [ebp-8],eax
  100035B8: FF D6              call        esi
  100035BA: 8B 4D F8           mov         ecx,dword ptr [ebp-8]
  100035BD: 39 4D 10           cmp         dword ptr [ebp+10h],ecx
  100035C0: 75 05              jne         100035C7
  100035C2: 39 45 08           cmp         dword ptr [ebp+8],eax
  100035C5: 74 B7              je          1000357E
  100035C7: 89 4D 10           mov         dword ptr [ebp+10h],ecx
  100035CA: 89 4D 0C           mov         dword ptr [ebp+0Ch],ecx
  100035CD: 89 45 08           mov         dword ptr [ebp+8],eax
  100035D0: 8B D8              mov         ebx,eax
  100035D2: EB AA              jmp         1000357E
  100035D4: FF 75 0C           push        dword ptr [ebp+0Ch]
  100035D7: FF 15 80 60 00 10  call        dword ptr ds:[10006080h]
  100035DD: 59                 pop         ecx
  100035DE: FF 15 7C 60 00 10  call        dword ptr ds:[1000607Ch]
  100035E4: A3 FC 2D 01 10     mov         dword ptr ds:[10012DFCh],eax
  100035E9: A3 00 2E 01 10     mov         dword ptr ds:[10012E00h],eax
  100035EE: 33 C0              xor         eax,eax
  100035F0: A3 F4 2D 01 10     mov         dword ptr ds:[10012DF4h],eax
  100035F5: 39 45 FC           cmp         dword ptr [ebp-4],eax
  100035F8: 75 08              jne         10003602
  100035FA: 50                 push        eax
  100035FB: 57                 push        edi
  100035FC: FF 15 04 60 00 10  call        dword ptr ds:[10006004h]
  10003602: 33 C0              xor         eax,eax
  10003604: 40                 inc         eax
  10003605: 5F                 pop         edi
  10003606: 5E                 pop         esi
  10003607: 5B                 pop         ebx
  10003608: C9                 leave
  10003609: C2 0C 00           ret         0Ch
  1000360C: 6A 10              push        10h
  1000360E: 68 20 FF 00 10     push        1000FF20h
  10003613: E8 98 04 00 00     call        10003AB0
  10003618: 8B F9              mov         edi,ecx
  1000361A: 8B F2              mov         esi,edx
  1000361C: 8B 5D 08           mov         ebx,dword ptr [ebp+8]
  1000361F: 33 C0              xor         eax,eax
  10003621: 40                 inc         eax
  10003622: 89 45 E4           mov         dword ptr [ebp-1Ch],eax
  10003625: 33 C9              xor         ecx,ecx
  10003627: 89 4D FC           mov         dword ptr [ebp-4],ecx
  1000362A: 89 35 18 20 01 10  mov         dword ptr ds:[10012018h],esi
  10003630: 89 45 FC           mov         dword ptr [ebp-4],eax
  10003633: 3B F1              cmp         esi,ecx
  10003635: 75 10              jne         10003647
  10003637: 39 0D C0 2A 01 10  cmp         dword ptr ds:[10012AC0h],ecx
  1000363D: 75 08              jne         10003647
  1000363F: 89 4D E4           mov         dword ptr [ebp-1Ch],ecx
  10003642: E9 B7 00 00 00     jmp         100036FE
  10003647: 3B F0              cmp         esi,eax
  10003649: 74 05              je          10003650
  1000364B: 83 FE 02           cmp         esi,2
  1000364E: 75 2E              jne         1000367E
  10003650: A1 F4 60 00 10     mov         eax,dword ptr ds:[100060F4h]
  10003655: 3B C1              cmp         eax,ecx
  10003657: 74 08              je          10003661
  10003659: 57                 push        edi
  1000365A: 56                 push        esi
  1000365B: 53                 push        ebx
  1000365C: FF D0              call        eax
  1000365E: 89 45 E4           mov         dword ptr [ebp-1Ch],eax
  10003661: 83 7D E4 00        cmp         dword ptr [ebp-1Ch],0
  10003665: 0F 84 93 00 00 00  je          100036FE
  1000366B: 57                 push        edi
  1000366C: 56                 push        esi
  1000366D: 53                 push        ebx
  1000366E: E8 8F FD FF FF     call        10003402
  10003673: 89 45 E4           mov         dword ptr [ebp-1Ch],eax
  10003676: 85 C0              test        eax,eax
  10003678: 0F 84 80 00 00 00  je          100036FE
  1000367E: 57                 push        edi
  1000367F: 56                 push        esi
  10003680: 53                 push        ebx
  10003681: E8 FE 03 00 00     call        10003A84
  10003686: 89 45 E4           mov         dword ptr [ebp-1Ch],eax
  10003689: 83 FE 01           cmp         esi,1
  1000368C: 75 24              jne         100036B2
  1000368E: 85 C0              test        eax,eax
  10003690: 75 20              jne         100036B2
  10003692: 57                 push        edi
  10003693: 50                 push        eax
  10003694: 53                 push        ebx
  10003695: E8 EA 03 00 00     call        10003A84
  1000369A: 57                 push        edi
  1000369B: 6A 00              push        0
  1000369D: 53                 push        ebx
  1000369E: E8 5F FD FF FF     call        10003402
  100036A3: A1 F4 60 00 10     mov         eax,dword ptr ds:[100060F4h]
  100036A8: 85 C0              test        eax,eax
  100036AA: 74 06              je          100036B2
  100036AC: 57                 push        edi
  100036AD: 6A 00              push        0
  100036AF: 53                 push        ebx
  100036B0: FF D0              call        eax
  100036B2: 85 F6              test        esi,esi
  100036B4: 74 05              je          100036BB
  100036B6: 83 FE 03           cmp         esi,3
  100036B9: 75 43              jne         100036FE
  100036BB: 57                 push        edi
  100036BC: 56                 push        esi
  100036BD: 53                 push        ebx
  100036BE: E8 3F FD FF FF     call        10003402
  100036C3: 85 C0              test        eax,eax
  100036C5: 75 03              jne         100036CA
  100036C7: 21 45 E4           and         dword ptr [ebp-1Ch],eax
  100036CA: 83 7D E4 00        cmp         dword ptr [ebp-1Ch],0
  100036CE: 74 2E              je          100036FE
  100036D0: A1 F4 60 00 10     mov         eax,dword ptr ds:[100060F4h]
  100036D5: 85 C0              test        eax,eax
  100036D7: 74 25              je          100036FE
  100036D9: 57                 push        edi
  100036DA: 56                 push        esi
  100036DB: 53                 push        ebx
  100036DC: FF D0              call        eax
  100036DE: 89 45 E4           mov         dword ptr [ebp-1Ch],eax
  100036E1: EB 1B              jmp         100036FE
  100036E3: 8B 45 EC           mov         eax,dword ptr [ebp-14h]
  100036E6: 8B 08              mov         ecx,dword ptr [eax]
  100036E8: 8B 09              mov         ecx,dword ptr [ecx]
  100036EA: 89 4D E0           mov         dword ptr [ebp-20h],ecx
  100036ED: 50                 push        eax
  100036EE: 51                 push        ecx
  100036EF: E8 8A 03 00 00     call        10003A7E
  100036F4: 59                 pop         ecx
  100036F5: 59                 pop         ecx
  100036F6: C3                 ret
  100036F7: 8B 65 E8           mov         esp,dword ptr [ebp-18h]
  100036FA: 83 65 E4 00        and         dword ptr [ebp-1Ch],0
  100036FE: 83 65 FC 00        and         dword ptr [ebp-4],0
  10003702: C7 45 FC FE FF FF  mov         dword ptr [ebp-4],0FFFFFFFEh
            FF
  10003709: E8 09 00 00 00     call        10003717
  1000370E: 8B 45 E4           mov         eax,dword ptr [ebp-1Ch]
  10003711: E8 DF 03 00 00     call        10003AF5
  10003716: C3                 ret
  10003717: C7 05 18 20 01 10  mov         dword ptr ds:[10012018h],0FFFFFFFFh
            FF FF FF FF
  10003721: C3                 ret
  10003722: 8B FF              mov         edi,edi
  10003724: 55                 push        ebp
  10003725: 8B EC              mov         ebp,esp
  10003727: 83 7D 0C 01        cmp         dword ptr [ebp+0Ch],1
  1000372B: 75 05              jne         10003732
  1000372D: E8 FC 03 00 00     call        10003B2E
  10003732: FF 75 08           push        dword ptr [ebp+8]
  10003735: 8B 4D 10           mov         ecx,dword ptr [ebp+10h]
  10003738: 8B 55 0C           mov         edx,dword ptr [ebp+0Ch]
  1000373B: E8 CC FE FF FF     call        1000360C
  10003740: 59                 pop         ecx
  10003741: 5D                 pop         ebp
  10003742: C2 0C 00           ret         0Ch
  10003745: 6A 14              push        14h
  10003747: 68 48 FF 00 10     push        1000FF48h
  1000374C: E8 5F 03 00 00     call        10003AB0
  10003751: 83 65 FC 00        and         dword ptr [ebp-4],0
  10003755: FF 4D 10           dec         dword ptr [ebp+10h]
  10003758: 78 3A              js          10003794
  1000375A: 8B 4D 08           mov         ecx,dword ptr [ebp+8]
  1000375D: 2B 4D 0C           sub         ecx,dword ptr [ebp+0Ch]
  10003760: 89 4D 08           mov         dword ptr [ebp+8],ecx
  10003763: FF 55 14           call        dword ptr [ebp+14h]
  10003766: EB ED              jmp         10003755
  10003768: 8B 45 EC           mov         eax,dword ptr [ebp-14h]
  1000376B: 89 45 E4           mov         dword ptr [ebp-1Ch],eax
  1000376E: 8B 45 E4           mov         eax,dword ptr [ebp-1Ch]
  10003771: 8B 00              mov         eax,dword ptr [eax]
  10003773: 89 45 E0           mov         dword ptr [ebp-20h],eax
  10003776: 8B 45 E0           mov         eax,dword ptr [ebp-20h]
  10003779: 81 38 63 73 6D E0  cmp         dword ptr [eax],0E06D7363h
  1000377F: 74 0B              je          1000378C
  10003781: C7 45 DC 00 00 00  mov         dword ptr [ebp-24h],0
            00
  10003788: 8B 45 DC           mov         eax,dword ptr [ebp-24h]
  1000378B: C3                 ret
  1000378C: E8 39 04 00 00     call        10003BCA
  10003791: 8B 65 E8           mov         esp,dword ptr [ebp-18h]
  10003794: C7 45 FC FE FF FF  mov         dword ptr [ebp-4],0FFFFFFFEh
            FF
  1000379B: E8 55 03 00 00     call        10003AF5
  100037A0: C2 10 00           ret         10h
  100037A3: 6A 0C              push        0Ch
  100037A5: 68 68 FF 00 10     push        1000FF68h
  100037AA: E8 01 03 00 00     call        10003AB0
  100037AF: 83 65 E4 00        and         dword ptr [ebp-1Ch],0
  100037B3: 8B 75 0C           mov         esi,dword ptr [ebp+0Ch]
  100037B6: 8B C6              mov         eax,esi
  100037B8: 0F AF 45 10        imul        eax,dword ptr [ebp+10h]
  100037BC: 01 45 08           add         dword ptr [ebp+8],eax
  100037BF: 83 65 FC 00        and         dword ptr [ebp-4],0
  100037C3: FF 4D 10           dec         dword ptr [ebp+10h]
  100037C6: 78 0B              js          100037D3
  100037C8: 29 75 08           sub         dword ptr [ebp+8],esi
  100037CB: 8B 4D 08           mov         ecx,dword ptr [ebp+8]
  100037CE: FF 55 14           call        dword ptr [ebp+14h]
  100037D1: EB F0              jmp         100037C3
  100037D3: C7 45 E4 01 00 00  mov         dword ptr [ebp-1Ch],1
            00
  100037DA: C7 45 FC FE FF FF  mov         dword ptr [ebp-4],0FFFFFFFEh
            FF
  100037E1: E8 08 00 00 00     call        100037EE
  100037E6: E8 0A 03 00 00     call        10003AF5
  100037EB: C2 10 00           ret         10h
  100037EE: 83 7D E4 00        cmp         dword ptr [ebp-1Ch],0
  100037F2: 75 11              jne         10003805
  100037F4: FF 75 14           push        dword ptr [ebp+14h]
  100037F7: FF 75 10           push        dword ptr [ebp+10h]
  100037FA: FF 75 0C           push        dword ptr [ebp+0Ch]
  100037FD: FF 75 08           push        dword ptr [ebp+8]
  10003800: E8 40 FF FF FF     call        10003745
  10003805: C3                 ret
  10003806: 68 C4 2A 01 10     push        10012AC4h
  1000380B: E8 C6 03 00 00     call        10003BD6
  10003810: 59                 pop         ecx
  10003811: C3                 ret
  10003812: 6A 14              push        14h
  10003814: 68 88 FF 00 10     push        1000FF88h
  10003819: E8 92 02 00 00     call        10003AB0
  1000381E: FF 35 00 2E 01 10  push        dword ptr ds:[10012E00h]
  10003824: 8B 35 00 60 00 10  mov         esi,dword ptr ds:[10006000h]
  1000382A: FF D6              call        esi
  1000382C: 89 45 E4           mov         dword ptr [ebp-1Ch],eax
  1000382F: 83 F8 FF           cmp         eax,0FFFFFFFFh
  10003832: 75 0C              jne         10003840
  10003834: FF 75 08           push        dword ptr [ebp+8]
  10003837: FF 15 60 60 00 10  call        dword ptr ds:[10006060h]
  1000383D: 59                 pop         ecx
  1000383E: EB 64              jmp         100038A4
  10003840: 6A 08              push        8
  10003842: E8 A1 03 00 00     call        10003BE8
  10003847: 59                 pop         ecx
  10003848: 83 65 FC 00        and         dword ptr [ebp-4],0
  1000384C: FF 35 00 2E 01 10  push        dword ptr ds:[10012E00h]
  10003852: FF D6              call        esi
  10003854: 89 45 E4           mov         dword ptr [ebp-1Ch],eax
  10003857: FF 35 FC 2D 01 10  push        dword ptr ds:[10012DFCh]
  1000385D: FF D6              call        esi
  1000385F: 89 45 E0           mov         dword ptr [ebp-20h],eax
  10003862: 8D 45 E0           lea         eax,[ebp-20h]
  10003865: 50                 push        eax
  10003866: 8D 45 E4           lea         eax,[ebp-1Ch]
  10003869: 50                 push        eax
  1000386A: FF 75 08           push        dword ptr [ebp+8]
  1000386D: 8B 35 3C 60 00 10  mov         esi,dword ptr ds:[1000603Ch]
  10003873: FF D6              call        esi
  10003875: 50                 push        eax
  10003876: E8 67 03 00 00     call        10003BE2
  1000387B: 83 C4 0C           add         esp,0Ch
  1000387E: 89 45 DC           mov         dword ptr [ebp-24h],eax
  10003881: FF 75 E4           push        dword ptr [ebp-1Ch]
  10003884: FF D6              call        esi
  10003886: A3 00 2E 01 10     mov         dword ptr ds:[10012E00h],eax
  1000388B: FF 75 E0           push        dword ptr [ebp-20h]
  1000388E: FF D6              call        esi
  10003890: A3 FC 2D 01 10     mov         dword ptr ds:[10012DFCh],eax
  10003895: C7 45 FC FE FF FF  mov         dword ptr [ebp-4],0FFFFFFFEh
            FF
  1000389C: E8 09 00 00 00     call        100038AA
  100038A1: 8B 45 DC           mov         eax,dword ptr [ebp-24h]
  100038A4: E8 4C 02 00 00     call        10003AF5
  100038A9: C3                 ret
  100038AA: 6A 08              push        8
  100038AC: E8 2B 03 00 00     call        10003BDC
  100038B1: 59                 pop         ecx
  100038B2: C3                 ret
  100038B3: 8B FF              mov         edi,edi
  100038B5: 55                 push        ebp
  100038B6: 8B EC              mov         ebp,esp
  100038B8: FF 75 08           push        dword ptr [ebp+8]
  100038BB: E8 52 FF FF FF     call        10003812
  100038C0: F7 D8              neg         eax
  100038C2: 1B C0              sbb         eax,eax
  100038C4: F7 D8              neg         eax
  100038C6: 59                 pop         ecx
  100038C7: 48                 dec         eax
  100038C8: 5D                 pop         ebp
  100038C9: C3                 ret
  100038CA: 8B FF              mov         edi,edi
  100038CC: 56                 push        esi
  100038CD: B8 10 FF 00 10     mov         eax,1000FF10h
  100038D2: BE 10 FF 00 10     mov         esi,1000FF10h
  100038D7: 57                 push        edi
  100038D8: 8B F8              mov         edi,eax
  100038DA: 3B C6              cmp         eax,esi
  100038DC: 73 0F              jae         100038ED
  100038DE: 8B 07              mov         eax,dword ptr [edi]
  100038E0: 85 C0              test        eax,eax
  100038E2: 74 02              je          100038E6
  100038E4: FF D0              call        eax
  100038E6: 83 C7 04           add         edi,4
  100038E9: 3B FE              cmp         edi,esi
  100038EB: 72 F1              jb          100038DE
  100038ED: 5F                 pop         edi
  100038EE: 5E                 pop         esi
  100038EF: C3                 ret
  100038F0: 8B FF              mov         edi,edi
  100038F2: 56                 push        esi
  100038F3: B8 18 FF 00 10     mov         eax,1000FF18h
  100038F8: BE 18 FF 00 10     mov         esi,1000FF18h
  100038FD: 57                 push        edi
  100038FE: 8B F8              mov         edi,eax
  10003900: 3B C6              cmp         eax,esi
  10003902: 73 0F              jae         10003913
  10003904: 8B 07              mov         eax,dword ptr [edi]
  10003906: 85 C0              test        eax,eax
  10003908: 74 02              je          1000390C
  1000390A: FF D0              call        eax
  1000390C: 83 C7 04           add         edi,4
  1000390F: 3B FE              cmp         edi,esi
  10003911: 72 F1              jb          10003904
  10003913: 5F                 pop         edi
  10003914: 5E                 pop         esi
  10003915: C3                 ret
  10003916: CC                 int         3
  10003917: CC                 int         3
  10003918: CC                 int         3
  10003919: CC                 int         3
  1000391A: CC                 int         3
  1000391B: CC                 int         3
  1000391C: CC                 int         3
  1000391D: CC                 int         3
  1000391E: CC                 int         3
  1000391F: CC                 int         3
  10003920: 8B FF              mov         edi,edi
  10003922: 55                 push        ebp
  10003923: 8B EC              mov         ebp,esp
  10003925: 8B 4D 08           mov         ecx,dword ptr [ebp+8]
  10003928: B8 4D 5A 00 00     mov         eax,5A4Dh
  1000392D: 66 39 01           cmp         word ptr [ecx],ax
  10003930: 74 04              je          10003936
  10003932: 33 C0              xor         eax,eax
  10003934: 5D                 pop         ebp
  10003935: C3                 ret
  10003936: 8B 41 3C           mov         eax,dword ptr [ecx+3Ch]
  10003939: 03 C1              add         eax,ecx
  1000393B: 81 38 50 45 00 00  cmp         dword ptr [eax],4550h
  10003941: 75 EF              jne         10003932
  10003943: 33 D2              xor         edx,edx
  10003945: B9 0B 01 00 00     mov         ecx,10Bh
  1000394A: 66 39 48 18        cmp         word ptr [eax+18h],cx
  1000394E: 0F 94 C2           sete        dl
  10003951: 8B C2              mov         eax,edx
  10003953: 5D                 pop         ebp
  10003954: C3                 ret
  10003955: CC                 int         3
  10003956: CC                 int         3
  10003957: CC                 int         3
  10003958: CC                 int         3
  10003959: CC                 int         3
  1000395A: CC                 int         3
  1000395B: CC                 int         3
  1000395C: CC                 int         3
  1000395D: CC                 int         3
  1000395E: CC                 int         3
  1000395F: CC                 int         3
  10003960: 8B FF              mov         edi,edi
  10003962: 55                 push        ebp
  10003963: 8B EC              mov         ebp,esp
  10003965: 8B 45 08           mov         eax,dword ptr [ebp+8]
  10003968: 8B 48 3C           mov         ecx,dword ptr [eax+3Ch]
  1000396B: 03 C8              add         ecx,eax
  1000396D: 0F B7 41 14        movzx       eax,word ptr [ecx+14h]
  10003971: 53                 push        ebx
  10003972: 56                 push        esi
  10003973: 0F B7 71 06        movzx       esi,word ptr [ecx+6]
  10003977: 33 D2              xor         edx,edx
  10003979: 57                 push        edi
  1000397A: 8D 44 08 18        lea         eax,[eax+ecx+18h]
  1000397E: 85 F6              test        esi,esi
  10003980: 74 1B              je          1000399D
  10003982: 8B 7D 0C           mov         edi,dword ptr [ebp+0Ch]
  10003985: 8B 48 0C           mov         ecx,dword ptr [eax+0Ch]
  10003988: 3B F9              cmp         edi,ecx
  1000398A: 72 09              jb          10003995
  1000398C: 8B 58 08           mov         ebx,dword ptr [eax+8]
  1000398F: 03 D9              add         ebx,ecx
  10003991: 3B FB              cmp         edi,ebx
  10003993: 72 0A              jb          1000399F
  10003995: 42                 inc         edx
  10003996: 83 C0 28           add         eax,28h
  10003999: 3B D6              cmp         edx,esi
  1000399B: 72 E8              jb          10003985
  1000399D: 33 C0              xor         eax,eax
  1000399F: 5F                 pop         edi
  100039A0: 5E                 pop         esi
  100039A1: 5B                 pop         ebx
  100039A2: 5D                 pop         ebp
  100039A3: C3                 ret
  100039A4: CC                 int         3
  100039A5: CC                 int         3
  100039A6: CC                 int         3
  100039A7: CC                 int         3
  100039A8: CC                 int         3
  100039A9: CC                 int         3
  100039AA: CC                 int         3
  100039AB: CC                 int         3
  100039AC: CC                 int         3
  100039AD: CC                 int         3
  100039AE: CC                 int         3
  100039AF: CC                 int         3
  100039B0: 8B FF              mov         edi,edi
  100039B2: 55                 push        ebp
  100039B3: 8B EC              mov         ebp,esp
  100039B5: 6A FE              push        0FFFFFFFEh
  100039B7: 68 A8 FF 00 10     push        1000FFA8h
  100039BC: 68 09 3B 00 10     push        10003B09h
  100039C1: 64 A1 00 00 00 00  mov         eax,dword ptr fs:[00000000h]
  100039C7: 50                 push        eax
  100039C8: 83 EC 08           sub         esp,8
  100039CB: 53                 push        ebx
  100039CC: 56                 push        esi
  100039CD: 57                 push        edi
  100039CE: A1 20 20 01 10     mov         eax,dword ptr ds:[10012020h]
  100039D3: 31 45 F8           xor         dword ptr [ebp-8],eax
  100039D6: 33 C5              xor         eax,ebp
  100039D8: 50                 push        eax
  100039D9: 8D 45 F0           lea         eax,[ebp-10h]
  100039DC: 64 A3 00 00 00 00  mov         dword ptr fs:[00000000h],eax
  100039E2: 89 65 E8           mov         dword ptr [ebp-18h],esp
  100039E5: C7 45 FC 00 00 00  mov         dword ptr [ebp-4],0
            00
  100039EC: 68 00 00 00 10     push        10000000h
  100039F1: E8 2A FF FF FF     call        10003920
  100039F6: 83 C4 04           add         esp,4
  100039F9: 85 C0              test        eax,eax
  100039FB: 74 54              je          10003A51
  100039FD: 8B 45 08           mov         eax,dword ptr [ebp+8]
  10003A00: 2D 00 00 00 10     sub         eax,10000000h
  10003A05: 50                 push        eax
  10003A06: 68 00 00 00 10     push        10000000h
  10003A0B: E8 50 FF FF FF     call        10003960
  10003A10: 83 C4 08           add         esp,8
  10003A13: 85 C0              test        eax,eax
  10003A15: 74 3A              je          10003A51
  10003A17: 8B 40 24           mov         eax,dword ptr [eax+24h]
  10003A1A: C1 E8 1F           shr         eax,1Fh
  10003A1D: F7 D0              not         eax
  10003A1F: 83 E0 01           and         eax,1
  10003A22: C7 45 FC FE FF FF  mov         dword ptr [ebp-4],0FFFFFFFEh
            FF
  10003A29: 8B 4D F0           mov         ecx,dword ptr [ebp-10h]
  10003A2C: 64 89 0D 00 00 00  mov         dword ptr fs:[00000000h],ecx
            00
  10003A33: 59                 pop         ecx
  10003A34: 5F                 pop         edi
  10003A35: 5E                 pop         esi
  10003A36: 5B                 pop         ebx
  10003A37: 8B E5              mov         esp,ebp
  10003A39: 5D                 pop         ebp
  10003A3A: C3                 ret
  10003A3B: 8B 45 EC           mov         eax,dword ptr [ebp-14h]
  10003A3E: 8B 08              mov         ecx,dword ptr [eax]
  10003A40: 33 D2              xor         edx,edx
  10003A42: 81 39 05 00 00 C0  cmp         dword ptr [ecx],0C0000005h
  10003A48: 0F 94 C2           sete        dl
  10003A4B: 8B C2              mov         eax,edx
  10003A4D: C3                 ret
  10003A4E: 8B 65 E8           mov         esp,dword ptr [ebp-18h]
  10003A51: C7 45 FC FE FF FF  mov         dword ptr [ebp-4],0FFFFFFFEh
            FF
  10003A58: 33 C0              xor         eax,eax
  10003A5A: 8B 4D F0           mov         ecx,dword ptr [ebp-10h]
  10003A5D: 64 89 0D 00 00 00  mov         dword ptr fs:[00000000h],ecx
            00
  10003A64: 59                 pop         ecx
  10003A65: 5F                 pop         edi
  10003A66: 5E                 pop         esi
  10003A67: 5B                 pop         ebx
  10003A68: 8B E5              mov         esp,ebp
  10003A6A: 5D                 pop         ebp
  10003A6B: C3                 ret
  10003A6C: FF 25 78 60 00 10  jmp         dword ptr ds:[10006078h]
  10003A72: FF 25 74 60 00 10  jmp         dword ptr ds:[10006074h]
  10003A78: FF 25 70 60 00 10  jmp         dword ptr ds:[10006070h]
  10003A7E: FF 25 6C 60 00 10  jmp         dword ptr ds:[1000606Ch]
  10003A84: 8B FF              mov         edi,edi
  10003A86: 55                 push        ebp
  10003A87: 8B EC              mov         ebp,esp
  10003A89: 83 7D 0C 01        cmp         dword ptr [ebp+0Ch],1
  10003A8D: 75 12              jne         10003AA1
  10003A8F: 83 3D F4 60 00 10  cmp         dword ptr ds:[100060F4h],0
            00
  10003A96: 75 09              jne         10003AA1
  10003A98: FF 75 08           push        dword ptr [ebp+8]
  10003A9B: FF 15 30 60 00 10  call        dword ptr ds:[10006030h]
  10003AA1: 33 C0              xor         eax,eax
  10003AA3: 40                 inc         eax
  10003AA4: 5D                 pop         ebp
  10003AA5: C2 0C 00           ret         0Ch
  10003AA8: CC                 int         3
  10003AA9: CC                 int         3
  10003AAA: CC                 int         3
  10003AAB: CC                 int         3
  10003AAC: CC                 int         3
  10003AAD: CC                 int         3
  10003AAE: CC                 int         3
  10003AAF: CC                 int         3
  10003AB0: 68 09 3B 00 10     push        10003B09h
  10003AB5: 64 FF 35 00 00 00  push        dword ptr fs:[00000000h]
            00
  10003ABC: 8B 44 24 10        mov         eax,dword ptr [esp+10h]
  10003AC0: 89 6C 24 10        mov         dword ptr [esp+10h],ebp
  10003AC4: 8D 6C 24 10        lea         ebp,[esp+10h]
  10003AC8: 2B E0              sub         esp,eax
  10003ACA: 53                 push        ebx
  10003ACB: 56                 push        esi
  10003ACC: 57                 push        edi
  10003ACD: A1 20 20 01 10     mov         eax,dword ptr ds:[10012020h]
  10003AD2: 31 45 FC           xor         dword ptr [ebp-4],eax
  10003AD5: 33 C5              xor         eax,ebp
  10003AD7: 50                 push        eax
  10003AD8: 89 65 E8           mov         dword ptr [ebp-18h],esp
  10003ADB: FF 75 F8           push        dword ptr [ebp-8]
  10003ADE: 8B 45 FC           mov         eax,dword ptr [ebp-4]
  10003AE1: C7 45 FC FE FF FF  mov         dword ptr [ebp-4],0FFFFFFFEh
            FF
  10003AE8: 89 45 F8           mov         dword ptr [ebp-8],eax
  10003AEB: 8D 45 F0           lea         eax,[ebp-10h]
  10003AEE: 64 A3 00 00 00 00  mov         dword ptr fs:[00000000h],eax
  10003AF4: C3                 ret
  10003AF5: 8B 4D F0           mov         ecx,dword ptr [ebp-10h]
  10003AF8: 64 89 0D 00 00 00  mov         dword ptr fs:[00000000h],ecx
            00
  10003AFF: 59                 pop         ecx
  10003B00: 5F                 pop         edi
  10003B01: 5F                 pop         edi
  10003B02: 5E                 pop         esi
  10003B03: 5B                 pop         ebx
  10003B04: 8B E5              mov         esp,ebp
  10003B06: 5D                 pop         ebp
  10003B07: 51                 push        ecx
  10003B08: C3                 ret
  10003B09: 8B FF              mov         edi,edi
  10003B0B: 55                 push        ebp
  10003B0C: 8B EC              mov         ebp,esp
  10003B0E: FF 75 14           push        dword ptr [ebp+14h]
  10003B11: FF 75 10           push        dword ptr [ebp+10h]
  10003B14: FF 75 0C           push        dword ptr [ebp+0Ch]
  10003B17: FF 75 08           push        dword ptr [ebp+8]
  10003B1A: 68 EE 3B 00 10     push        10003BEEh
  10003B1F: 68 20 20 01 10     push        10012020h
  10003B24: E8 D5 00 00 00     call        10003BFE
  10003B29: 83 C4 18           add         esp,18h
  10003B2C: 5D                 pop         ebp
  10003B2D: C3                 ret
  10003B2E: 8B FF              mov         edi,edi
  10003B30: 55                 push        ebp
  10003B31: 8B EC              mov         ebp,esp
  10003B33: 83 EC 10           sub         esp,10h
  10003B36: A1 20 20 01 10     mov         eax,dword ptr ds:[10012020h]
  10003B3B: 83 65 F8 00        and         dword ptr [ebp-8],0
  10003B3F: 83 65 FC 00        and         dword ptr [ebp-4],0
  10003B43: 53                 push        ebx
  10003B44: 57                 push        edi
  10003B45: BF 4E E6 40 BB     mov         edi,0BB40E64Eh
  10003B4A: BB 00 00 FF FF     mov         ebx,0FFFF0000h
  10003B4F: 3B C7              cmp         eax,edi
  10003B51: 74 0D              je          10003B60
  10003B53: 85 C3              test        ebx,eax
  10003B55: 74 09              je          10003B60
  10003B57: F7 D0              not         eax
  10003B59: A3 24 20 01 10     mov         dword ptr ds:[10012024h],eax
  10003B5E: EB 65              jmp         10003BC5
  10003B60: 56                 push        esi
  10003B61: 8D 45 F8           lea         eax,[ebp-8]
  10003B64: 50                 push        eax
  10003B65: FF 15 1C 60 00 10  call        dword ptr ds:[1000601Ch]
  10003B6B: 8B 75 FC           mov         esi,dword ptr [ebp-4]
  10003B6E: 33 75 F8           xor         esi,dword ptr [ebp-8]
  10003B71: FF 15 20 60 00 10  call        dword ptr ds:[10006020h]
  10003B77: 33 F0              xor         esi,eax
  10003B79: FF 15 24 60 00 10  call        dword ptr ds:[10006024h]
  10003B7F: 33 F0              xor         esi,eax
  10003B81: FF 15 28 60 00 10  call        dword ptr ds:[10006028h]
  10003B87: 33 F0              xor         esi,eax
  10003B89: 8D 45 F0           lea         eax,[ebp-10h]
  10003B8C: 50                 push        eax
  10003B8D: FF 15 2C 60 00 10  call        dword ptr ds:[1000602Ch]
  10003B93: 8B 45 F4           mov         eax,dword ptr [ebp-0Ch]
  10003B96: 33 45 F0           xor         eax,dword ptr [ebp-10h]
  10003B99: 33 F0              xor         esi,eax
  10003B9B: 3B F7              cmp         esi,edi
  10003B9D: 75 07              jne         10003BA6
  10003B9F: BE 4F E6 40 BB     mov         esi,0BB40E64Fh
  10003BA4: EB 10              jmp         10003BB6
  10003BA6: 85 F3              test        ebx,esi
  10003BA8: 75 0C              jne         10003BB6
  10003BAA: 8B C6              mov         eax,esi
  10003BAC: 0D 11 47 00 00     or          eax,4711h
  10003BB1: C1 E0 10           shl         eax,10h
  10003BB4: 0B F0              or          esi,eax
  10003BB6: 89 35 20 20 01 10  mov         dword ptr ds:[10012020h],esi
  10003BBC: F7 D6              not         esi
  10003BBE: 89 35 24 20 01 10  mov         dword ptr ds:[10012024h],esi
  10003BC4: 5E                 pop         esi
  10003BC5: 5F                 pop         edi
  10003BC6: 5B                 pop         ebx
  10003BC7: C9                 leave
  10003BC8: C3                 ret
  10003BC9: CC                 int         3
  10003BCA: FF 25 4C 60 00 10  jmp         dword ptr ds:[1000604Ch]
  10003BD0: FF 25 50 60 00 10  jmp         dword ptr ds:[10006050h]
  10003BD6: FF 25 54 60 00 10  jmp         dword ptr ds:[10006054h]
  10003BDC: FF 25 AC 60 00 10  jmp         dword ptr ds:[100060ACh]
  10003BE2: FF 25 58 60 00 10  jmp         dword ptr ds:[10006058h]
  10003BE8: FF 25 5C 60 00 10  jmp         dword ptr ds:[1000605Ch]
  10003BEE: 3B 0D 20 20 01 10  cmp         ecx,dword ptr ds:[10012020h]
  10003BF4: 75 02              jne         10003BF8
  10003BF6: F3 C3              rep ret
  10003BF8: E9 07 00 00 00     jmp         10003C04
  10003BFD: CC                 int         3
  10003BFE: FF 25 64 60 00 10  jmp         dword ptr ds:[10006064h]
  10003C04: 8B FF              mov         edi,edi
  10003C06: 55                 push        ebp
  10003C07: 8B EC              mov         ebp,esp
  10003C09: 81 EC 28 03 00 00  sub         esp,328h
  10003C0F: A3 D8 2B 01 10     mov         dword ptr ds:[10012BD8h],eax
  10003C14: 89 0D D4 2B 01 10  mov         dword ptr ds:[10012BD4h],ecx
  10003C1A: 89 15 D0 2B 01 10  mov         dword ptr ds:[10012BD0h],edx
  10003C20: 89 1D CC 2B 01 10  mov         dword ptr ds:[10012BCCh],ebx
  10003C26: 89 35 C8 2B 01 10  mov         dword ptr ds:[10012BC8h],esi
  10003C2C: 89 3D C4 2B 01 10  mov         dword ptr ds:[10012BC4h],edi
  10003C32: 66 8C 15 F0 2B 01  mov         word ptr ds:[10012BF0h],ss
            10
  10003C39: 66 8C 0D E4 2B 01  mov         word ptr ds:[10012BE4h],cs
            10
  10003C40: 66 8C 1D C0 2B 01  mov         word ptr ds:[10012BC0h],ds
            10
  10003C47: 66 8C 05 BC 2B 01  mov         word ptr ds:[10012BBCh],es
            10
  10003C4E: 66 8C 25 B8 2B 01  mov         word ptr ds:[10012BB8h],fs
            10
  10003C55: 66 8C 2D B4 2B 01  mov         word ptr ds:[10012BB4h],gs
            10
  10003C5C: 9C                 pushfd
  10003C5D: 8F 05 E8 2B 01 10  pop         dword ptr ds:[10012BE8h]
  10003C63: 8B 45 00           mov         eax,dword ptr [ebp]
  10003C66: A3 DC 2B 01 10     mov         dword ptr ds:[10012BDCh],eax
  10003C6B: 8B 45 04           mov         eax,dword ptr [ebp+4]
  10003C6E: A3 E0 2B 01 10     mov         dword ptr ds:[10012BE0h],eax
  10003C73: 8D 45 08           lea         eax,[ebp+8]
  10003C76: A3 EC 2B 01 10     mov         dword ptr ds:[10012BECh],eax
  10003C7B: 8B 85 E0 FC FF FF  mov         eax,dword ptr [ebp+FFFFFCE0h]
  10003C81: C7 05 28 2B 01 10  mov         dword ptr ds:[10012B28h],10001h
            01 00 01 00
  10003C8B: A1 E0 2B 01 10     mov         eax,dword ptr ds:[10012BE0h]
  10003C90: A3 DC 2A 01 10     mov         dword ptr ds:[10012ADCh],eax
  10003C95: C7 05 D0 2A 01 10  mov         dword ptr ds:[10012AD0h],0C0000409h
            09 04 00 C0
  10003C9F: C7 05 D4 2A 01 10  mov         dword ptr ds:[10012AD4h],1
            01 00 00 00
  10003CA9: A1 20 20 01 10     mov         eax,dword ptr ds:[10012020h]
  10003CAE: 89 85 D8 FC FF FF  mov         dword ptr [ebp+FFFFFCD8h],eax
  10003CB4: A1 24 20 01 10     mov         eax,dword ptr ds:[10012024h]
  10003CB9: 89 85 DC FC FF FF  mov         dword ptr [ebp+FFFFFCDCh],eax
  10003CBF: FF 15 08 60 00 10  call        dword ptr ds:[10006008h]
  10003CC5: A3 20 2B 01 10     mov         dword ptr ds:[10012B20h],eax
  10003CCA: 6A 01              push        1
  10003CCC: E8 39 00 00 00     call        10003D0A
  10003CD1: 59                 pop         ecx
  10003CD2: 6A 00              push        0
  10003CD4: FF 15 0C 60 00 10  call        dword ptr ds:[1000600Ch]
  10003CDA: 68 F8 60 00 10     push        100060F8h
  10003CDF: FF 15 10 60 00 10  call        dword ptr ds:[10006010h]
  10003CE5: 83 3D 20 2B 01 10  cmp         dword ptr ds:[10012B20h],0
            00
  10003CEC: 75 08              jne         10003CF6
  10003CEE: 6A 01              push        1
  10003CF0: E8 15 00 00 00     call        10003D0A
  10003CF5: 59                 pop         ecx
  10003CF6: 68 09 04 00 C0     push        0C0000409h
  10003CFB: FF 15 14 60 00 10  call        dword ptr ds:[10006014h]
  10003D01: 50                 push        eax
  10003D02: FF 15 18 60 00 10  call        dword ptr ds:[10006018h]
  10003D08: C9                 leave
  10003D09: C3                 ret
  10003D0A: FF 25 68 60 00 10  jmp         dword ptr ds:[10006068h]
  10003D10: 56                 push        esi
  10003D11: 8B 74 24 08        mov         esi,dword ptr [esp+8]
  10003D15: 80 7E 0C 00        cmp         byte ptr [esi+0Ch],0
  10003D19: 57                 push        edi
  10003D1A: 8B F9              mov         edi,ecx
  10003D1C: 74 1E              je          10003D3C
  10003D1E: 68 34 01 00 00     push        134h
  10003D23: 68 E4 FB 00 10     push        1000FBE4h
  10003D28: 68 B0 FC 00 10     push        1000FCB0h
  10003D2D: 68 C8 FC 00 10     push        1000FCC8h
  10003D32: FF 15 90 60 00 10  call        dword ptr ds:[10006090h]
  10003D38: 83 C4 10           add         esp,10h
  10003D3B: CC                 int         3
  10003D3C: C6 46 0C 01        mov         byte ptr [esi+0Ch],1
  10003D40: 8B 47 14           mov         eax,dword ptr [edi+14h]
  10003D43: 5F                 pop         edi
  10003D44: 89 06              mov         dword ptr [esi],eax
  10003D46: 5E                 pop         esi
  10003D47: C2 04 00           ret         4
  10003D4A: CC                 int         3
  10003D4B: CC                 int         3
  10003D4C: CC                 int         3
  10003D4D: CC                 int         3
  10003D4E: CC                 int         3
  10003D4F: CC                 int         3
  10003D50: 8B 44 24 04        mov         eax,dword ptr [esp+4]
  10003D54: 83 CA FF           or          edx,0FFFFFFFFh
  10003D57: 80 7C 24 08 00     cmp         byte ptr [esp+8],0
  10003D5C: 89 10              mov         dword ptr [eax],edx
  10003D5E: 89 50 04           mov         dword ptr [eax+4],edx
  10003D61: 89 50 0C           mov         dword ptr [eax+0Ch],edx
  10003D64: 8A 54 24 0C        mov         dl,byte ptr [esp+0Ch]
  10003D68: 89 48 08           mov         dword ptr [eax+8],ecx
  10003D6B: C6 40 0C 00        mov         byte ptr [eax+0Ch],0
  10003D6F: 88 50 04           mov         byte ptr [eax+4],dl
  10003D72: 74 09              je          10003D7D
  10003D74: C6 40 0C 01        mov         byte ptr [eax+0Ch],1
  10003D78: 8B 49 14           mov         ecx,dword ptr [ecx+14h]
  10003D7B: 89 08              mov         dword ptr [eax],ecx
  10003D7D: C2 0C 00           ret         0Ch
  10003D80: 56                 push        esi
  10003D81: 8B F1              mov         esi,ecx
  10003D83: 8B 46 14           mov         eax,dword ptr [esi+14h]
  10003D86: 03 44 24 08        add         eax,dword ptr [esp+8]
  10003D8A: 39 46 18           cmp         dword ptr [esi+18h],eax
  10003D8D: 73 42              jae         10003DD1
  10003D8F: 80 7E 1C 00        cmp         byte ptr [esi+1Ch],0
  10003D93: 75 1E              jne         10003DB3
  10003D95: 68 00 01 00 00     push        100h
  10003D9A: 68 E4 FB 00 10     push        1000FBE4h
  10003D9F: 68 58 FC 00 10     push        1000FC58h
  10003DA4: 68 78 FC 00 10     push        1000FC78h
  10003DA9: FF 15 90 60 00 10  call        dword ptr ds:[10006090h]
  10003DAF: 83 C4 10           add         esp,10h
  10003DB2: CC                 int         3
  10003DB3: 8B 46 18           mov         eax,dword ptr [esi+18h]
  10003DB6: 8B 56 04           mov         edx,dword ptr [esi+4]
  10003DB9: 8D 8C 00 00 01 00  lea         ecx,[eax+eax+00000100h]
            00
  10003DC0: 51                 push        ecx
  10003DC1: 89 4E 18           mov         dword ptr [esi+18h],ecx
  10003DC4: 8B 4E 10           mov         ecx,dword ptr [esi+10h]
  10003DC7: 50                 push        eax
  10003DC8: 51                 push        ecx
  10003DC9: FF D2              call        edx
  10003DCB: 83 C4 0C           add         esp,0Ch
  10003DCE: 89 46 10           mov         dword ptr [esi+10h],eax
  10003DD1: 5E                 pop         esi
  10003DD2: C2 04 00           ret         4
  10003DD5: CC                 int         3
  10003DD6: CC                 int         3
  10003DD7: CC                 int         3
  10003DD8: CC                 int         3
  10003DD9: CC                 int         3
  10003DDA: CC                 int         3
  10003DDB: CC                 int         3
  10003DDC: CC                 int         3
  10003DDD: CC                 int         3
  10003DDE: CC                 int         3
  10003DDF: CC                 int         3
  10003DE0: C3                 ret
  10003DE1: CC                 int         3
  10003DE2: CC                 int         3
  10003DE3: CC                 int         3
  10003DE4: CC                 int         3
  10003DE5: CC                 int         3
  10003DE6: CC                 int         3
  10003DE7: CC                 int         3
  10003DE8: CC                 int         3
  10003DE9: CC                 int         3
  10003DEA: CC                 int         3
  10003DEB: CC                 int         3
  10003DEC: CC                 int         3
  10003DED: CC                 int         3
  10003DEE: CC                 int         3
  10003DEF: CC                 int         3
  10003DF0: 8B 44 24 04        mov         eax,dword ptr [esp+4]
  10003DF4: 8B 54 24 08        mov         edx,dword ptr [esp+8]
  10003DF8: 89 41 04           mov         dword ptr [ecx+4],eax
  10003DFB: 33 C0              xor         eax,eax
  10003DFD: 89 51 08           mov         dword ptr [ecx+8],edx
  10003E00: 89 41 10           mov         dword ptr [ecx+10h],eax
  10003E03: 89 41 14           mov         dword ptr [ecx+14h],eax
  10003E06: 89 41 18           mov         dword ptr [ecx+18h],eax
  10003E09: C6 41 1C 01        mov         byte ptr [ecx+1Ch],1
  10003E0D: C2 08 00           ret         8
  10003E10: B8 C4 FB 00 10     mov         eax,1000FBC4h
  10003E15: C3                 ret
  10003E16: CC                 int         3
  10003E17: CC                 int         3
  10003E18: CC                 int         3
  10003E19: CC                 int         3
  10003E1A: CC                 int         3
  10003E1B: CC                 int         3
  10003E1C: CC                 int         3
  10003E1D: CC                 int         3
  10003E1E: CC                 int         3
  10003E1F: CC                 int         3
  10003E20: 8B 41 08           mov         eax,dword ptr [ecx+8]
  10003E23: 8B 40 10           mov         eax,dword ptr [eax+10h]
  10003E26: 03 01              add         eax,dword ptr [ecx]
  10003E28: C3                 ret
  10003E29: CC                 int         3
  10003E2A: CC                 int         3
  10003E2B: CC                 int         3
  10003E2C: CC                 int         3
  10003E2D: CC                 int         3
  10003E2E: CC                 int         3
  10003E2F: CC                 int         3
  10003E30: 81 EC 00 02 00 00  sub         esp,200h
  10003E36: 33 C9              xor         ecx,ecx
  10003E38: 53                 push        ebx
  10003E39: 57                 push        edi
  10003E3A: 39 4E 08           cmp         dword ptr [esi+8],ecx
  10003E3D: 74 73              je          10003EB2
  10003E3F: 8B BC 24 10 02 00  mov         edi,dword ptr [esp+00000210h]
            00
  10003E46: 8B 94 24 28 02 00  mov         edx,dword ptr [esp+00000228h]
            00
  10003E4D: C1 FF 08           sar         edi,8
  10003E50: 8B C6              mov         eax,esi
  10003E52: 8B 58 0C           mov         ebx,dword ptr [eax+0Ch]
  10003E55: C1 FB 08           sar         ebx,8
  10003E58: 85 DF              test        edi,ebx
  10003E5A: 74 3C              je          10003E98
  10003E5C: 8A 9C 24 10 02 00  mov         bl,byte ptr [esp+00000210h]
            00
  10003E63: 38 58 0C           cmp         byte ptr [eax+0Ch],bl
  10003E66: 72 30              jb          10003E98
  10003E68: 8B 9C 24 1C 02 00  mov         ebx,dword ptr [esp+0000021Ch]
            00
  10003E6F: 23 58 10           and         ebx,dword ptr [eax+10h]
  10003E72: F7 C3 00 FF FF FF  test        ebx,0FFFFFF00h
  10003E78: 74 1E              je          10003E98
  10003E7A: 8A 9C 24 1C 02 00  mov         bl,byte ptr [esp+0000021Ch]
            00
  10003E81: 38 58 10           cmp         byte ptr [eax+10h],bl
  10003E84: 72 12              jb          10003E98
  10003E86: 8B 58 14           mov         ebx,dword ptr [eax+14h]
  10003E89: 23 DA              and         ebx,edx
  10003E8B: F7 C3 00 FF FF FF  test        ebx,0FFFFFF00h
  10003E91: 74 05              je          10003E98
  10003E93: 38 50 14           cmp         byte ptr [eax+14h],dl
  10003E96: 73 10              jae         10003EA8
  10003E98: 41                 inc         ecx
  10003E99: 8D 04 49           lea         eax,[ecx+ecx*2]
  10003E9C: 83 7C C6 08 00     cmp         dword ptr [esi+eax*8+8],0
  10003EA1: 8D 04 C6           lea         eax,[esi+eax*8]
  10003EA4: 75 AC              jne         10003E52
  10003EA6: EB 0A              jmp         10003EB2
  10003EA8: 8D 0C 49           lea         ecx,[ecx+ecx*2]
  10003EAB: 8D 14 CE           lea         edx,[esi+ecx*8]
  10003EAE: 85 D2              test        edx,edx
  10003EB0: 75 40              jne         10003EF2
  10003EB2: 68 C4 FB 00 10     push        1000FBC4h
  10003EB7: 8D 54 24 0C        lea         edx,[esp+0Ch]
  10003EBB: 68 38 FB 00 10     push        1000FB38h
  10003EC0: 52                 push        edx
  10003EC1: FF 15 A8 60 00 10  call        dword ptr ds:[100060A8h]
  10003EC7: 6A 67              push        67h
  10003EC9: 68 54 FB 00 10     push        1000FB54h
  10003ECE: 68 8C FB 00 10     push        1000FB8Ch
  10003ED3: 8D 44 24 20        lea         eax,[esp+20h]
  10003ED7: 50                 push        eax
  10003ED8: 68 9C FB 00 10     push        1000FB9Ch
  10003EDD: FF 15 90 60 00 10  call        dword ptr ds:[10006090h]
  10003EE3: 83 C4 20           add         esp,20h
  10003EE6: CC                 int         3
  10003EE7: 5F                 pop         edi
  10003EE8: 5B                 pop         ebx
  10003EE9: 81 C4 00 02 00 00  add         esp,200h
  10003EEF: C2 28 00           ret         28h
  10003EF2: 8B 8C 24 2C 02 00  mov         ecx,dword ptr [esp+0000022Ch]
            00
  10003EF9: 51                 push        ecx
  10003EFA: 8D 84 24 20 02 00  lea         eax,[esp+00000220h]
            00
  10003F01: 50                 push        eax
  10003F02: 8B 42 08           mov         eax,dword ptr [edx+8]
  10003F05: 8D 8C 24 18 02 00  lea         ecx,[esp+00000218h]
            00
  10003F0C: 51                 push        ecx
  10003F0D: 8B 8C 24 18 02 00  mov         ecx,dword ptr [esp+00000218h]
            00
  10003F14: FF D0              call        eax
  10003F16: 5F                 pop         edi
  10003F17: 5B                 pop         ebx
  10003F18: 81 C4 00 02 00 00  add         esp,200h
  10003F1E: C2 28 00           ret         28h
  10003F21: CC                 int         3
  10003F22: CC                 int         3
  10003F23: CC                 int         3
  10003F24: CC                 int         3
  10003F25: CC                 int         3
  10003F26: CC                 int         3
  10003F27: CC                 int         3
  10003F28: CC                 int         3
  10003F29: CC                 int         3
  10003F2A: CC                 int         3
  10003F2B: CC                 int         3
  10003F2C: CC                 int         3
  10003F2D: CC                 int         3
  10003F2E: CC                 int         3
  10003F2F: CC                 int         3
  10003F30: 88 48 04           mov         byte ptr [eax+4],cl
  10003F33: 85 C9              test        ecx,ecx
  10003F35: 74 11              je          10003F48
  10003F37: 33 D2              xor         edx,edx
  10003F39: 83 F9 01           cmp         ecx,1
  10003F3C: 0F 95 C2           setne       dl
  10003F3F: 81 C2 01 02 00 00  add         edx,201h
  10003F45: 89 10              mov         dword ptr [eax],edx
  10003F47: C3                 ret
  10003F48: C7 00 00 02 00 00  mov         dword ptr [eax],200h
  10003F4E: C3                 ret
  10003F4F: CC                 int         3
  10003F50: 8B 11              mov         edx,dword ptr [ecx]
  10003F52: 8B 49 04           mov         ecx,dword ptr [ecx+4]
  10003F55: 89 50 04           mov         dword ptr [eax+4],edx
  10003F58: 89 48 08           mov         dword ptr [eax+8],ecx
  10003F5B: C7 00 FF 12 00 00  mov         dword ptr [eax],12FFh
  10003F61: C3                 ret
  10003F62: CC                 int         3
  10003F63: CC                 int         3
  10003F64: CC                 int         3
  10003F65: CC                 int         3
  10003F66: CC                 int         3
  10003F67: CC                 int         3
  10003F68: CC                 int         3
  10003F69: CC                 int         3
  10003F6A: CC                 int         3
  10003F6B: CC                 int         3
  10003F6C: CC                 int         3
  10003F6D: CC                 int         3
  10003F6E: CC                 int         3
  10003F6F: CC                 int         3
  10003F70: 8B 4C 24 04        mov         ecx,dword ptr [esp+4]
  10003F74: C7 00 02 20 00 00  mov         dword ptr [eax],2002h
  10003F7A: 89 48 04           mov         dword ptr [eax+4],ecx
  10003F7D: C6 40 08 00        mov         byte ptr [eax+8],0
  10003F81: C2 04 00           ret         4
  10003F84: CC                 int         3
  10003F85: CC                 int         3
  10003F86: CC                 int         3
  10003F87: CC                 int         3
  10003F88: CC                 int         3
  10003F89: CC                 int         3
  10003F8A: CC                 int         3
  10003F8B: CC                 int         3
  10003F8C: CC                 int         3
  10003F8D: CC                 int         3
  10003F8E: CC                 int         3
  10003F8F: CC                 int         3
  10003F90: 33 D2              xor         edx,edx
  10003F92: 80 79 04 08        cmp         byte ptr [ecx+4],8
  10003F96: 89 48 04           mov         dword ptr [eax+4],ecx
  10003F99: 0F 95 C2           setne       dl
  10003F9C: C6 40 08 01        mov         byte ptr [eax+8],1
  10003FA0: 8D 94 12 00 20 00  lea         edx,[edx+edx+00002000h]
            00
  10003FA7: 89 10              mov         dword ptr [eax],edx
  10003FA9: C3                 ret
  10003FAA: CC                 int         3
  10003FAB: CC                 int         3
  10003FAC: CC                 int         3
  10003FAD: CC                 int         3
  10003FAE: CC                 int         3
  10003FAF: CC                 int         3
  10003FB0: 83 E0 80           and         eax,0FFFFFF80h
  10003FB3: 83 F8 80           cmp         eax,0FFFFFF80h
  10003FB6: 74 07              je          10003FBF
  10003FB8: 85 C0              test        eax,eax
  10003FBA: 74 03              je          10003FBF
  10003FBC: 32 C0              xor         al,al
  10003FBE: C3                 ret
  10003FBF: B0 01              mov         al,1
  10003FC1: C3                 ret
  10003FC2: CC                 int         3
  10003FC3: CC                 int         3
  10003FC4: CC                 int         3
  10003FC5: CC                 int         3
  10003FC6: CC                 int         3
  10003FC7: CC                 int         3
  10003FC8: CC                 int         3
  10003FC9: CC                 int         3
  10003FCA: CC                 int         3
  10003FCB: CC                 int         3
  10003FCC: CC                 int         3
  10003FCD: CC                 int         3
  10003FCE: CC                 int         3
  10003FCF: CC                 int         3
  10003FD0: A8 01              test        al,1
  10003FD2: 74 1C              je          10003FF0
  10003FD4: 8B D6              mov         edx,esi
  10003FD6: 83 E2 80           and         edx,0FFFFFF80h
  10003FD9: 83 FA 80           cmp         edx,0FFFFFF80h
  10003FDC: 74 04              je          10003FE2
  10003FDE: 85 D2              test        edx,edx
  10003FE0: 75 0E              jne         10003FF0
  10003FE2: 80 09 02           or          byte ptr [ecx],2
  10003FE5: C0 E0 04           shl         al,4
  10003FE8: F6 D0              not         al
  10003FEA: 89 71 04           mov         dword ptr [ecx+4],esi
  10003FED: 24 40              and         al,40h
  10003FEF: C3                 ret
  10003FF0: A8 02              test        al,2
  10003FF2: 74 0E              je          10004002
  10003FF4: 80 09 04           or          byte ptr [ecx],4
  10003FF7: C0 E0 05           shl         al,5
  10003FFA: F6 D0              not         al
  10003FFC: 89 71 04           mov         dword ptr [ecx+4],esi
  10003FFF: 24 80              and         al,80h
  10004001: C3                 ret
  10004002: 68 C1 01 00 00     push        1C1h
  10004007: 68 E4 FB 00 10     push        1000FBE4h
  1000400C: 68 00 FD 00 10     push        1000FD00h
  10004011: 68 0C FD 00 10     push        1000FD0Ch
  10004016: FF 15 90 60 00 10  call        dword ptr ds:[10006090h]
  1000401C: 83 C4 10           add         esp,10h
  1000401F: CC                 int         3
  10004020: 32 C0              xor         al,al
  10004022: C3                 ret
  10004023: CC                 int         3
  10004024: CC                 int         3
  10004025: CC                 int         3
  10004026: CC                 int         3
  10004027: CC                 int         3
  10004028: CC                 int         3
  10004029: CC                 int         3
  1000402A: CC                 int         3
  1000402B: CC                 int         3
  1000402C: CC                 int         3
  1000402D: CC                 int         3
  1000402E: CC                 int         3
  1000402F: CC                 int         3
  10004030: 83 EC 0C           sub         esp,0Ch
  10004033: 8B 44 24 1C        mov         eax,dword ptr [esp+1Ch]
  10004037: 53                 push        ebx
  10004038: 55                 push        ebp
  10004039: 56                 push        esi
  1000403A: 57                 push        edi
  1000403B: 88 44 24 14        mov         byte ptr [esp+14h],al
  1000403F: 85 C0              test        eax,eax
  10004041: 74 10              je          10004053
  10004043: 33 DB              xor         ebx,ebx
  10004045: 83 F8 01           cmp         eax,1
  10004048: 0F 95 C3           setne       bl
  1000404B: 81 C3 01 02 00 00  add         ebx,201h
  10004051: EB 05              jmp         10004058
  10004053: BB 00 02 00 00     mov         ebx,200h
  10004058: 8B 2D 78 2A 01 10  mov         ebp,dword ptr ds:[10012A78h]
  1000405E: 8B 54 24 24        mov         edx,dword ptr [esp+24h]
  10004062: 8B 74 24 28        mov         esi,dword ptr [esp+28h]
  10004066: 83 EC 0C           sub         esp,0Ch
  10004069: 8B C4              mov         eax,esp
  1000406B: 89 28              mov         dword ptr [eax],ebp
  1000406D: 8B 2D 7C 2A 01 10  mov         ebp,dword ptr ds:[10012A7Ch]
  10004073: 89 68 04           mov         dword ptr [eax+4],ebp
  10004076: 8B 2D 80 2A 01 10  mov         ebp,dword ptr ds:[10012A80h]
  1000407C: 89 68 08           mov         dword ptr [eax+8],ebp
  1000407F: 83 EC 0C           sub         esp,0Ch
  10004082: 8B C4              mov         eax,esp
  10004084: 89 18              mov         dword ptr [eax],ebx
  10004086: 8B 5C 24 2C        mov         ebx,dword ptr [esp+2Ch]
  1000408A: 89 58 04           mov         dword ptr [eax+4],ebx
  1000408D: 8B 5C 24 30        mov         ebx,dword ptr [esp+30h]
  10004091: 89 58 08           mov         dword ptr [eax+8],ebx
  10004094: 83 EC 0C           sub         esp,0Ch
  10004097: 8B C4              mov         eax,esp
  10004099: BF FF 12 00 00     mov         edi,12FFh
  1000409E: 89 38              mov         dword ptr [eax],edi
  100040A0: 89 50 04           mov         dword ptr [eax+4],edx
  100040A3: 89 70 08           mov         dword ptr [eax+8],esi
  100040A6: 8B 44 24 44        mov         eax,dword ptr [esp+44h]
  100040AA: 8B 34 85 28 20 01  mov         esi,dword ptr [eax*4+10012028h]
            10
  100040B1: 51                 push        ecx
  100040B2: E8 79 FD FF FF     call        10003E30
  100040B7: 5F                 pop         edi
  100040B8: 5E                 pop         esi
  100040B9: 5D                 pop         ebp
  100040BA: 5B                 pop         ebx
  100040BB: 83 C4 0C           add         esp,0Ch
  100040BE: C2 10 00           ret         10h
  100040C1: CC                 int         3
  100040C2: CC                 int         3
  100040C3: CC                 int         3
  100040C4: CC                 int         3
  100040C5: CC                 int         3
  100040C6: CC                 int         3
  100040C7: CC                 int         3
  100040C8: CC                 int         3
  100040C9: CC                 int         3
  100040CA: CC                 int         3
  100040CB: CC                 int         3
  100040CC: CC                 int         3
  100040CD: CC                 int         3
  100040CE: CC                 int         3
  100040CF: CC                 int         3
  100040D0: 83 EC 0C           sub         esp,0Ch
  100040D3: 8B 44 24 14        mov         eax,dword ptr [esp+14h]
  100040D7: 53                 push        ebx
  100040D8: 55                 push        ebp
  100040D9: 56                 push        esi
  100040DA: 8B 74 24 24        mov         esi,dword ptr [esp+24h]
  100040DE: 57                 push        edi
  100040DF: 8B 7C 24 2C        mov         edi,dword ptr [esp+2Ch]
  100040E3: BD FF 12 00 00     mov         ebp,12FFh
  100040E8: 88 44 24 14        mov         byte ptr [esp+14h],al
  100040EC: 85 C0              test        eax,eax
  100040EE: 74 10              je          10004100
  100040F0: 33 D2              xor         edx,edx
  100040F2: 83 F8 01           cmp         eax,1
  100040F5: 0F 95 C2           setne       dl
  100040F8: 81 C2 01 02 00 00  add         edx,201h
  100040FE: EB 05              jmp         10004105
  10004100: BA 00 02 00 00     mov         edx,200h
  10004105: 8B 1D 78 2A 01 10  mov         ebx,dword ptr ds:[10012A78h]
  1000410B: 83 EC 0C           sub         esp,0Ch
  1000410E: 8B C4              mov         eax,esp
  10004110: 89 18              mov         dword ptr [eax],ebx
  10004112: 8B 1D 7C 2A 01 10  mov         ebx,dword ptr ds:[10012A7Ch]
  10004118: 89 58 04           mov         dword ptr [eax+4],ebx
  1000411B: 8B 1D 80 2A 01 10  mov         ebx,dword ptr ds:[10012A80h]
  10004121: 89 58 08           mov         dword ptr [eax+8],ebx
  10004124: 83 EC 0C           sub         esp,0Ch
  10004127: 8B C4              mov         eax,esp
  10004129: 89 28              mov         dword ptr [eax],ebp
  1000412B: 89 70 04           mov         dword ptr [eax+4],esi
  1000412E: 89 78 08           mov         dword ptr [eax+8],edi
  10004131: 83 EC 0C           sub         esp,0Ch
  10004134: 8B C4              mov         eax,esp
  10004136: 89 10              mov         dword ptr [eax],edx
  10004138: 8B 54 24 38        mov         edx,dword ptr [esp+38h]
  1000413C: 89 50 04           mov         dword ptr [eax+4],edx
  1000413F: 8B 54 24 3C        mov         edx,dword ptr [esp+3Ch]
  10004143: 89 50 08           mov         dword ptr [eax+8],edx
  10004146: 8B 44 24 44        mov         eax,dword ptr [esp+44h]
  1000414A: 8B 34 85 28 20 01  mov         esi,dword ptr [eax*4+10012028h]
            10
  10004151: 51                 push        ecx
  10004152: E8 D9 FC FF FF     call        10003E30
  10004157: 5F                 pop         edi
  10004158: 5E                 pop         esi
  10004159: 5D                 pop         ebp
  1000415A: 5B                 pop         ebx
  1000415B: 83 C4 0C           add         esp,0Ch
  1000415E: C2 10 00           ret         10h
  10004161: CC                 int         3
  10004162: CC                 int         3
  10004163: CC                 int         3
  10004164: CC                 int         3
  10004165: CC                 int         3
  10004166: CC                 int         3
  10004167: CC                 int         3
  10004168: CC                 int         3
  10004169: CC                 int         3
  1000416A: CC                 int         3
  1000416B: CC                 int         3
  1000416C: CC                 int         3
  1000416D: CC                 int         3
  1000416E: CC                 int         3
  1000416F: CC                 int         3
  10004170: 83 EC 18           sub         esp,18h
  10004173: 8B 44 24 24        mov         eax,dword ptr [esp+24h]
  10004177: 56                 push        esi
  10004178: 57                 push        edi
  10004179: 88 44 24 0C        mov         byte ptr [esp+0Ch],al
  1000417D: 85 C0              test        eax,eax
  1000417F: 74 10              je          10004191
  10004181: 33 D2              xor         edx,edx
  10004183: 83 F8 01           cmp         eax,1
  10004186: 0F 95 C2           setne       dl
  10004189: 8D B2 01 02 00 00  lea         esi,[edx+00000201h]
  1000418F: EB 05              jmp         10004196
  10004191: BE 00 02 00 00     mov         esi,200h
  10004196: 8B 44 24 28        mov         eax,dword ptr [esp+28h]
  1000419A: 88 44 24 18        mov         byte ptr [esp+18h],al
  1000419E: 85 C0              test        eax,eax
  100041A0: 74 10              je          100041B2
  100041A2: 33 D2              xor         edx,edx
  100041A4: 83 F8 01           cmp         eax,1
  100041A7: 0F 95 C2           setne       dl
  100041AA: 81 C2 01 02 00 00  add         edx,201h
  100041B0: EB 05              jmp         100041B7
  100041B2: BA 00 02 00 00     mov         edx,200h
  100041B7: 8B 3D 78 2A 01 10  mov         edi,dword ptr ds:[10012A78h]
  100041BD: 83 EC 0C           sub         esp,0Ch
  100041C0: 8B C4              mov         eax,esp
  100041C2: 89 38              mov         dword ptr [eax],edi
  100041C4: 8B 3D 7C 2A 01 10  mov         edi,dword ptr ds:[10012A7Ch]
  100041CA: 89 78 04           mov         dword ptr [eax+4],edi
  100041CD: 8B 3D 80 2A 01 10  mov         edi,dword ptr ds:[10012A80h]
  100041D3: 89 78 08           mov         dword ptr [eax+8],edi
  100041D6: 83 EC 0C           sub         esp,0Ch
  100041D9: 8B C4              mov         eax,esp
  100041DB: 89 30              mov         dword ptr [eax],esi
  100041DD: 8B 74 24 24        mov         esi,dword ptr [esp+24h]
  100041E1: 89 70 04           mov         dword ptr [eax+4],esi
  100041E4: 8B 74 24 28        mov         esi,dword ptr [esp+28h]
  100041E8: 89 70 08           mov         dword ptr [eax+8],esi
  100041EB: 83 EC 0C           sub         esp,0Ch
  100041EE: 8B C4              mov         eax,esp
  100041F0: 89 10              mov         dword ptr [eax],edx
  100041F2: 8B 54 24 3C        mov         edx,dword ptr [esp+3Ch]
  100041F6: 89 50 04           mov         dword ptr [eax+4],edx
  100041F9: 8B 54 24 40        mov         edx,dword ptr [esp+40h]
  100041FD: 89 50 08           mov         dword ptr [eax+8],edx
  10004200: 8B 44 24 48        mov         eax,dword ptr [esp+48h]
  10004204: 8B 34 85 28 20 01  mov         esi,dword ptr [eax*4+10012028h]
            10
  1000420B: 51                 push        ecx
  1000420C: E8 1F FC FF FF     call        10003E30
  10004211: 5F                 pop         edi
  10004212: 5E                 pop         esi
  10004213: 83 C4 18           add         esp,18h
  10004216: C2 0C 00           ret         0Ch
  10004219: CC                 int         3
  1000421A: CC                 int         3
  1000421B: CC                 int         3
  1000421C: CC                 int         3
  1000421D: CC                 int         3
  1000421E: CC                 int         3
  1000421F: CC                 int         3
  10004220: 83 EC 0C           sub         esp,0Ch
  10004223: 8B 54 24 14        mov         edx,dword ptr [esp+14h]
  10004227: 33 C0              xor         eax,eax
  10004229: 80 7A 04 08        cmp         byte ptr [edx+4],8
  1000422D: 53                 push        ebx
  1000422E: 8B 1D 7C 2A 01 10  mov         ebx,dword ptr ds:[10012A7Ch]
  10004234: 0F 95 C0           setne       al
  10004237: 55                 push        ebp
  10004238: 8B 2D 80 2A 01 10  mov         ebp,dword ptr ds:[10012A80h]
  1000423E: 56                 push        esi
  1000423F: 57                 push        edi
  10004240: 8B 3D 78 2A 01 10  mov         edi,dword ptr ds:[10012A78h]
  10004246: 83 EC 0C           sub         esp,0Ch
  10004249: 8D B4 00 00 20 00  lea         esi,[eax+eax+00002000h]
            00
  10004250: 8B C4              mov         eax,esp
  10004252: 89 38              mov         dword ptr [eax],edi
  10004254: 89 58 04           mov         dword ptr [eax+4],ebx
  10004257: 89 68 08           mov         dword ptr [eax+8],ebp
  1000425A: 83 EC 0C           sub         esp,0Ch
  1000425D: 8B C4              mov         eax,esp
  1000425F: 89 38              mov         dword ptr [eax],edi
  10004261: 89 58 04           mov         dword ptr [eax+4],ebx
  10004264: 89 68 08           mov         dword ptr [eax+8],ebp
  10004267: 83 EC 0C           sub         esp,0Ch
  1000426A: 8B C4              mov         eax,esp
  1000426C: 89 30              mov         dword ptr [eax],esi
  1000426E: 89 50 04           mov         dword ptr [eax+4],edx
  10004271: C6 44 24 3C 01     mov         byte ptr [esp+3Ch],1
  10004276: 8B 54 24 3C        mov         edx,dword ptr [esp+3Ch]
  1000427A: 89 50 08           mov         dword ptr [eax+8],edx
  1000427D: 8B 44 24 44        mov         eax,dword ptr [esp+44h]
  10004281: 8B 34 85 28 20 01  mov         esi,dword ptr [eax*4+10012028h]
            10
  10004288: 51                 push        ecx
  10004289: E8 A2 FB FF FF     call        10003E30
  1000428E: 5F                 pop         edi
  1000428F: 5E                 pop         esi
  10004290: 5D                 pop         ebp
  10004291: 5B                 pop         ebx
  10004292: 83 C4 0C           add         esp,0Ch
  10004295: C2 08 00           ret         8
  10004298: CC                 int         3
  10004299: CC                 int         3
  1000429A: CC                 int         3
  1000429B: CC                 int         3
  1000429C: CC                 int         3
  1000429D: CC                 int         3
  1000429E: CC                 int         3
  1000429F: CC                 int         3
  100042A0: 83 EC 0C           sub         esp,0Ch
  100042A3: 53                 push        ebx
  100042A4: 8B 1D 7C 2A 01 10  mov         ebx,dword ptr ds:[10012A7Ch]
  100042AA: 55                 push        ebp
  100042AB: 8B 2D 80 2A 01 10  mov         ebp,dword ptr ds:[10012A80h]
  100042B1: 56                 push        esi
  100042B2: 8B 74 24 20        mov         esi,dword ptr [esp+20h]
  100042B6: 57                 push        edi
  100042B7: 8B 3D 78 2A 01 10  mov         edi,dword ptr ds:[10012A78h]
  100042BD: 83 EC 0C           sub         esp,0Ch
  100042C0: 8B C4              mov         eax,esp
  100042C2: 89 38              mov         dword ptr [eax],edi
  100042C4: 89 58 04           mov         dword ptr [eax+4],ebx
  100042C7: 89 68 08           mov         dword ptr [eax+8],ebp
  100042CA: 83 EC 0C           sub         esp,0Ch
  100042CD: 8B C4              mov         eax,esp
  100042CF: 89 38              mov         dword ptr [eax],edi
  100042D1: 89 58 04           mov         dword ptr [eax+4],ebx
  100042D4: 89 68 08           mov         dword ptr [eax+8],ebp
  100042D7: 83 EC 0C           sub         esp,0Ch
  100042DA: 8B C4              mov         eax,esp
  100042DC: BA 02 20 00 00     mov         edx,2002h
  100042E1: 89 10              mov         dword ptr [eax],edx
  100042E3: 89 70 04           mov         dword ptr [eax+4],esi
  100042E6: C6 44 24 3C 00     mov         byte ptr [esp+3Ch],0
  100042EB: 8B 54 24 3C        mov         edx,dword ptr [esp+3Ch]
  100042EF: 89 50 08           mov         dword ptr [eax+8],edx
  100042F2: 8B 44 24 44        mov         eax,dword ptr [esp+44h]
  100042F6: 8B 34 85 28 20 01  mov         esi,dword ptr [eax*4+10012028h]
            10
  100042FD: 51                 push        ecx
  100042FE: E8 2D FB FF FF     call        10003E30
  10004303: 5F                 pop         edi
  10004304: 5E                 pop         esi
  10004305: 5D                 pop         ebp
  10004306: 5B                 pop         ebx
  10004307: 83 C4 0C           add         esp,0Ch
  1000430A: C2 08 00           ret         8
  1000430D: CC                 int         3
  1000430E: CC                 int         3
  1000430F: CC                 int         3
  10004310: 53                 push        ebx
  10004311: 8B 1D 78 2A 01 10  mov         ebx,dword ptr ds:[10012A78h]
  10004317: 8B 54 24 0C        mov         edx,dword ptr [esp+0Ch]
  1000431B: 55                 push        ebp
  1000431C: 8B 2D 7C 2A 01 10  mov         ebp,dword ptr ds:[10012A7Ch]
  10004322: 56                 push        esi
  10004323: 8B 74 24 18        mov         esi,dword ptr [esp+18h]
  10004327: 57                 push        edi
  10004328: 83 EC 0C           sub         esp,0Ch
  1000432B: 8B C4              mov         eax,esp
  1000432D: 89 18              mov         dword ptr [eax],ebx
  1000432F: 89 68 04           mov         dword ptr [eax+4],ebp
  10004332: 8B 2D 80 2A 01 10  mov         ebp,dword ptr ds:[10012A80h]
  10004338: 89 68 08           mov         dword ptr [eax+8],ebp
  1000433B: 83 EC 0C           sub         esp,0Ch
  1000433E: 8B C4              mov         eax,esp
  10004340: 89 18              mov         dword ptr [eax],ebx
  10004342: 8B 1D 7C 2A 01 10  mov         ebx,dword ptr ds:[10012A7Ch]
  10004348: 89 58 04           mov         dword ptr [eax+4],ebx
  1000434B: 89 68 08           mov         dword ptr [eax+8],ebp
  1000434E: 83 EC 0C           sub         esp,0Ch
  10004351: 8B C4              mov         eax,esp
  10004353: BF FF 12 00 00     mov         edi,12FFh
  10004358: 89 38              mov         dword ptr [eax],edi
  1000435A: 89 50 04           mov         dword ptr [eax+4],edx
  1000435D: 89 70 08           mov         dword ptr [eax+8],esi
  10004360: 8B 44 24 38        mov         eax,dword ptr [esp+38h]
  10004364: 8B 34 85 28 20 01  mov         esi,dword ptr [eax*4+10012028h]
            10
  1000436B: 51                 push        ecx
  1000436C: E8 BF FA FF FF     call        10003E30
  10004371: 5F                 pop         edi
  10004372: 5E                 pop         esi
  10004373: 5D                 pop         ebp
  10004374: 5B                 pop         ebx
  10004375: C2 0C 00           ret         0Ch
  10004378: CC                 int         3
  10004379: CC                 int         3
  1000437A: CC                 int         3
  1000437B: CC                 int         3
  1000437C: CC                 int         3
  1000437D: CC                 int         3
  1000437E: CC                 int         3
  1000437F: CC                 int         3
  10004380: 83 EC 0C           sub         esp,0Ch
  10004383: 8B 44 24 14        mov         eax,dword ptr [esp+14h]
  10004387: 53                 push        ebx
  10004388: 56                 push        esi
  10004389: 57                 push        edi
  1000438A: 88 44 24 10        mov         byte ptr [esp+10h],al
  1000438E: 85 C0              test        eax,eax
  10004390: 74 10              je          100043A2
  10004392: 33 DB              xor         ebx,ebx
  10004394: 83 F8 01           cmp         eax,1
  10004397: 0F 95 C3           setne       bl
  1000439A: 81 C3 01 02 00 00  add         ebx,201h
  100043A0: EB 05              jmp         100043A7
  100043A2: BB 00 02 00 00     mov         ebx,200h
  100043A7: 8B 15 78 2A 01 10  mov         edx,dword ptr ds:[10012A78h]
  100043AD: 8B 35 7C 2A 01 10  mov         esi,dword ptr ds:[10012A7Ch]
  100043B3: 8B 3D 80 2A 01 10  mov         edi,dword ptr ds:[10012A80h]
  100043B9: 83 EC 0C           sub         esp,0Ch
  100043BC: 8B C4              mov         eax,esp
  100043BE: 89 10              mov         dword ptr [eax],edx
  100043C0: 89 70 04           mov         dword ptr [eax+4],esi
  100043C3: 89 78 08           mov         dword ptr [eax+8],edi
  100043C6: 83 EC 0C           sub         esp,0Ch
  100043C9: 8B C4              mov         eax,esp
  100043CB: 89 10              mov         dword ptr [eax],edx
  100043CD: 8B 54 24 28        mov         edx,dword ptr [esp+28h]
  100043D1: 89 70 04           mov         dword ptr [eax+4],esi
  100043D4: 89 78 08           mov         dword ptr [eax+8],edi
  100043D7: 83 EC 0C           sub         esp,0Ch
  100043DA: 8B C4              mov         eax,esp
  100043DC: 89 18              mov         dword ptr [eax],ebx
  100043DE: 89 50 04           mov         dword ptr [eax+4],edx
  100043E1: 8B 54 24 38        mov         edx,dword ptr [esp+38h]
  100043E5: 89 50 08           mov         dword ptr [eax+8],edx
  100043E8: 8B 44 24 40        mov         eax,dword ptr [esp+40h]
  100043EC: 8B 34 85 28 20 01  mov         esi,dword ptr [eax*4+10012028h]
            10
  100043F3: 51                 push        ecx
  100043F4: E8 37 FA FF FF     call        10003E30
  100043F9: 5F                 pop         edi
  100043FA: 5E                 pop         esi
  100043FB: 5B                 pop         ebx
  100043FC: 83 C4 0C           add         esp,0Ch
  100043FF: C2 08 00           ret         8
  10004402: CC                 int         3
  10004403: CC                 int         3
  10004404: CC                 int         3
  10004405: CC                 int         3
  10004406: CC                 int         3
  10004407: CC                 int         3
  10004408: CC                 int         3
  10004409: CC                 int         3
  1000440A: CC                 int         3
  1000440B: CC                 int         3
  1000440C: CC                 int         3
  1000440D: CC                 int         3
  1000440E: CC                 int         3
  1000440F: CC                 int         3
  10004410: 8B 15 78 2A 01 10  mov         edx,dword ptr ds:[10012A78h]
  10004416: 56                 push        esi
  10004417: 8B 35 7C 2A 01 10  mov         esi,dword ptr ds:[10012A7Ch]
  1000441D: 57                 push        edi
  1000441E: 8B 3D 80 2A 01 10  mov         edi,dword ptr ds:[10012A80h]
  10004424: 83 EC 0C           sub         esp,0Ch
  10004427: 8B C4              mov         eax,esp
  10004429: 89 10              mov         dword ptr [eax],edx
  1000442B: 89 70 04           mov         dword ptr [eax+4],esi
  1000442E: 89 78 08           mov         dword ptr [eax+8],edi
  10004431: 83 EC 0C           sub         esp,0Ch
  10004434: 8B C4              mov         eax,esp
  10004436: 89 10              mov         dword ptr [eax],edx
  10004438: 89 70 04           mov         dword ptr [eax+4],esi
  1000443B: 89 78 08           mov         dword ptr [eax+8],edi
  1000443E: 83 EC 0C           sub         esp,0Ch
  10004441: 8B C4              mov         eax,esp
  10004443: 89 10              mov         dword ptr [eax],edx
  10004445: 89 70 04           mov         dword ptr [eax+4],esi
  10004448: 89 78 08           mov         dword ptr [eax+8],edi
  1000444B: 8B 44 24 30        mov         eax,dword ptr [esp+30h]
  1000444F: 8B 34 85 28 20 01  mov         esi,dword ptr [eax*4+10012028h]
            10
  10004456: 51                 push        ecx
  10004457: E8 D4 F9 FF FF     call        10003E30
  1000445C: 5F                 pop         edi
  1000445D: 5E                 pop         esi
  1000445E: C2 04 00           ret         4
  10004461: CC                 int         3
  10004462: CC                 int         3
  10004463: CC                 int         3
  10004464: CC                 int         3
  10004465: CC                 int         3
  10004466: CC                 int         3
  10004467: CC                 int         3
  10004468: CC                 int         3
  10004469: CC                 int         3
  1000446A: CC                 int         3
  1000446B: CC                 int         3
  1000446C: CC                 int         3
  1000446D: CC                 int         3
  1000446E: CC                 int         3
  1000446F: CC                 int         3
  10004470: 56                 push        esi
  10004471: 8B F1              mov         esi,ecx
  10004473: 8B 46 14           mov         eax,dword ptr [esi+14h]
  10004476: 83 C0 0F           add         eax,0Fh
  10004479: 39 46 18           cmp         dword ptr [esi+18h],eax
  1000447C: 73 42              jae         100044C0
  1000447E: 80 7E 1C 00        cmp         byte ptr [esi+1Ch],0
  10004482: 75 1E              jne         100044A2
  10004484: 68 00 01 00 00     push        100h
  10004489: 68 E4 FB 00 10     push        1000FBE4h
  1000448E: 68 58 FC 00 10     push        1000FC58h
  10004493: 68 78 FC 00 10     push        1000FC78h
  10004498: FF 15 90 60 00 10  call        dword ptr ds:[10006090h]
  1000449E: 83 C4 10           add         esp,10h
  100044A1: CC                 int         3
  100044A2: 8B 46 18           mov         eax,dword ptr [esi+18h]
  100044A5: 8B 56 04           mov         edx,dword ptr [esi+4]
  100044A8: 8D 8C 00 00 01 00  lea         ecx,[eax+eax+00000100h]
            00
  100044AF: 51                 push        ecx
  100044B0: 89 4E 18           mov         dword ptr [esi+18h],ecx
  100044B3: 8B 4E 10           mov         ecx,dword ptr [esi+10h]
  100044B6: 50                 push        eax
  100044B7: 51                 push        ecx
  100044B8: FF D2              call        edx
  100044BA: 83 C4 0C           add         esp,0Ch
  100044BD: 89 46 10           mov         dword ptr [esi+10h],eax
  100044C0: 8B 4E 14           mov         ecx,dword ptr [esi+14h]
  100044C3: 8B 46 10           mov         eax,dword ptr [esi+10h]
  100044C6: 8B 54 24 08        mov         edx,dword ptr [esp+8]
  100044CA: 89 14 08           mov         dword ptr [eax+ecx],edx
  100044CD: 83 46 14 04        add         dword ptr [esi+14h],4
  100044D1: 5E                 pop         esi
  100044D2: C2 04 00           ret         4
  100044D5: CC                 int         3
  100044D6: CC                 int         3
  100044D7: CC                 int         3
  100044D8: CC                 int         3
  100044D9: CC                 int         3
  100044DA: CC                 int         3
  100044DB: CC                 int         3
  100044DC: CC                 int         3
  100044DD: CC                 int         3
  100044DE: CC                 int         3
  100044DF: CC                 int         3
  100044E0: 56                 push        esi
  100044E1: 8B F1              mov         esi,ecx
  100044E3: 8B 46 14           mov         eax,dword ptr [esi+14h]
  100044E6: 83 C0 0F           add         eax,0Fh
  100044E9: 39 46 18           cmp         dword ptr [esi+18h],eax
  100044EC: 73 42              jae         10004530
  100044EE: 80 7E 1C 00        cmp         byte ptr [esi+1Ch],0
  100044F2: 75 1E              jne         10004512
  100044F4: 68 00 01 00 00     push        100h
  100044F9: 68 E4 FB 00 10     push        1000FBE4h
  100044FE: 68 58 FC 00 10     push        1000FC58h
  10004503: 68 78 FC 00 10     push        1000FC78h
  10004508: FF 15 90 60 00 10  call        dword ptr ds:[10006090h]
  1000450E: 83 C4 10           add         esp,10h
  10004511: CC                 int         3
  10004512: 8B 46 18           mov         eax,dword ptr [esi+18h]
  10004515: 8B 56 04           mov         edx,dword ptr [esi+4]
  10004518: 8D 8C 00 00 01 00  lea         ecx,[eax+eax+00000100h]
            00
  1000451F: 51                 push        ecx
  10004520: 89 4E 18           mov         dword ptr [esi+18h],ecx
  10004523: 8B 4E 10           mov         ecx,dword ptr [esi+10h]
  10004526: 50                 push        eax
  10004527: 51                 push        ecx
  10004528: FF D2              call        edx
  1000452A: 83 C4 0C           add         esp,0Ch
  1000452D: 89 46 10           mov         dword ptr [esi+10h],eax
  10004530: 8B 4E 14           mov         ecx,dword ptr [esi+14h]
  10004533: 8B 46 10           mov         eax,dword ptr [esi+10h]
  10004536: 66 8B 54 24 08     mov         dx,word ptr [esp+8]
  1000453B: 66 89 14 08        mov         word ptr [eax+ecx],dx
  1000453F: 83 46 14 02        add         dword ptr [esi+14h],2
  10004543: 5E                 pop         esi
  10004544: C2 04 00           ret         4
  10004547: CC                 int         3
  10004548: CC                 int         3
  10004549: CC                 int         3
  1000454A: CC                 int         3
  1000454B: CC                 int         3
  1000454C: CC                 int         3
  1000454D: CC                 int         3
  1000454E: CC                 int         3
  1000454F: CC                 int         3
  10004550: 56                 push        esi
  10004551: 8B F1              mov         esi,ecx
  10004553: 8B 46 14           mov         eax,dword ptr [esi+14h]
  10004556: 83 C0 0F           add         eax,0Fh
  10004559: 39 46 18           cmp         dword ptr [esi+18h],eax
  1000455C: 73 42              jae         100045A0
  1000455E: 80 7E 1C 00        cmp         byte ptr [esi+1Ch],0
  10004562: 75 1E              jne         10004582
  10004564: 68 00 01 00 00     push        100h
  10004569: 68 E4 FB 00 10     push        1000FBE4h
  1000456E: 68 58 FC 00 10     push        1000FC58h
  10004573: 68 78 FC 00 10     push        1000FC78h
  10004578: FF 15 90 60 00 10  call        dword ptr ds:[10006090h]
  1000457E: 83 C4 10           add         esp,10h
  10004581: CC                 int         3
  10004582: 8B 46 18           mov         eax,dword ptr [esi+18h]
  10004585: 8B 56 04           mov         edx,dword ptr [esi+4]
  10004588: 8D 8C 00 00 01 00  lea         ecx,[eax+eax+00000100h]
            00
  1000458F: 51                 push        ecx
  10004590: 89 4E 18           mov         dword ptr [esi+18h],ecx
  10004593: 8B 4E 10           mov         ecx,dword ptr [esi+10h]
  10004596: 50                 push        eax
  10004597: 51                 push        ecx
  10004598: FF D2              call        edx
  1000459A: 83 C4 0C           add         esp,0Ch
  1000459D: 89 46 10           mov         dword ptr [esi+10h],eax
  100045A0: 8B 4E 14           mov         ecx,dword ptr [esi+14h]
  100045A3: 8B 46 10           mov         eax,dword ptr [esi+10h]
  100045A6: 8A 54 24 08        mov         dl,byte ptr [esp+8]
  100045AA: 88 14 08           mov         byte ptr [eax+ecx],dl
  100045AD: FF 46 14           inc         dword ptr [esi+14h]
  100045B0: 5E                 pop         esi
  100045B1: C2 04 00           ret         4
  100045B4: CC                 int         3
  100045B5: CC                 int         3
  100045B6: CC                 int         3
  100045B7: CC                 int         3
  100045B8: CC                 int         3
  100045B9: CC                 int         3
  100045BA: CC                 int         3
  100045BB: CC                 int         3
  100045BC: CC                 int         3
  100045BD: CC                 int         3
  100045BE: CC                 int         3
  100045BF: CC                 int         3
  100045C0: 53                 push        ebx
  100045C1: 56                 push        esi
  100045C2: 57                 push        edi
  100045C3: 8B F9              mov         edi,ecx
  100045C5: 8B 07              mov         eax,dword ptr [edi]
  100045C7: 8B 48 04           mov         ecx,dword ptr [eax+4]
  100045CA: 2B 08              sub         ecx,dword ptr [eax]
  100045CC: 33 F6              xor         esi,esi
  100045CE: C1 F9 02           sar         ecx,2
  100045D1: 85 C9              test        ecx,ecx
  100045D3: 74 25              je          100045FA
  100045D5: 8B 1D 8C 60 00 10  mov         ebx,dword ptr ds:[1000608Ch]
  100045DB: EB 03              jmp         100045E0
  100045DD: 8D 49 00           lea         ecx,[ecx]
  100045E0: 8B 10              mov         edx,dword ptr [eax]
  100045E2: 8B 04 B2           mov         eax,dword ptr [edx+esi*4]
  100045E5: 50                 push        eax
  100045E6: FF D3              call        ebx
  100045E8: 8B 07              mov         eax,dword ptr [edi]
  100045EA: 8B 48 04           mov         ecx,dword ptr [eax+4]
  100045ED: 2B 08              sub         ecx,dword ptr [eax]
  100045EF: 46                 inc         esi
  100045F0: C1 F9 02           sar         ecx,2
  100045F3: 83 C4 04           add         esp,4
  100045F6: 3B F1              cmp         esi,ecx
  100045F8: 72 E6              jb          100045E0
  100045FA: 8B 3F              mov         edi,dword ptr [edi]
  100045FC: 8B 4F 04           mov         ecx,dword ptr [edi+4]
  100045FF: 8B 37              mov         esi,dword ptr [edi]
  10004601: 3B F1              cmp         esi,ecx
  10004603: 74 1F              je          10004624
  10004605: 8B C1              mov         eax,ecx
  10004607: 2B C1              sub         eax,ecx
  10004609: C1 F8 02           sar         eax,2
  1000460C: 8D 1C 85 00 00 00  lea         ebx,[eax*4+00000000h]
            00
  10004613: 53                 push        ebx
  10004614: 51                 push        ecx
  10004615: 56                 push        esi
  10004616: FF 15 94 60 00 10  call        dword ptr ds:[10006094h]
  1000461C: 83 C4 0C           add         esp,0Ch
  1000461F: 03 DE              add         ebx,esi
  10004621: 89 5F 04           mov         dword ptr [edi+4],ebx
  10004624: 5F                 pop         edi
  10004625: 5E                 pop         esi
  10004626: 5B                 pop         ebx
  10004627: C3                 ret
  10004628: CC                 int         3
  10004629: CC                 int         3
  1000462A: CC                 int         3
  1000462B: CC                 int         3
  1000462C: CC                 int         3
  1000462D: CC                 int         3
  1000462E: CC                 int         3
  1000462F: CC                 int         3
  10004630: 53                 push        ebx
  10004631: 55                 push        ebp
  10004632: 56                 push        esi
  10004633: 57                 push        edi
  10004634: 8B F9              mov         edi,ecx
  10004636: E8 85 FF FF FF     call        100045C0
  1000463B: 8B 77 0C           mov         esi,dword ptr [edi+0Ch]
  1000463E: 8B 1D 8C 60 00 10  mov         ebx,dword ptr ds:[1000608Ch]
  10004644: 33 ED              xor         ebp,ebp
  10004646: 3B F5              cmp         esi,ebp
  10004648: 74 1A              je          10004664
  1000464A: 8B 06              mov         eax,dword ptr [esi]
  1000464C: 3B C5              cmp         eax,ebp
  1000464E: 74 06              je          10004656
  10004650: 50                 push        eax
  10004651: FF D3              call        ebx
  10004653: 83 C4 04           add         esp,4
  10004656: 56                 push        esi
  10004657: 89 2E              mov         dword ptr [esi],ebp
  10004659: 89 6E 04           mov         dword ptr [esi+4],ebp
  1000465C: 89 6E 08           mov         dword ptr [esi+8],ebp
  1000465F: FF D3              call        ebx
  10004661: 83 C4 04           add         esp,4
  10004664: 8B 37              mov         esi,dword ptr [edi]
  10004666: 3B F5              cmp         esi,ebp
  10004668: 74 1A              je          10004684
  1000466A: 8B 06              mov         eax,dword ptr [esi]
  1000466C: 3B C5              cmp         eax,ebp
  1000466E: 74 06              je          10004676
  10004670: 50                 push        eax
  10004671: FF D3              call        ebx
  10004673: 83 C4 04           add         esp,4
  10004676: 56                 push        esi
  10004677: 89 2E              mov         dword ptr [esi],ebp
  10004679: 89 6E 04           mov         dword ptr [esi+4],ebp
  1000467C: 89 6E 08           mov         dword ptr [esi+8],ebp
  1000467F: FF D3              call        ebx
  10004681: 83 C4 04           add         esp,4
  10004684: 5F                 pop         edi
  10004685: 5E                 pop         esi
  10004686: 5D                 pop         ebp
  10004687: 5B                 pop         ebx
  10004688: C3                 ret
  10004689: CC                 int         3
  1000468A: CC                 int         3
  1000468B: CC                 int         3
  1000468C: CC                 int         3
  1000468D: CC                 int         3
  1000468E: CC                 int         3
  1000468F: CC                 int         3
  10004690: 53                 push        ebx
  10004691: 56                 push        esi
  10004692: 8B 35 88 60 00 10  mov         esi,dword ptr ds:[10006088h]
  10004698: 57                 push        edi
  10004699: 6A 10              push        10h
  1000469B: 8B F9              mov         edi,ecx
  1000469D: FF D6              call        esi
  1000469F: 33 DB              xor         ebx,ebx
  100046A1: 83 C4 04           add         esp,4
  100046A4: 3B C3              cmp         eax,ebx
  100046A6: 74 0A              je          100046B2
  100046A8: 89 18              mov         dword ptr [eax],ebx
  100046AA: 89 58 04           mov         dword ptr [eax+4],ebx
  100046AD: 89 58 08           mov         dword ptr [eax+8],ebx
  100046B0: EB 02              jmp         100046B4
  100046B2: 33 C0              xor         eax,eax
  100046B4: 6A 10              push        10h
  100046B6: 89 47 0C           mov         dword ptr [edi+0Ch],eax
  100046B9: FF D6              call        esi
  100046BB: 83 C4 04           add         esp,4
  100046BE: 3B C3              cmp         eax,ebx
  100046C0: 74 19              je          100046DB
  100046C2: 89 18              mov         dword ptr [eax],ebx
  100046C4: 89 58 04           mov         dword ptr [eax+4],ebx
  100046C7: 89 58 08           mov         dword ptr [eax+8],ebx
  100046CA: 6A 40              push        40h
  100046CC: 8B F0              mov         esi,eax
  100046CE: 89 07              mov         dword ptr [edi],eax
  100046D0: E8 7B CA FF FF     call        10001150
  100046D5: 8B C7              mov         eax,edi
  100046D7: 5F                 pop         edi
  100046D8: 5E                 pop         esi
  100046D9: 5B                 pop         ebx
  100046DA: C3                 ret
  100046DB: 33 C0              xor         eax,eax
  100046DD: 6A 40              push        40h
  100046DF: 8B F0              mov         esi,eax
  100046E1: 89 07              mov         dword ptr [edi],eax
  100046E3: E8 68 CA FF FF     call        10001150
  100046E8: 8B C7              mov         eax,edi
  100046EA: 5F                 pop         edi
  100046EB: 5E                 pop         esi
  100046EC: 5B                 pop         ebx
  100046ED: C3                 ret
  100046EE: CC                 int         3
  100046EF: CC                 int         3
  100046F0: 83 EC 08           sub         esp,8
  100046F3: 53                 push        ebx
  100046F4: 55                 push        ebp
  100046F5: 8B D9              mov         ebx,ecx
  100046F7: 56                 push        esi
  100046F8: 8B 73 0C           mov         esi,dword ptr [ebx+0Ch]
  100046FB: 8B 4E 04           mov         ecx,dword ptr [esi+4]
  100046FE: 2B 0E              sub         ecx,dword ptr [esi]
  10004700: B8 AB AA AA 2A     mov         eax,2AAAAAABh
  10004705: F7 E9              imul        ecx
  10004707: D1 FA              sar         edx,1
  10004709: 8B C2              mov         eax,edx
  1000470B: 33 ED              xor         ebp,ebp
  1000470D: C1 E8 1F           shr         eax,1Fh
  10004710: 03 C2              add         eax,edx
  10004712: 89 6C 24 0C        mov         dword ptr [esp+0Ch],ebp
  10004716: 0F 84 CC 00 00 00  je          100047E8
  1000471C: 57                 push        edi
  1000471D: 8D 49 00           lea         ecx,[ecx]
  10004720: 8B 4B 0C           mov         ecx,dword ptr [ebx+0Ch]
  10004723: 8B 09              mov         ecx,dword ptr [ecx]
  10004725: 8A 14 29           mov         dl,byte ptr [ecx+ebp]
  10004728: 8B 7C 29 08        mov         edi,dword ptr [ecx+ebp+8]
  1000472C: 8B 44 29 04        mov         eax,dword ptr [ecx+ebp+4]
  10004730: 03 7C 24 1C        add         edi,dword ptr [esp+1Ch]
  10004734: 0F B6 CA           movzx       ecx,dl
  10004737: 83 E1 0F           and         ecx,0Fh
  1000473A: 03 CF              add         ecx,edi
  1000473C: F6 C2 10           test        dl,10h
  1000473F: 74 24              je          10004765
  10004741: 8B 06              mov         eax,dword ptr [esi]
  10004743: 8B 44 28 04        mov         eax,dword ptr [eax+ebp+4]
  10004747: 39 58 08           cmp         dword ptr [eax+8],ebx
  1000474A: 75 08              jne         10004754
  1000474C: 8B 00              mov         eax,dword ptr [eax]
  1000474E: 03 44 24 1C        add         eax,dword ptr [esp+1Ch]
  10004752: EB 11              jmp         10004765
  10004754: 8B 53 0C           mov         edx,dword ptr [ebx+0Ch]
  10004757: 8B 02              mov         eax,dword ptr [edx]
  10004759: 8B 54 28 04        mov         edx,dword ptr [eax+ebp+4]
  1000475D: 8B 42 08           mov         eax,dword ptr [edx+8]
  10004760: 8B 40 10           mov         eax,dword ptr [eax+10h]
  10004763: 03 02              add         eax,dword ptr [edx]
  10004765: 8B 16              mov         edx,dword ptr [esi]
  10004767: 2B C1              sub         eax,ecx
  10004769: 8B C8              mov         ecx,eax
  1000476B: 8A 04 2A           mov         al,byte ptr [edx+ebp]
  1000476E: 24 0F              and         al,0Fh
  10004770: 89 4C 24 14        mov         dword ptr [esp+14h],ecx
  10004774: 3C 01              cmp         al,1
  10004776: 75 34              jne         100047AC
  10004778: 8B C1              mov         eax,ecx
  1000477A: 83 E0 80           and         eax,0FFFFFF80h
  1000477D: 83 F8 80           cmp         eax,0FFFFFF80h
  10004780: 74 26              je          100047A8
  10004782: 85 C0              test        eax,eax
  10004784: 74 22              je          100047A8
  10004786: 68 DB 00 00 00     push        0DBh
  1000478B: 68 E4 FB 00 10     push        1000FBE4h
  10004790: 68 40 FC 00 10     push        1000FC40h
  10004795: 68 10 FC 00 10     push        1000FC10h
  1000479A: FF 15 90 60 00 10  call        dword ptr ds:[10006090h]
  100047A0: 83 C4 10           add         esp,10h
  100047A3: CC                 int         3
  100047A4: 8B 4C 24 14        mov         ecx,dword ptr [esp+14h]
  100047A8: 88 0F              mov         byte ptr [edi],cl
  100047AA: EB 0F              jmp         100047BB
  100047AC: 3C 02              cmp         al,2
  100047AE: 75 05              jne         100047B5
  100047B0: 66 89 0F           mov         word ptr [edi],cx
  100047B3: EB 06              jmp         100047BB
  100047B5: 3C 04              cmp         al,4
  100047B7: 75 02              jne         100047BB
  100047B9: 89 0F              mov         dword ptr [edi],ecx
  100047BB: 8B 73 0C           mov         esi,dword ptr [ebx+0Ch]
  100047BE: 8B 4E 04           mov         ecx,dword ptr [esi+4]
  100047C1: 2B 0E              sub         ecx,dword ptr [esi]
  100047C3: 8B 7C 24 10        mov         edi,dword ptr [esp+10h]
  100047C7: B8 AB AA AA 2A     mov         eax,2AAAAAABh
  100047CC: F7 E9              imul        ecx
  100047CE: D1 FA              sar         edx,1
  100047D0: 8B C2              mov         eax,edx
  100047D2: C1 E8 1F           shr         eax,1Fh
  100047D5: 47                 inc         edi
  100047D6: 03 C2              add         eax,edx
  100047D8: 83 C5 0C           add         ebp,0Ch
  100047DB: 89 7C 24 10        mov         dword ptr [esp+10h],edi
  100047DF: 3B F8              cmp         edi,eax
  100047E1: 0F 82 39 FF FF FF  jb          10004720
  100047E7: 5F                 pop         edi
  100047E8: 5E                 pop         esi
  100047E9: 5D                 pop         ebp
  100047EA: 5B                 pop         ebx
  100047EB: 83 C4 08           add         esp,8
  100047EE: C2 04 00           ret         4
  100047F1: CC                 int         3
  100047F2: CC                 int         3
  100047F3: CC                 int         3
  100047F4: CC                 int         3
  100047F5: CC                 int         3
  100047F6: CC                 int         3
  100047F7: CC                 int         3
  100047F8: CC                 int         3
  100047F9: CC                 int         3
  100047FA: CC                 int         3
  100047FB: CC                 int         3
  100047FC: CC                 int         3
  100047FD: CC                 int         3
  100047FE: CC                 int         3
  100047FF: CC                 int         3
  10004800: 56                 push        esi
  10004801: 8B F1              mov         esi,ecx
  10004803: 85 F6              test        esi,esi
  10004805: 74 2E              je          10004835
  10004807: 8B 06              mov         eax,dword ptr [esi]
  10004809: 57                 push        edi
  1000480A: 8B 3D 8C 60 00 10  mov         edi,dword ptr ds:[1000608Ch]
  10004810: 85 C0              test        eax,eax
  10004812: 74 06              je          1000481A
  10004814: 50                 push        eax
  10004815: FF D7              call        edi
  10004817: 83 C4 04           add         esp,4
  1000481A: 56                 push        esi
  1000481B: C7 06 00 00 00 00  mov         dword ptr [esi],0
  10004821: C7 46 04 00 00 00  mov         dword ptr [esi+4],0
            00
  10004828: C7 46 08 00 00 00  mov         dword ptr [esi+8],0
            00
  1000482F: FF D7              call        edi
  10004831: 83 C4 04           add         esp,4
  10004834: 5F                 pop         edi
  10004835: 5E                 pop         esi
  10004836: C3                 ret
  10004837: CC                 int         3
  10004838: CC                 int         3
  10004839: CC                 int         3
  1000483A: CC                 int         3
  1000483B: CC                 int         3
  1000483C: CC                 int         3
  1000483D: CC                 int         3
  1000483E: CC                 int         3
  1000483F: CC                 int         3
  10004840: 8B 41 04           mov         eax,dword ptr [ecx+4]
  10004843: 53                 push        ebx
  10004844: 56                 push        esi
  10004845: 8B 31              mov         esi,dword ptr [ecx]
  10004847: 2B C6              sub         eax,esi
  10004849: C1 F8 03           sar         eax,3
  1000484C: 33 D2              xor         edx,edx
  1000484E: 57                 push        edi
  1000484F: 85 C0              test        eax,eax
  10004851: 74 21              je          10004874
  10004853: 8B 7C 24 10        mov         edi,dword ptr [esp+10h]
  10004857: 8D 4E 04           lea         ecx,[esi+4]
  1000485A: 8D 9B 00 00 00 00  lea         ebx,[ebx+00000000h]
  10004860: 8B 19              mov         ebx,dword ptr [ecx]
  10004862: 81 E3 FF FF FF 0F  and         ebx,0FFFFFFFh
  10004868: 3B DF              cmp         ebx,edi
  1000486A: 74 10              je          1000487C
  1000486C: 42                 inc         edx
  1000486D: 83 C1 08           add         ecx,8
  10004870: 3B D0              cmp         edx,eax
  10004872: 72 EC              jb          10004860
  10004874: 5F                 pop         edi
  10004875: 5E                 pop         esi
  10004876: 32 C0              xor         al,al
  10004878: 5B                 pop         ebx
  10004879: C2 08 00           ret         8
  1000487C: 8B 44 24 14        mov         eax,dword ptr [esp+14h]
  10004880: 5F                 pop         edi
  10004881: 89 04 D6           mov         dword ptr [esi+edx*8],eax
  10004884: 5E                 pop         esi
  10004885: B0 01              mov         al,1
  10004887: 5B                 pop         ebx
  10004888: C2 08 00           ret         8
  1000488B: CC                 int         3
  1000488C: CC                 int         3
  1000488D: CC                 int         3
  1000488E: CC                 int         3
  1000488F: CC                 int         3
  10004890: 56                 push        esi
  10004891: 8B F1              mov         esi,ecx
  10004893: 80 7E 1C 00        cmp         byte ptr [esi+1Ch],0
  10004897: 74 1D              je          100048B6
  10004899: 8B 46 14           mov         eax,dword ptr [esi+14h]
  1000489C: 8B 4E 18           mov         ecx,dword ptr [esi+18h]
  1000489F: 8B 56 10           mov         edx,dword ptr [esi+10h]
  100048A2: 50                 push        eax
  100048A3: 8B 46 08           mov         eax,dword ptr [esi+8]
  100048A6: 51                 push        ecx
  100048A7: 52                 push        edx
  100048A8: FF D0              call        eax
  100048AA: 83 C4 0C           add         esp,0Ch
  100048AD: 85 C0              test        eax,eax
  100048AF: 75 02              jne         100048B3
  100048B1: 5E                 pop         esi
  100048B2: C3                 ret
  100048B3: 89 46 10           mov         dword ptr [esi+10h],eax
  100048B6: 8B 4E 10           mov         ecx,dword ptr [esi+10h]
  100048B9: 51                 push        ecx
  100048BA: 8B CE              mov         ecx,esi
  100048BC: E8 2F FE FF FF     call        100046F0
  100048C1: 8B 46 10           mov         eax,dword ptr [esi+10h]
  100048C4: 5E                 pop         esi
  100048C5: C3                 ret
  100048C6: CC                 int         3
  100048C7: CC                 int         3
  100048C8: CC                 int         3
  100048C9: CC                 int         3
  100048CA: CC                 int         3
  100048CB: CC                 int         3
  100048CC: CC                 int         3
  100048CD: CC                 int         3
  100048CE: CC                 int         3
  100048CF: CC                 int         3
  100048D0: 8B 44 24 04        mov         eax,dword ptr [esp+4]
  100048D4: 8B 4C 24 08        mov         ecx,dword ptr [esp+8]
  100048D8: 89 08              mov         dword ptr [eax],ecx
  100048DA: C3                 ret
  100048DB: CC                 int         3
  100048DC: CC                 int         3
  100048DD: CC                 int         3
  100048DE: CC                 int         3
  100048DF: CC                 int         3
  100048E0: 8B 44 24 04        mov         eax,dword ptr [esp+4]
  100048E4: 8B 4C 24 08        mov         ecx,dword ptr [esp+8]
  100048E8: 89 08              mov         dword ptr [eax],ecx
  100048EA: C3                 ret
  100048EB: CC                 int         3
  100048EC: CC                 int         3
  100048ED: CC                 int         3
  100048EE: CC                 int         3
  100048EF: CC                 int         3
  100048F0: 8B D1              mov         edx,ecx
  100048F2: 83 E2 80           and         edx,0FFFFFF80h
  100048F5: 89 48 04           mov         dword ptr [eax+4],ecx
  100048F8: 83 FA 80           cmp         edx,0FFFFFF80h
  100048FB: 74 04              je          10004901
  100048FD: 85 D2              test        edx,edx
  100048FF: 75 07              jne         10004908
  10004901: C7 00 01 08 00 00  mov         dword ptr [eax],801h
  10004907: C3                 ret
  10004908: F7 C1 00 FF FF FF  test        ecx,0FFFFFF00h
  1000490E: 75 07              jne         10004917
  10004910: C7 00 02 08 00 00  mov         dword ptr [eax],802h
  10004916: C3                 ret
  10004917: 81 E1 00 00 FF FF  and         ecx,0FFFF0000h
  1000491D: F7 D9              neg         ecx
  1000491F: 1B C9              sbb         ecx,ecx
  10004921: 83 E1 02           and         ecx,2
  10004924: 81 C1 04 08 00 00  add         ecx,804h
  1000492A: 89 08              mov         dword ptr [eax],ecx
  1000492C: C3                 ret
  1000492D: CC                 int         3
  1000492E: CC                 int         3
  1000492F: CC                 int         3
  10004930: 56                 push        esi
  10004931: 8B F0              mov         esi,eax
  10004933: 8B 07              mov         eax,dword ptr [edi]
  10004935: 3D FF 12 00 00     cmp         eax,12FFh
  1000493A: 74 4F              je          1000498B
  1000493C: 3D 02 02 00 00     cmp         eax,202h
  10004941: 74 2C              je          1000496F
  10004943: 3D 01 02 00 00     cmp         eax,201h
  10004948: 74 25              je          1000496F
  1000494A: 3D 00 02 00 00     cmp         eax,200h
  1000494F: 74 1E              je          1000496F
  10004951: 68 C0 00 00 00     push        0C0h
  10004956: 68 00 61 00 10     push        10006100h
  1000495B: 68 38 61 00 10     push        10006138h
  10004960: 68 48 61 00 10     push        10006148h
  10004965: FF 15 90 60 00 10  call        dword ptr ds:[10006090h]
  1000496B: 83 C4 10           add         esp,10h
  1000496E: CC                 int         3
  1000496F: 0F B6 47 04        movzx       eax,byte ptr [edi+4]
  10004973: 83 CE 18           or          esi,18h
  10004976: 03 F6              add         esi,esi
  10004978: 03 F6              add         esi,esi
  1000497A: 83 E0 07           and         eax,7
  1000497D: 03 F6              add         esi,esi
  1000497F: 0B C6              or          eax,esi
  10004981: 50                 push        eax
  10004982: 8B CB              mov         ecx,ebx
  10004984: E8 C7 FB FF FF     call        10004550
  10004989: 5E                 pop         esi
  1000498A: C3                 ret
  1000498B: 0F B6 4F 05        movzx       ecx,byte ptr [edi+5]
  1000498F: 83 E6 07           and         esi,7
  10004992: 03 F6              add         esi,esi
  10004994: 03 F6              add         esi,esi
  10004996: 03 F6              add         esi,esi
  10004998: 0B CE              or          ecx,esi
  1000499A: 51                 push        ecx
  1000499B: 8B CB              mov         ecx,ebx
  1000499D: E8 AE FB FF FF     call        10004550
  100049A2: F6 47 04 01        test        byte ptr [edi+4],1
  100049A6: 74 0C              je          100049B4
  100049A8: 0F B6 57 06        movzx       edx,byte ptr [edi+6]
  100049AC: 52                 push        edx
  100049AD: 8B CB              mov         ecx,ebx
  100049AF: E8 9C FB FF FF     call        10004550
  100049B4: 8A 47 04           mov         al,byte ptr [edi+4]
  100049B7: A8 02              test        al,2
  100049B9: 74 0D              je          100049C8
  100049BB: 8B 47 08           mov         eax,dword ptr [edi+8]
  100049BE: 50                 push        eax
  100049BF: 8B CB              mov         ecx,ebx
  100049C1: E8 8A FB FF FF     call        10004550
  100049C6: 5E                 pop         esi
  100049C7: C3                 ret
  100049C8: A8 04              test        al,4
  100049CA: 74 0B              je          100049D7
  100049CC: 8B 4F 08           mov         ecx,dword ptr [edi+8]
  100049CF: 51                 push        ecx
  100049D0: 8B CB              mov         ecx,ebx
  100049D2: E8 99 FA FF FF     call        10004470
  100049D7: 5E                 pop         esi
  100049D8: C3                 ret
  100049D9: CC                 int         3
  100049DA: CC                 int         3
  100049DB: CC                 int         3
  100049DC: CC                 int         3
  100049DD: CC                 int         3
  100049DE: CC                 int         3
  100049DF: CC                 int         3
  100049E0: 83 EC 0C           sub         esp,0Ch
  100049E3: 53                 push        ebx
  100049E4: 8B 5C 24 18        mov         ebx,dword ptr [esp+18h]
  100049E8: 56                 push        esi
  100049E9: C6 44 24 08 00     mov         byte ptr [esp+8],0
  100049EE: 83 FB 04           cmp         ebx,4
  100049F1: 75 7E              jne         10004A71
  100049F3: 68 E8 01 00 00     push        1E8h
  100049F8: 68 E4 FB 00 10     push        1000FBE4h
  100049FD: 68 38 FD 00 10     push        1000FD38h
  10004A02: 68 40 FD 00 10     push        1000FD40h
  10004A07: FF 15 90 60 00 10  call        dword ptr ds:[10006090h]
  10004A0D: 83 C4 10           add         esp,10h
  10004A10: CC                 int         3
  10004A11: 8B 54 24 18        mov         edx,dword ptr [esp+18h]
  10004A15: 8B 74 24 24        mov         esi,dword ptr [esp+24h]
  10004A19: 32 C9              xor         cl,cl
  10004A1B: 66 C7 44 24 08 01  mov         word ptr [esp+8],401h
            04
  10004A22: C6 44 24 1C 03     mov         byte ptr [esp+1Ch],3
  10004A27: 83 FA 05           cmp         edx,5
  10004A2A: 0F 85 3E 01 00 00  jne         10004B6E
  10004A30: B1 01              mov         cl,1
  10004A32: 8A 44 24 20        mov         al,byte ptr [esp+20h]
  10004A36: 02 C0              add         al,al
  10004A38: 02 C0              add         al,al
  10004A3A: 02 C0              add         al,al
  10004A3C: 0A C3              or          al,bl
  10004A3E: 02 C0              add         al,al
  10004A40: 02 C0              add         al,al
  10004A42: 02 C0              add         al,al
  10004A44: 0A C2              or          al,dl
  10004A46: 88 44 24 0A        mov         byte ptr [esp+0Ah],al
  10004A4A: 84 C9              test        cl,cl
  10004A4C: 75 04              jne         10004A52
  10004A4E: 85 F6              test        esi,esi
  10004A50: 74 11              je          10004A63
  10004A52: 8A 44 24 1C        mov         al,byte ptr [esp+1Ch]
  10004A56: 8D 4C 24 08        lea         ecx,[esp+8]
  10004A5A: E8 71 F5 FF FF     call        10003FD0
  10004A5F: 08 44 24 09        or          byte ptr [esp+9],al
  10004A63: 8B 54 24 0C        mov         edx,dword ptr [esp+0Ch]
  10004A67: 8B 44 24 08        mov         eax,dword ptr [esp+8]
  10004A6B: 5E                 pop         esi
  10004A6C: 5B                 pop         ebx
  10004A6D: 83 C4 0C           add         esp,0Ch
  10004A70: C3                 ret
  10004A71: 83 FB FF           cmp         ebx,0FFFFFFFFh
  10004A74: 75 9B              jne         10004A11
  10004A76: 8B 4C 24 18        mov         ecx,dword ptr [esp+18h]
  10004A7A: 8B 54 24 24        mov         edx,dword ptr [esp+24h]
  10004A7E: 83 F9 04           cmp         ecx,4
  10004A81: 75 4C              jne         10004ACF
  10004A83: 66 C7 44 24 08 01  mov         word ptr [esp+8],401h
            04
  10004A8A: C6 44 24 0A 24     mov         byte ptr [esp+0Ah],24h
  10004A8F: 85 D2              test        edx,edx
  10004A91: 74 D0              je          10004A63
  10004A93: 8B C2              mov         eax,edx
  10004A95: 83 E0 80           and         eax,0FFFFFF80h
  10004A98: 83 F8 80           cmp         eax,0FFFFFF80h
  10004A9B: 74 04              je          10004AA1
  10004A9D: 85 C0              test        eax,eax
  10004A9F: 75 17              jne         10004AB8
  10004AA1: B0 40              mov         al,40h
  10004AA3: 0C 04              or          al,4
  10004AA5: C6 44 24 08 03     mov         byte ptr [esp+8],3
  10004AAA: 88 44 24 09        mov         byte ptr [esp+9],al
  10004AAE: 8B 44 24 08        mov         eax,dword ptr [esp+8]
  10004AB2: 5E                 pop         esi
  10004AB3: 5B                 pop         ebx
  10004AB4: 83 C4 0C           add         esp,0Ch
  10004AB7: C3                 ret
  10004AB8: B0 80              mov         al,80h
  10004ABA: 0C 04              or          al,4
  10004ABC: C6 44 24 08 05     mov         byte ptr [esp+8],5
  10004AC1: 88 44 24 09        mov         byte ptr [esp+9],al
  10004AC5: 8B 44 24 08        mov         eax,dword ptr [esp+8]
  10004AC9: 5E                 pop         esi
  10004ACA: 5B                 pop         ebx
  10004ACB: 83 C4 0C           add         esp,0Ch
  10004ACE: C3                 ret
  10004ACF: 83 F9 05           cmp         ecx,5
  10004AD2: 75 3C              jne         10004B10
  10004AD4: 8B C2              mov         eax,edx
  10004AD6: 83 E0 80           and         eax,0FFFFFF80h
  10004AD9: 83 F8 80           cmp         eax,0FFFFFF80h
  10004ADC: 74 04              je          10004AE2
  10004ADE: 85 C0              test        eax,eax
  10004AE0: 75 17              jne         10004AF9
  10004AE2: B0 40              mov         al,40h
  10004AE4: 0C 05              or          al,5
  10004AE6: C6 44 24 08 02     mov         byte ptr [esp+8],2
  10004AEB: 88 44 24 09        mov         byte ptr [esp+9],al
  10004AEF: 8B 44 24 08        mov         eax,dword ptr [esp+8]
  10004AF3: 5E                 pop         esi
  10004AF4: 5B                 pop         ebx
  10004AF5: 83 C4 0C           add         esp,0Ch
  10004AF8: C3                 ret
  10004AF9: B0 80              mov         al,80h
  10004AFB: 0C 05              or          al,5
  10004AFD: C6 44 24 08 04     mov         byte ptr [esp+8],4
  10004B02: 88 44 24 09        mov         byte ptr [esp+9],al
  10004B06: 8B 44 24 08        mov         eax,dword ptr [esp+8]
  10004B0A: 5E                 pop         esi
  10004B0B: 5B                 pop         ebx
  10004B0C: 83 C4 0C           add         esp,0Ch
  10004B0F: C3                 ret
  10004B10: 83 F9 FF           cmp         ecx,0FFFFFFFFh
  10004B13: 75 11              jne         10004B26
  10004B15: 66 C7 44 24 08 04  mov         word ptr [esp+8],504h
            05
  10004B1C: 8B 44 24 08        mov         eax,dword ptr [esp+8]
  10004B20: 5E                 pop         esi
  10004B21: 5B                 pop         ebx
  10004B22: 83 C4 0C           add         esp,0Ch
  10004B25: C3                 ret
  10004B26: 88 4C 24 09        mov         byte ptr [esp+9],cl
  10004B2A: 85 D2              test        edx,edx
  10004B2C: 0F 84 31 FF FF FF  je          10004A63
  10004B32: 8B C2              mov         eax,edx
  10004B34: 83 E0 80           and         eax,0FFFFFF80h
  10004B37: 83 F8 80           cmp         eax,0FFFFFF80h
  10004B3A: 74 04              je          10004B40
  10004B3C: 85 C0              test        eax,eax
  10004B3E: 75 17              jne         10004B57
  10004B40: B0 40              mov         al,40h
  10004B42: 0A C1              or          al,cl
  10004B44: C6 44 24 08 02     mov         byte ptr [esp+8],2
  10004B49: 88 44 24 09        mov         byte ptr [esp+9],al
  10004B4D: 8B 44 24 08        mov         eax,dword ptr [esp+8]
  10004B51: 5E                 pop         esi
  10004B52: 5B                 pop         ebx
  10004B53: 83 C4 0C           add         esp,0Ch
  10004B56: C3                 ret
  10004B57: B0 80              mov         al,80h
  10004B59: 0A C1              or          al,cl
  10004B5B: 5E                 pop         esi
  10004B5C: C6 44 24 04 04     mov         byte ptr [esp+4],4
  10004B61: 88 44 24 05        mov         byte ptr [esp+5],al
  10004B65: 8B 44 24 04        mov         eax,dword ptr [esp+4]
  10004B69: 5B                 pop         ebx
  10004B6A: 83 C4 0C           add         esp,0Ch
  10004B6D: C3                 ret
  10004B6E: 83 FA FF           cmp         edx,0FFFFFFFFh
  10004B71: 0F 85 BB FE FF FF  jne         10004A32
  10004B77: 8A 44 24 20        mov         al,byte ptr [esp+20h]
  10004B7B: 02 C0              add         al,al
  10004B7D: 02 C0              add         al,al
  10004B7F: 02 C0              add         al,al
  10004B81: 0A C3              or          al,bl
  10004B83: 02 C0              add         al,al
  10004B85: 02 C0              add         al,al
  10004B87: 02 C0              add         al,al
  10004B89: 0C 05              or          al,5
  10004B8B: 88 44 24 0A        mov         byte ptr [esp+0Ah],al
  10004B8F: B0 06              mov         al,6
  10004B91: E9 C0 FE FF FF     jmp         10004A56
  10004B96: CC                 int         3
  10004B97: CC                 int         3
  10004B98: CC                 int         3
  10004B99: CC                 int         3
  10004B9A: CC                 int         3
  10004B9B: CC                 int         3
  10004B9C: CC                 int         3
  10004B9D: CC                 int         3
  10004B9E: CC                 int         3
  10004B9F: CC                 int         3
  10004BA0: 55                 push        ebp
  10004BA1: 8B EC              mov         ebp,esp
  10004BA3: 83 E4 F8           and         esp,0FFFFFFF8h
  10004BA6: 51                 push        ecx
  10004BA7: 8B 4D 08           mov         ecx,dword ptr [ebp+8]
  10004BAA: 8B C4              mov         eax,esp
  10004BAC: C7 00 00 00 00 00  mov         dword ptr [eax],0
  10004BB2: 8B 45 0C           mov         eax,dword ptr [ebp+0Ch]
  10004BB5: 6A 00              push        0
  10004BB7: 50                 push        eax
  10004BB8: 51                 push        ecx
  10004BB9: E8 22 FE FF FF     call        100049E0
  10004BBE: 83 C4 10           add         esp,10h
  10004BC1: 8B E5              mov         esp,ebp
  10004BC3: 5D                 pop         ebp
  10004BC4: C3                 ret
  10004BC5: CC                 int         3
  10004BC6: CC                 int         3
  10004BC7: CC                 int         3
  10004BC8: CC                 int         3
  10004BC9: CC                 int         3
  10004BCA: CC                 int         3
  10004BCB: CC                 int         3
  10004BCC: CC                 int         3
  10004BCD: CC                 int         3
  10004BCE: CC                 int         3
  10004BCF: CC                 int         3
  10004BD0: 55                 push        ebp
  10004BD1: 8B EC              mov         ebp,esp
  10004BD3: 83 E4 F8           and         esp,0FFFFFFF8h
  10004BD6: 83 EC 08           sub         esp,8
  10004BD9: 53                 push        ebx
  10004BDA: 8B 5D 08           mov         ebx,dword ptr [ebp+8]
  10004BDD: 56                 push        esi
  10004BDE: 83 FB 04           cmp         ebx,4
  10004BE1: 75 5C              jne         10004C3F
  10004BE3: 68 E8 01 00 00     push        1E8h
  10004BE8: 68 E4 FB 00 10     push        1000FBE4h
  10004BED: 68 38 FD 00 10     push        1000FD38h
  10004BF2: 68 40 FD 00 10     push        1000FD40h
  10004BF7: FF 15 90 60 00 10  call        dword ptr ds:[10006090h]
  10004BFD: 83 C4 10           add         esp,10h
  10004C00: CC                 int         3
  10004C01: 8A 45 0C           mov         al,byte ptr [ebp+0Ch]
  10004C04: 8B 75 10           mov         esi,dword ptr [ebp+10h]
  10004C07: 02 C0              add         al,al
  10004C09: 02 C0              add         al,al
  10004C0B: 02 C0              add         al,al
  10004C0D: 0A C3              or          al,bl
  10004C0F: 02 C0              add         al,al
  10004C11: 02 C0              add         al,al
  10004C13: 02 C0              add         al,al
  10004C15: 0C 05              or          al,5
  10004C17: 88 44 24 0A        mov         byte ptr [esp+0Ah],al
  10004C1B: B0 06              mov         al,6
  10004C1D: 8D 4C 24 08        lea         ecx,[esp+8]
  10004C21: 66 C7 44 24 08 01  mov         word ptr [esp+8],401h
            04
  10004C28: E8 A3 F3 FF FF     call        10003FD0
  10004C2D: 08 44 24 09        or          byte ptr [esp+9],al
  10004C31: 8B 54 24 0C        mov         edx,dword ptr [esp+0Ch]
  10004C35: 8B 44 24 08        mov         eax,dword ptr [esp+8]
  10004C39: 5E                 pop         esi
  10004C3A: 5B                 pop         ebx
  10004C3B: 8B E5              mov         esp,ebp
  10004C3D: 5D                 pop         ebp
  10004C3E: C3                 ret
  10004C3F: 83 FB FF           cmp         ebx,0FFFFFFFFh
  10004C42: 75 BD              jne         10004C01
  10004C44: 8B 55 10           mov         edx,dword ptr [ebp+10h]
  10004C47: 5E                 pop         esi
  10004C48: 66 C7 44 24 04 04  mov         word ptr [esp+4],504h
            05
  10004C4F: 8B 44 24 04        mov         eax,dword ptr [esp+4]
  10004C53: 5B                 pop         ebx
  10004C54: 8B E5              mov         esp,ebp
  10004C56: 5D                 pop         ebp
  10004C57: C3                 ret
  10004C58: CC                 int         3
  10004C59: CC                 int         3
  10004C5A: CC                 int         3
  10004C5B: CC                 int         3
  10004C5C: CC                 int         3
  10004C5D: CC                 int         3
  10004C5E: CC                 int         3
  10004C5F: CC                 int         3
  10004C60: 55                 push        ebp
  10004C61: 8B EC              mov         ebp,esp
  10004C63: 83 E4 F8           and         esp,0FFFFFFF8h
  10004C66: 8B 45 0C           mov         eax,dword ptr [ebp+0Ch]
  10004C69: 8B 4D 08           mov         ecx,dword ptr [ebp+8]
  10004C6C: 50                 push        eax
  10004C6D: 6A 00              push        0
  10004C6F: 6A FF              push        0FFFFFFFFh
  10004C71: 51                 push        ecx
  10004C72: E8 69 FD FF FF     call        100049E0
  10004C77: 83 C4 10           add         esp,10h
  10004C7A: 8B E5              mov         esp,ebp
  10004C7C: 5D                 pop         ebp
  10004C7D: C3                 ret
  10004C7E: CC                 int         3
  10004C7F: CC                 int         3
  10004C80: 55                 push        ebp
  10004C81: 8B EC              mov         ebp,esp
  10004C83: 83 E4 F8           and         esp,0FFFFFFF8h
  10004C86: 51                 push        ecx
  10004C87: 8B C4              mov         eax,esp
  10004C89: 6A 00              push        0
  10004C8B: C7 00 00 00 00 00  mov         dword ptr [eax],0
  10004C91: 8B 45 08           mov         eax,dword ptr [ebp+8]
  10004C94: 6A FF              push        0FFFFFFFFh
  10004C96: 50                 push        eax
  10004C97: E8 44 FD FF FF     call        100049E0
  10004C9C: 83 C4 10           add         esp,10h
  10004C9F: 8B E5              mov         esp,ebp
  10004CA1: 5D                 pop         ebp
  10004CA2: C3                 ret
  10004CA3: CC                 int         3
  10004CA4: CC                 int         3
  10004CA5: CC                 int         3
  10004CA6: CC                 int         3
  10004CA7: CC                 int         3
  10004CA8: CC                 int         3
  10004CA9: CC                 int         3
  10004CAA: CC                 int         3
  10004CAB: CC                 int         3
  10004CAC: CC                 int         3
  10004CAD: CC                 int         3
  10004CAE: CC                 int         3
  10004CAF: CC                 int         3
  10004CB0: 83 EC 10           sub         esp,10h
  10004CB3: 53                 push        ebx
  10004CB4: 89 4C 24 04        mov         dword ptr [esp+4],ecx
  10004CB8: 8B 4C 24 28        mov         ecx,dword ptr [esp+28h]
  10004CBC: 55                 push        ebp
  10004CBD: 8B C1              mov         eax,ecx
  10004CBF: 83 E0 80           and         eax,0FFFFFF80h
  10004CC2: 56                 push        esi
  10004CC3: 57                 push        edi
  10004CC4: 83 F8 80           cmp         eax,0FFFFFF80h
  10004CC7: 74 04              je          10004CCD
  10004CC9: 85 C0              test        eax,eax
  10004CCB: 75 07              jne         10004CD4
  10004CCD: BA 01 08 00 00     mov         edx,801h
  10004CD2: EB 24              jmp         10004CF8
  10004CD4: F7 C1 00 FF FF FF  test        ecx,0FFFFFF00h
  10004CDA: 75 07              jne         10004CE3
  10004CDC: BA 02 08 00 00     mov         edx,802h
  10004CE1: EB 15              jmp         10004CF8
  10004CE3: 8B D1              mov         edx,ecx
  10004CE5: 81 E2 00 00 FF FF  and         edx,0FFFF0000h
  10004CEB: F7 DA              neg         edx
  10004CED: 1B D2              sbb         edx,edx
  10004CEF: 83 E2 02           and         edx,2
  10004CF2: 81 C2 04 08 00 00  add         edx,804h
  10004CF8: 8B 44 24 28        mov         eax,dword ptr [esp+28h]
  10004CFC: 8B 74 24 2C        mov         esi,dword ptr [esp+2Ch]
  10004D00: 8B 7C 24 30        mov         edi,dword ptr [esp+30h]
  10004D04: BD FF 12 00 00     mov         ebp,12FFh
  10004D09: 88 44 24 18        mov         byte ptr [esp+18h],al
  10004D0D: 85 C0              test        eax,eax
  10004D0F: 74 10              je          10004D21
  10004D11: 33 DB              xor         ebx,ebx
  10004D13: 83 F8 01           cmp         eax,1
  10004D16: 0F 95 C3           setne       bl
  10004D19: 81 C3 01 02 00 00  add         ebx,201h
  10004D1F: EB 05              jmp         10004D26
  10004D21: BB 00 02 00 00     mov         ebx,200h
  10004D26: 83 EC 0C           sub         esp,0Ch
  10004D29: 8B C4              mov         eax,esp
  10004D2B: 89 10              mov         dword ptr [eax],edx
  10004D2D: 8B 54 24 24        mov         edx,dword ptr [esp+24h]
  10004D31: 89 48 04           mov         dword ptr [eax+4],ecx
  10004D34: 8B 4C 24 28        mov         ecx,dword ptr [esp+28h]
  10004D38: 89 48 08           mov         dword ptr [eax+8],ecx
  10004D3B: 8B 4C 24 28        mov         ecx,dword ptr [esp+28h]
  10004D3F: 83 EC 0C           sub         esp,0Ch
  10004D42: 8B C4              mov         eax,esp
  10004D44: 89 28              mov         dword ptr [eax],ebp
  10004D46: 89 70 04           mov         dword ptr [eax+4],esi
  10004D49: 89 78 08           mov         dword ptr [eax+8],edi
  10004D4C: 83 EC 0C           sub         esp,0Ch
  10004D4F: 8B C4              mov         eax,esp
  10004D51: 89 18              mov         dword ptr [eax],ebx
  10004D53: 89 50 04           mov         dword ptr [eax+4],edx
  10004D56: 8B 54 24 34        mov         edx,dword ptr [esp+34h]
  10004D5A: 89 48 08           mov         dword ptr [eax+8],ecx
  10004D5D: 8B 44 24 48        mov         eax,dword ptr [esp+48h]
  10004D61: 8B 34 85 28 20 01  mov         esi,dword ptr [eax*4+10012028h]
            10
  10004D68: 52                 push        edx
  10004D69: E8 C2 F0 FF FF     call        10003E30
  10004D6E: 5F                 pop         edi
  10004D6F: 5E                 pop         esi
  10004D70: 5D                 pop         ebp
  10004D71: 5B                 pop         ebx
  10004D72: 83 C4 10           add         esp,10h
  10004D75: C2 14 00           ret         14h
  10004D78: CC                 int         3
  10004D79: CC                 int         3
  10004D7A: CC                 int         3
  10004D7B: CC                 int         3
  10004D7C: CC                 int         3
  10004D7D: CC                 int         3
  10004D7E: CC                 int         3
  10004D7F: CC                 int         3
  10004D80: 83 EC 18           sub         esp,18h
  10004D83: 53                 push        ebx
  10004D84: 55                 push        ebp
  10004D85: 8B 6C 24 30        mov         ebp,dword ptr [esp+30h]
  10004D89: 8B C5              mov         eax,ebp
  10004D8B: 83 E0 80           and         eax,0FFFFFF80h
  10004D8E: 56                 push        esi
  10004D8F: 57                 push        edi
  10004D90: 83 F8 80           cmp         eax,0FFFFFF80h
  10004D93: 74 04              je          10004D99
  10004D95: 85 C0              test        eax,eax
  10004D97: 75 07              jne         10004DA0
  10004D99: BA 01 08 00 00     mov         edx,801h
  10004D9E: EB 24              jmp         10004DC4
  10004DA0: F7 C5 00 FF FF FF  test        ebp,0FFFFFF00h
  10004DA6: 75 07              jne         10004DAF
  10004DA8: BA 02 08 00 00     mov         edx,802h
  10004DAD: EB 15              jmp         10004DC4
  10004DAF: 8B D5              mov         edx,ebp
  10004DB1: 81 E2 00 00 FF FF  and         edx,0FFFF0000h
  10004DB7: F7 DA              neg         edx
  10004DB9: 1B D2              sbb         edx,edx
  10004DBB: 83 E2 02           and         edx,2
  10004DBE: 81 C2 04 08 00 00  add         edx,804h
  10004DC4: 8B 44 24 34        mov         eax,dword ptr [esp+34h]
  10004DC8: 88 44 24 14        mov         byte ptr [esp+14h],al
  10004DCC: 85 C0              test        eax,eax
  10004DCE: 74 10              je          10004DE0
  10004DD0: 33 DB              xor         ebx,ebx
  10004DD2: 83 F8 01           cmp         eax,1
  10004DD5: 0F 95 C3           setne       bl
  10004DD8: 8D BB 01 02 00 00  lea         edi,[ebx+00000201h]
  10004DDE: EB 05              jmp         10004DE5
  10004DE0: BF 00 02 00 00     mov         edi,200h
  10004DE5: 8B 44 24 30        mov         eax,dword ptr [esp+30h]
  10004DE9: 88 44 24 20        mov         byte ptr [esp+20h],al
  10004DED: 85 C0              test        eax,eax
  10004DEF: 74 10              je          10004E01
  10004DF1: 33 DB              xor         ebx,ebx
  10004DF3: 83 F8 01           cmp         eax,1
  10004DF6: 0F 95 C3           setne       bl
  10004DF9: 8D B3 01 02 00 00  lea         esi,[ebx+00000201h]
  10004DFF: EB 05              jmp         10004E06
  10004E01: BE 00 02 00 00     mov         esi,200h
  10004E06: 83 EC 0C           sub         esp,0Ch
  10004E09: 8B C4              mov         eax,esp
  10004E0B: 89 10              mov         dword ptr [eax],edx
  10004E0D: 8B 54 24 30        mov         edx,dword ptr [esp+30h]
  10004E11: 89 68 04           mov         dword ptr [eax+4],ebp
  10004E14: 89 50 08           mov         dword ptr [eax+8],edx
  10004E17: 8B 54 24 20        mov         edx,dword ptr [esp+20h]
  10004E1B: 83 EC 0C           sub         esp,0Ch
  10004E1E: 8B C4              mov         eax,esp
  10004E20: 89 38              mov         dword ptr [eax],edi
  10004E22: 89 50 04           mov         dword ptr [eax+4],edx
  10004E25: 8B 54 24 30        mov         edx,dword ptr [esp+30h]
  10004E29: 89 50 08           mov         dword ptr [eax+8],edx
  10004E2C: 8B 54 24 38        mov         edx,dword ptr [esp+38h]
  10004E30: 83 EC 0C           sub         esp,0Ch
  10004E33: 8B C4              mov         eax,esp
  10004E35: 89 30              mov         dword ptr [eax],esi
  10004E37: 89 50 04           mov         dword ptr [eax+4],edx
  10004E3A: 8B 54 24 48        mov         edx,dword ptr [esp+48h]
  10004E3E: 89 50 08           mov         dword ptr [eax+8],edx
  10004E41: 8B 44 24 50        mov         eax,dword ptr [esp+50h]
  10004E45: 8B 34 85 28 20 01  mov         esi,dword ptr [eax*4+10012028h]
            10
  10004E4C: 51                 push        ecx
  10004E4D: E8 DE EF FF FF     call        10003E30
  10004E52: 5F                 pop         edi
  10004E53: 5E                 pop         esi
  10004E54: 5D                 pop         ebp
  10004E55: 5B                 pop         ebx
  10004E56: 83 C4 18           add         esp,18h
  10004E59: C2 10 00           ret         10h
  10004E5C: CC                 int         3
  10004E5D: CC                 int         3
  10004E5E: CC                 int         3
  10004E5F: CC                 int         3
  10004E60: 83 EC 0C           sub         esp,0Ch
  10004E63: 53                 push        ebx
  10004E64: 55                 push        ebp
  10004E65: 8B 6C 24 24        mov         ebp,dword ptr [esp+24h]
  10004E69: 8B C5              mov         eax,ebp
  10004E6B: 83 E0 80           and         eax,0FFFFFF80h
  10004E6E: 56                 push        esi
  10004E6F: 57                 push        edi
  10004E70: 83 F8 80           cmp         eax,0FFFFFF80h
  10004E73: 74 04              je          10004E79
  10004E75: 85 C0              test        eax,eax
  10004E77: 75 07              jne         10004E80
  10004E79: BA 01 08 00 00     mov         edx,801h
  10004E7E: EB 24              jmp         10004EA4
  10004E80: F7 C5 00 FF FF FF  test        ebp,0FFFFFF00h
  10004E86: 75 07              jne         10004E8F
  10004E88: BA 02 08 00 00     mov         edx,802h
  10004E8D: EB 15              jmp         10004EA4
  10004E8F: 8B D5              mov         edx,ebp
  10004E91: 81 E2 00 00 FF FF  and         edx,0FFFF0000h
  10004E97: F7 DA              neg         edx
  10004E99: 1B D2              sbb         edx,edx
  10004E9B: 83 E2 02           and         edx,2
  10004E9E: 81 C2 04 08 00 00  add         edx,804h
  10004EA4: 8B 74 24 24        mov         esi,dword ptr [esp+24h]
  10004EA8: 8B 7C 24 28        mov         edi,dword ptr [esp+28h]
  10004EAC: 83 EC 0C           sub         esp,0Ch
  10004EAF: 8B C4              mov         eax,esp
  10004EB1: 89 10              mov         dword ptr [eax],edx
  10004EB3: 8B 54 24 24        mov         edx,dword ptr [esp+24h]
  10004EB7: 89 68 04           mov         dword ptr [eax+4],ebp
  10004EBA: 89 50 08           mov         dword ptr [eax+8],edx
  10004EBD: 8B 15 78 2A 01 10  mov         edx,dword ptr ds:[10012A78h]
  10004EC3: 83 EC 0C           sub         esp,0Ch
  10004EC6: 8B C4              mov         eax,esp
  10004EC8: 89 10              mov         dword ptr [eax],edx
  10004ECA: 8B 15 7C 2A 01 10  mov         edx,dword ptr ds:[10012A7Ch]
  10004ED0: 89 50 04           mov         dword ptr [eax+4],edx
  10004ED3: 8B 15 80 2A 01 10  mov         edx,dword ptr ds:[10012A80h]
  10004ED9: 89 50 08           mov         dword ptr [eax+8],edx
  10004EDC: 83 EC 0C           sub         esp,0Ch
  10004EDF: 8B C4              mov         eax,esp
  10004EE1: BB FF 12 00 00     mov         ebx,12FFh
  10004EE6: 89 18              mov         dword ptr [eax],ebx
  10004EE8: 89 70 04           mov         dword ptr [eax+4],esi
  10004EEB: 89 78 08           mov         dword ptr [eax+8],edi
  10004EEE: 8B 44 24 44        mov         eax,dword ptr [esp+44h]
  10004EF2: 8B 34 85 28 20 01  mov         esi,dword ptr [eax*4+10012028h]
            10
  10004EF9: 51                 push        ecx
  10004EFA: E8 31 EF FF FF     call        10003E30
  10004EFF: 5F                 pop         edi
  10004F00: 5E                 pop         esi
  10004F01: 5D                 pop         ebp
  10004F02: 5B                 pop         ebx
  10004F03: 83 C4 0C           add         esp,0Ch
  10004F06: C2 10 00           ret         10h
  10004F09: CC                 int         3
  10004F0A: CC                 int         3
  10004F0B: CC                 int         3
  10004F0C: CC                 int         3
  10004F0D: CC                 int         3
  10004F0E: CC                 int         3
  10004F0F: CC                 int         3
  10004F10: 83 EC 0C           sub         esp,0Ch
  10004F13: 55                 push        ebp
  10004F14: 56                 push        esi
  10004F15: 8B 74 24 20        mov         esi,dword ptr [esp+20h]
  10004F19: 8B C6              mov         eax,esi
  10004F1B: 83 E0 80           and         eax,0FFFFFF80h
  10004F1E: 57                 push        edi
  10004F1F: 8B E9              mov         ebp,ecx
  10004F21: 83 F8 80           cmp         eax,0FFFFFF80h
  10004F24: 74 04              je          10004F2A
  10004F26: 85 C0              test        eax,eax
  10004F28: 75 07              jne         10004F31
  10004F2A: BA 01 08 00 00     mov         edx,801h
  10004F2F: EB 24              jmp         10004F55
  10004F31: F7 C6 00 FF FF FF  test        esi,0FFFFFF00h
  10004F37: 75 07              jne         10004F40
  10004F39: BA 02 08 00 00     mov         edx,802h
  10004F3E: EB 15              jmp         10004F55
  10004F40: 8B D6              mov         edx,esi
  10004F42: 81 E2 00 00 FF FF  and         edx,0FFFF0000h
  10004F48: F7 DA              neg         edx
  10004F4A: 1B D2              sbb         edx,edx
  10004F4C: 83 E2 02           and         edx,2
  10004F4F: 81 C2 04 08 00 00  add         edx,804h
  10004F55: 8B 44 24 20        mov         eax,dword ptr [esp+20h]
  10004F59: 88 44 24 10        mov         byte ptr [esp+10h],al
  10004F5D: 85 C0              test        eax,eax
  10004F5F: 74 10              je          10004F71
  10004F61: 33 C9              xor         ecx,ecx
  10004F63: 83 F8 01           cmp         eax,1
  10004F66: 0F 95 C1           setne       cl
  10004F69: 8D B9 01 02 00 00  lea         edi,[ecx+00000201h]
  10004F6F: EB 05              jmp         10004F76
  10004F71: BF 00 02 00 00     mov         edi,200h
  10004F76: 8B 0D 78 2A 01 10  mov         ecx,dword ptr ds:[10012A78h]
  10004F7C: 83 EC 0C           sub         esp,0Ch
  10004F7F: 8B C4              mov         eax,esp
  10004F81: 89 10              mov         dword ptr [eax],edx
  10004F83: 8B 54 24 20        mov         edx,dword ptr [esp+20h]
  10004F87: 89 70 04           mov         dword ptr [eax+4],esi
  10004F8A: 89 50 08           mov         dword ptr [eax+8],edx
  10004F8D: 8B 15 7C 2A 01 10  mov         edx,dword ptr ds:[10012A7Ch]
  10004F93: 83 EC 0C           sub         esp,0Ch
  10004F96: 8B C4              mov         eax,esp
  10004F98: 89 08              mov         dword ptr [eax],ecx
  10004F9A: 8B 0D 80 2A 01 10  mov         ecx,dword ptr ds:[10012A80h]
  10004FA0: 89 50 04           mov         dword ptr [eax+4],edx
  10004FA3: 8B 54 24 28        mov         edx,dword ptr [esp+28h]
  10004FA7: 89 48 08           mov         dword ptr [eax+8],ecx
  10004FAA: 8B 4C 24 2C        mov         ecx,dword ptr [esp+2Ch]
  10004FAE: 83 EC 0C           sub         esp,0Ch
  10004FB1: 8B C4              mov         eax,esp
  10004FB3: 89 38              mov         dword ptr [eax],edi
  10004FB5: 89 50 04           mov         dword ptr [eax+4],edx
  10004FB8: 8B 54 24 40        mov         edx,dword ptr [esp+40h]
  10004FBC: 8B 34 95 28 20 01  mov         esi,dword ptr [edx*4+10012028h]
            10
  10004FC3: 55                 push        ebp
  10004FC4: 89 48 08           mov         dword ptr [eax+8],ecx
  10004FC7: E8 64 EE FF FF     call        10003E30
  10004FCC: 5F                 pop         edi
  10004FCD: 5E                 pop         esi
  10004FCE: 5D                 pop         ebp
  10004FCF: 83 C4 0C           add         esp,0Ch
  10004FD2: C2 0C 00           ret         0Ch
  10004FD5: CC                 int         3
  10004FD6: CC                 int         3
  10004FD7: CC                 int         3
  10004FD8: CC                 int         3
  10004FD9: CC                 int         3
  10004FDA: CC                 int         3
  10004FDB: CC                 int         3
  10004FDC: CC                 int         3
  10004FDD: CC                 int         3
  10004FDE: CC                 int         3
  10004FDF: CC                 int         3
  10004FE0: 83 EC 0C           sub         esp,0Ch
  10004FE3: 56                 push        esi
  10004FE4: 8B 74 24 18        mov         esi,dword ptr [esp+18h]
  10004FE8: 8B C6              mov         eax,esi
  10004FEA: 83 E0 80           and         eax,0FFFFFF80h
  10004FED: 57                 push        edi
  10004FEE: 83 F8 80           cmp         eax,0FFFFFF80h
  10004FF1: 74 04              je          10004FF7
  10004FF3: 85 C0              test        eax,eax
  10004FF5: 75 07              jne         10004FFE
  10004FF7: BA 01 08 00 00     mov         edx,801h
  10004FFC: EB 24              jmp         10005022
  10004FFE: F7 C6 00 FF FF FF  test        esi,0FFFFFF00h
  10005004: 75 07              jne         1000500D
  10005006: BA 02 08 00 00     mov         edx,802h
  1000500B: EB 15              jmp         10005022
  1000500D: 8B D6              mov         edx,esi
  1000500F: 81 E2 00 00 FF FF  and         edx,0FFFF0000h
  10005015: F7 DA              neg         edx
  10005017: 1B D2              sbb         edx,edx
  10005019: 83 E2 02           and         edx,2
  1000501C: 81 C2 04 08 00 00  add         edx,804h
  10005022: 8B 3D 80 2A 01 10  mov         edi,dword ptr ds:[10012A80h]
  10005028: 83 EC 0C           sub         esp,0Ch
  1000502B: 8B C4              mov         eax,esp
  1000502D: 89 10              mov         dword ptr [eax],edx
  1000502F: 8B 54 24 1C        mov         edx,dword ptr [esp+1Ch]
  10005033: 89 70 04           mov         dword ptr [eax+4],esi
  10005036: 8B 35 7C 2A 01 10  mov         esi,dword ptr ds:[10012A7Ch]
  1000503C: 89 50 08           mov         dword ptr [eax+8],edx
  1000503F: 8B 15 78 2A 01 10  mov         edx,dword ptr ds:[10012A78h]
  10005045: 83 EC 0C           sub         esp,0Ch
  10005048: 8B C4              mov         eax,esp
  1000504A: 89 10              mov         dword ptr [eax],edx
  1000504C: 89 70 04           mov         dword ptr [eax+4],esi
  1000504F: 89 78 08           mov         dword ptr [eax+8],edi
  10005052: 83 EC 0C           sub         esp,0Ch
  10005055: 8B C4              mov         eax,esp
  10005057: 89 10              mov         dword ptr [eax],edx
  10005059: 89 70 04           mov         dword ptr [eax+4],esi
  1000505C: 89 78 08           mov         dword ptr [eax+8],edi
  1000505F: 8B 44 24 3C        mov         eax,dword ptr [esp+3Ch]
  10005063: 8B 34 85 28 20 01  mov         esi,dword ptr [eax*4+10012028h]
            10
  1000506A: 51                 push        ecx
  1000506B: E8 C0 ED FF FF     call        10003E30
  10005070: 5F                 pop         edi
  10005071: 5E                 pop         esi
  10005072: 83 C4 0C           add         esp,0Ch
  10005075: C2 08 00           ret         8
  10005078: CC                 int         3
  10005079: CC                 int         3
  1000507A: CC                 int         3
  1000507B: CC                 int         3
  1000507C: CC                 int         3
  1000507D: CC                 int         3
  1000507E: CC                 int         3
  1000507F: CC                 int         3
  10005080: 55                 push        ebp
  10005081: 8B EC              mov         ebp,esp
  10005083: 83 E4 F8           and         esp,0FFFFFFF8h
  10005086: 83 EC 08           sub         esp,8
  10005089: 8B 55 08           mov         edx,dword ptr [ebp+8]
  1000508C: 66 C7 04 24 04 05  mov         word ptr [esp],504h
  10005092: 8B 04 24           mov         eax,dword ptr [esp]
  10005095: 8B E5              mov         esp,ebp
  10005097: 5D                 pop         ebp
  10005098: C3                 ret
  10005099: CC                 int         3
  1000509A: CC                 int         3
  1000509B: CC                 int         3
  1000509C: CC                 int         3
  1000509D: CC                 int         3
  1000509E: CC                 int         3
  1000509F: CC                 int         3
  100050A0: 51                 push        ecx
  100050A1: 56                 push        esi
  100050A2: 57                 push        edi
  100050A3: 6A 10              push        10h
  100050A5: 8B F9              mov         edi,ecx
  100050A7: FF 15 88 60 00 10  call        dword ptr ds:[10006088h]
  100050AD: 83 C4 04           add         esp,4
  100050B0: 85 C0              test        eax,eax
  100050B2: 74 11              je          100050C5
  100050B4: 33 C9              xor         ecx,ecx
  100050B6: 89 08              mov         dword ptr [eax],ecx
  100050B8: 89 48 04           mov         dword ptr [eax+4],ecx
  100050BB: 89 48 08           mov         dword ptr [eax+8],ecx
  100050BE: 89 48 0C           mov         dword ptr [eax+0Ch],ecx
  100050C1: 8B F0              mov         esi,eax
  100050C3: EB 02              jmp         100050C7
  100050C5: 33 F6              xor         esi,esi
  100050C7: 83 C8 FF           or          eax,0FFFFFFFFh
  100050CA: 80 7C 24 10 00     cmp         byte ptr [esp+10h],0
  100050CF: 89 06              mov         dword ptr [esi],eax
  100050D1: 89 46 04           mov         dword ptr [esi+4],eax
  100050D4: 89 46 0C           mov         dword ptr [esi+0Ch],eax
  100050D7: 8A 44 24 14        mov         al,byte ptr [esp+14h]
  100050DB: 89 74 24 08        mov         dword ptr [esp+8],esi
  100050DF: 89 7E 08           mov         dword ptr [esi+8],edi
  100050E2: C6 46 0C 00        mov         byte ptr [esi+0Ch],0
  100050E6: 88 46 04           mov         byte ptr [esi+4],al
  100050E9: 74 09              je          100050F4
  100050EB: C6 46 0C 01        mov         byte ptr [esi+0Ch],1
  100050EF: 8B 4F 14           mov         ecx,dword ptr [edi+14h]
  100050F2: 89 0E              mov         dword ptr [esi],ecx
  100050F4: 8B 3F              mov         edi,dword ptr [edi]
  100050F6: 8B 47 04           mov         eax,dword ptr [edi+4]
  100050F9: 8D 54 24 08        lea         edx,[esp+8]
  100050FD: 3B D0              cmp         edx,eax
  100050FF: 73 35              jae         10005136
  10005101: 8B 0F              mov         ecx,dword ptr [edi]
  10005103: 3B CA              cmp         ecx,edx
  10005105: 77 2F              ja          10005136
  10005107: 53                 push        ebx
  10005108: 8B DA              mov         ebx,edx
  1000510A: 2B D9              sub         ebx,ecx
  1000510C: C1 FB 02           sar         ebx,2
  1000510F: 3B 47 08           cmp         eax,dword ptr [edi+8]
  10005112: 75 07              jne         1000511B
  10005114: 8B C7              mov         eax,edi
  10005116: E8 15 C1 FF FF     call        10001230
  1000511B: 8B 47 04           mov         eax,dword ptr [edi+4]
  1000511E: 85 C0              test        eax,eax
  10005120: 74 07              je          10005129
  10005122: 8B 0F              mov         ecx,dword ptr [edi]
  10005124: 8B 14 99           mov         edx,dword ptr [ecx+ebx*4]
  10005127: 89 10              mov         dword ptr [eax],edx
  10005129: 83 47 04 04        add         dword ptr [edi+4],4
  1000512D: 5B                 pop         ebx
  1000512E: 5F                 pop         edi
  1000512F: 8B C6              mov         eax,esi
  10005131: 5E                 pop         esi
  10005132: 59                 pop         ecx
  10005133: C2 08 00           ret         8
  10005136: 3B 47 08           cmp         eax,dword ptr [edi+8]
  10005139: 75 07              jne         10005142
  1000513B: 8B C7              mov         eax,edi
  1000513D: E8 EE C0 FF FF     call        10001230
  10005142: 8B 47 04           mov         eax,dword ptr [edi+4]
  10005145: 85 C0              test        eax,eax
  10005147: 74 02              je          1000514B
  10005149: 89 30              mov         dword ptr [eax],esi
  1000514B: 83 47 04 04        add         dword ptr [edi+4],4
  1000514F: 5F                 pop         edi
  10005150: 8B C6              mov         eax,esi
  10005152: 5E                 pop         esi
  10005153: 59                 pop         ecx
  10005154: C2 08 00           ret         8
  10005157: CC                 int         3
  10005158: CC                 int         3
  10005159: CC                 int         3
  1000515A: CC                 int         3
  1000515B: CC                 int         3
  1000515C: CC                 int         3
  1000515D: CC                 int         3
  1000515E: CC                 int         3
  1000515F: CC                 int         3
  10005160: 55                 push        ebp
  10005161: 8B EC              mov         ebp,esp
  10005163: 83 E4 F8           and         esp,0FFFFFFF8h
  10005166: 83 EC 10           sub         esp,10h
  10005169: 53                 push        ebx
  1000516A: 55                 push        ebp
  1000516B: 56                 push        esi
  1000516C: 57                 push        edi
  1000516D: 6A 10              push        10h
  1000516F: 8B F9              mov         edi,ecx
  10005171: FF 15 88 60 00 10  call        dword ptr ds:[10006088h]
  10005177: 33 ED              xor         ebp,ebp
  10005179: 83 C4 04           add         esp,4
  1000517C: 3B C5              cmp         eax,ebp
  1000517E: 74 0C              je          1000518C
  10005180: 89 28              mov         dword ptr [eax],ebp
  10005182: 89 68 04           mov         dword ptr [eax+4],ebp
  10005185: 89 68 08           mov         dword ptr [eax+8],ebp
  10005188: 8B D8              mov         ebx,eax
  1000518A: EB 02              jmp         1000518E
  1000518C: 33 DB              xor         ebx,ebx
  1000518E: 8B 4F 0C           mov         ecx,dword ptr [edi+0Ch]
  10005191: 8B 51 04           mov         edx,dword ptr [ecx+4]
  10005194: 2B 11              sub         edx,dword ptr [ecx]
  10005196: 8B 77 10           mov         esi,dword ptr [edi+10h]
  10005199: B8 AB AA AA 2A     mov         eax,2AAAAAABh
  1000519E: F7 EA              imul        edx
  100051A0: D1 FA              sar         edx,1
  100051A2: 8B C2              mov         eax,edx
  100051A4: C1 E8 1F           shr         eax,1Fh
  100051A7: 03 C2              add         eax,edx
  100051A9: 89 74 24 14        mov         dword ptr [esp+14h],esi
  100051AD: 89 6C 24 10        mov         dword ptr [esp+10h],ebp
  100051B1: 0F 84 EE 00 00 00  je          100052A5
  100051B7: EB 0B              jmp         100051C4
  100051B9: 8D A4 24 00 00 00  lea         esp,[esp+00000000h]
            00
  100051C0: 8B 74 24 14        mov         esi,dword ptr [esp+14h]
  100051C4: 8B 57 0C           mov         edx,dword ptr [edi+0Ch]
  100051C7: 8B 12              mov         edx,dword ptr [edx]
  100051C9: F6 04 2A 10        test        byte ptr [edx+ebp],10h
  100051CD: 8B 44 2A 04        mov         eax,dword ptr [edx+ebp+4]
  100051D1: 74 22              je          100051F5
  100051D3: 8B 09              mov         ecx,dword ptr [ecx]
  100051D5: 8B 44 29 04        mov         eax,dword ptr [ecx+ebp+4]
  100051D9: 39 78 08           cmp         dword ptr [eax+8],edi
  100051DC: 75 06              jne         100051E4
  100051DE: 8B 00              mov         eax,dword ptr [eax]
  100051E0: 03 C6              add         eax,esi
  100051E2: EB 11              jmp         100051F5
  100051E4: 8B 57 0C           mov         edx,dword ptr [edi+0Ch]
  100051E7: 8B 02              mov         eax,dword ptr [edx]
  100051E9: 8B 4C 28 04        mov         ecx,dword ptr [eax+ebp+4]
  100051ED: 8B 51 08           mov         edx,dword ptr [ecx+8]
  100051F0: 8B 42 10           mov         eax,dword ptr [edx+10h]
  100051F3: 03 01              add         eax,dword ptr [ecx]
  100051F5: 8B C8              mov         ecx,eax
  100051F7: 2B CE              sub         ecx,esi
  100051F9: 3B 4F 14           cmp         ecx,dword ptr [edi+14h]
  100051FC: 72 7B              jb          10005279
  100051FE: 8B 57 0C           mov         edx,dword ptr [edi+0Ch]
  10005201: 89 44 24 18        mov         dword ptr [esp+18h],eax
  10005205: 8B 02              mov         eax,dword ptr [edx]
  10005207: 0F B6 34 28        movzx       esi,byte ptr [eax+ebp]
  1000520B: 8B 4C 28 08        mov         ecx,dword ptr [eax+ebp+8]
  1000520F: 8B 43 04           mov         eax,dword ptr [ebx+4]
  10005212: C1 E6 1C           shl         esi,1Ch
  10005215: 81 E1 FF FF FF 0F  and         ecx,0FFFFFFFh
  1000521B: 0B F1              or          esi,ecx
  1000521D: 8D 54 24 18        lea         edx,[esp+18h]
  10005221: 89 74 24 1C        mov         dword ptr [esp+1Ch],esi
  10005225: 3B D0              cmp         edx,eax
  10005227: 73 30              jae         10005259
  10005229: 8B 0B              mov         ecx,dword ptr [ebx]
  1000522B: 3B CA              cmp         ecx,edx
  1000522D: 77 2A              ja          10005259
  1000522F: 8B F2              mov         esi,edx
  10005231: 2B F1              sub         esi,ecx
  10005233: C1 FE 03           sar         esi,3
  10005236: 3B 43 08           cmp         eax,dword ptr [ebx+8]
  10005239: 75 07              jne         10005242
  1000523B: 8B CB              mov         ecx,ebx
  1000523D: E8 8E BF FF FF     call        100011D0
  10005242: 8B 43 04           mov         eax,dword ptr [ebx+4]
  10005245: 85 C0              test        eax,eax
  10005247: 74 2C              je          10005275
  10005249: 8B 0B              mov         ecx,dword ptr [ebx]
  1000524B: 8B 14 F1           mov         edx,dword ptr [ecx+esi*8]
  1000524E: 89 10              mov         dword ptr [eax],edx
  10005250: 8B 4C F1 04        mov         ecx,dword ptr [ecx+esi*8+4]
  10005254: 89 48 04           mov         dword ptr [eax+4],ecx
  10005257: EB 1C              jmp         10005275
  10005259: 3B 43 08           cmp         eax,dword ptr [ebx+8]
  1000525C: 75 07              jne         10005265
  1000525E: 8B CB              mov         ecx,ebx
  10005260: E8 6B BF FF FF     call        100011D0
  10005265: 8B 43 04           mov         eax,dword ptr [ebx+4]
  10005268: 85 C0              test        eax,eax
  1000526A: 74 09              je          10005275
  1000526C: 8B 54 24 18        mov         edx,dword ptr [esp+18h]
  10005270: 89 10              mov         dword ptr [eax],edx
  10005272: 89 70 04           mov         dword ptr [eax+4],esi
  10005275: 83 43 04 08        add         dword ptr [ebx+4],8
  10005279: 8B 4F 0C           mov         ecx,dword ptr [edi+0Ch]
  1000527C: 8B 51 04           mov         edx,dword ptr [ecx+4]
  1000527F: 2B 11              sub         edx,dword ptr [ecx]
  10005281: 8B 74 24 10        mov         esi,dword ptr [esp+10h]
  10005285: B8 AB AA AA 2A     mov         eax,2AAAAAABh
  1000528A: F7 EA              imul        edx
  1000528C: D1 FA              sar         edx,1
  1000528E: 8B C2              mov         eax,edx
  10005290: C1 E8 1F           shr         eax,1Fh
  10005293: 46                 inc         esi
  10005294: 03 C2              add         eax,edx
  10005296: 83 C5 0C           add         ebp,0Ch
  10005299: 89 74 24 10        mov         dword ptr [esp+10h],esi
  1000529D: 3B F0              cmp         esi,eax
  1000529F: 0F 82 1B FF FF FF  jb          100051C0
  100052A5: 5F                 pop         edi
  100052A6: 8B C3              mov         eax,ebx
  100052A8: 5E                 pop         esi
  100052A9: 5D                 pop         ebp
  100052AA: 5B                 pop         ebx
  100052AB: 8B E5              mov         esp,ebp
  100052AD: 5D                 pop         ebp
  100052AE: C3                 ret
  100052AF: CC                 int         3
  100052B0: 8B 44 24 04        mov         eax,dword ptr [esp+4]
  100052B4: 50                 push        eax
  100052B5: 51                 push        ecx
  100052B6: E8 F5 BD FF FF     call        100010B0
  100052BB: C2 04 00           ret         4
  100052BE: CC                 int         3
  100052BF: CC                 int         3
  100052C0: 55                 push        ebp
  100052C1: 8B EC              mov         ebp,esp
  100052C3: 83 E4 F8           and         esp,0FFFFFFF8h
  100052C6: 83 EC 14           sub         esp,14h
  100052C9: 8B 55 14           mov         edx,dword ptr [ebp+14h]
  100052CC: 53                 push        ebx
  100052CD: 8B C2              mov         eax,edx
  100052CF: 83 E0 80           and         eax,0FFFFFF80h
  100052D2: 56                 push        esi
  100052D3: 57                 push        edi
  100052D4: 89 4C 24 0C        mov         dword ptr [esp+0Ch],ecx
  100052D8: 83 F8 80           cmp         eax,0FFFFFF80h
  100052DB: 74 04              je          100052E1
  100052DD: 85 C0              test        eax,eax
  100052DF: 75 07              jne         100052E8
  100052E1: BA 01 08 00 00     mov         edx,801h
  100052E6: EB 22              jmp         1000530A
  100052E8: F7 C2 00 FF FF FF  test        edx,0FFFFFF00h
  100052EE: 75 07              jne         100052F7
  100052F0: BA 02 08 00 00     mov         edx,802h
  100052F5: EB 13              jmp         1000530A
  100052F7: 81 E2 00 00 FF FF  and         edx,0FFFF0000h
  100052FD: F7 DA              neg         edx
  100052FF: 1B D2              sbb         edx,edx
  10005301: 83 E2 02           and         edx,2
  10005304: 81 C2 04 08 00 00  add         edx,804h
  1000530A: 8B 45 0C           mov         eax,dword ptr [ebp+0Ch]
  1000530D: 8B 7D 10           mov         edi,dword ptr [ebp+10h]
  10005310: 66 C7 44 24 10 04  mov         word ptr [esp+10h],504h
            05
  10005317: 8B 74 24 10        mov         esi,dword ptr [esp+10h]
  1000531B: BB FF 12 00 00     mov         ebx,12FFh
  10005320: 88 44 24 14        mov         byte ptr [esp+14h],al
  10005324: 85 C0              test        eax,eax
  10005326: 74 10              je          10005338
  10005328: 33 C9              xor         ecx,ecx
  1000532A: 83 F8 01           cmp         eax,1
  1000532D: 0F 95 C1           setne       cl
  10005330: 81 C1 01 02 00 00  add         ecx,201h
  10005336: EB 05              jmp         1000533D
  10005338: B9 00 02 00 00     mov         ecx,200h
  1000533D: 83 EC 0C           sub         esp,0Ch
  10005340: 8B C4              mov         eax,esp
  10005342: 89 10              mov         dword ptr [eax],edx
  10005344: 8B 55 14           mov         edx,dword ptr [ebp+14h]
  10005347: 89 50 04           mov         dword ptr [eax+4],edx
  1000534A: 8B 54 24 24        mov         edx,dword ptr [esp+24h]
  1000534E: 89 50 08           mov         dword ptr [eax+8],edx
  10005351: 8B 54 24 24        mov         edx,dword ptr [esp+24h]
  10005355: 83 EC 0C           sub         esp,0Ch
  10005358: 8B C4              mov         eax,esp
  1000535A: 89 18              mov         dword ptr [eax],ebx
  1000535C: 89 70 04           mov         dword ptr [eax+4],esi
  1000535F: 89 78 08           mov         dword ptr [eax+8],edi
  10005362: 83 EC 0C           sub         esp,0Ch
  10005365: 8B C4              mov         eax,esp
  10005367: 89 08              mov         dword ptr [eax],ecx
  10005369: 8B 4C 24 38        mov         ecx,dword ptr [esp+38h]
  1000536D: 89 48 04           mov         dword ptr [eax+4],ecx
  10005370: 8B 4D 08           mov         ecx,dword ptr [ebp+8]
  10005373: 8B 34 8D 28 20 01  mov         esi,dword ptr [ecx*4+10012028h]
            10
  1000537A: 89 50 08           mov         dword ptr [eax+8],edx
  1000537D: 8B 44 24 30        mov         eax,dword ptr [esp+30h]
  10005381: 50                 push        eax
  10005382: E8 A9 EA FF FF     call        10003E30
  10005387: 5F                 pop         edi
  10005388: 5E                 pop         esi
  10005389: 5B                 pop         ebx
  1000538A: 8B E5              mov         esp,ebp
  1000538C: 5D                 pop         ebp
  1000538D: C2 10 00           ret         10h
  10005390: 55                 push        ebp
  10005391: 8B EC              mov         ebp,esp
  10005393: 83 E4 F8           and         esp,0FFFFFFF8h
  10005396: 83 EC 08           sub         esp,8
  10005399: 8B 55 10           mov         edx,dword ptr [ebp+10h]
  1000539C: 8B 45 0C           mov         eax,dword ptr [ebp+0Ch]
  1000539F: 52                 push        edx
  100053A0: 8B 55 08           mov         edx,dword ptr [ebp+8]
  100053A3: 50                 push        eax
  100053A4: 66 C7 44 24 08 04  mov         word ptr [esp+8],504h
            05
  100053AB: 8B 44 24 08        mov         eax,dword ptr [esp+8]
  100053AF: 50                 push        eax
  100053B0: 52                 push        edx
  100053B1: E8 AA FA FF FF     call        10004E60
  100053B6: 8B E5              mov         esp,ebp
  100053B8: 5D                 pop         ebp
  100053B9: C2 0C 00           ret         0Ch
  100053BC: CC                 int         3
  100053BD: CC                 int         3
  100053BE: CC                 int         3
  100053BF: CC                 int         3
  100053C0: 55                 push        ebp
  100053C1: 8B EC              mov         ebp,esp
  100053C3: 83 E4 F8           and         esp,0FFFFFFF8h
  100053C6: 83 EC 08           sub         esp,8
  100053C9: 8B 55 10           mov         edx,dword ptr [ebp+10h]
  100053CC: 8B 45 0C           mov         eax,dword ptr [ebp+0Ch]
  100053CF: 52                 push        edx
  100053D0: 8B 55 08           mov         edx,dword ptr [ebp+8]
  100053D3: 50                 push        eax
  100053D4: 66 C7 44 24 08 04  mov         word ptr [esp+8],504h
            05
  100053DB: 8B 44 24 08        mov         eax,dword ptr [esp+8]
  100053DF: 50                 push        eax
  100053E0: 52                 push        edx
  100053E1: E8 4A EC FF FF     call        10004030
  100053E6: 8B E5              mov         esp,ebp
  100053E8: 5D                 pop         ebp
  100053E9: C2 0C 00           ret         0Ch
  100053EC: CC                 int         3
  100053ED: CC                 int         3
  100053EE: CC                 int         3
  100053EF: CC                 int         3
  100053F0: 55                 push        ebp
  100053F1: 8B EC              mov         ebp,esp
  100053F3: 83 E4 F8           and         esp,0FFFFFFF8h
  100053F6: 83 EC 08           sub         esp,8
  100053F9: 8B 45 10           mov         eax,dword ptr [ebp+10h]
  100053FC: 8B 55 0C           mov         edx,dword ptr [ebp+0Ch]
  100053FF: 50                 push        eax
  10005400: 66 C7 44 24 04 04  mov         word ptr [esp+4],504h
            05
  10005407: 8B 44 24 04        mov         eax,dword ptr [esp+4]
  1000540B: 50                 push        eax
  1000540C: 8B 45 08           mov         eax,dword ptr [ebp+8]
  1000540F: 52                 push        edx
  10005410: 50                 push        eax
  10005411: E8 BA EC FF FF     call        100040D0
  10005416: 8B E5              mov         esp,ebp
  10005418: 5D                 pop         ebp
  10005419: C2 0C 00           ret         0Ch
  1000541C: CC                 int         3
  1000541D: CC                 int         3
  1000541E: CC                 int         3
  1000541F: CC                 int         3
  10005420: 55                 push        ebp
  10005421: 8B EC              mov         ebp,esp
  10005423: 83 E4 F8           and         esp,0FFFFFFF8h
  10005426: 83 EC 0C           sub         esp,0Ch
  10005429: 53                 push        ebx
  1000542A: 8B 1D 78 2A 01 10  mov         ebx,dword ptr ds:[10012A78h]
  10005430: 56                 push        esi
  10005431: 8B 75 0C           mov         esi,dword ptr [ebp+0Ch]
  10005434: 57                 push        edi
  10005435: 83 EC 0C           sub         esp,0Ch
  10005438: 8B C4              mov         eax,esp
  1000543A: 89 18              mov         dword ptr [eax],ebx
  1000543C: 8B 1D 7C 2A 01 10  mov         ebx,dword ptr ds:[10012A7Ch]
  10005442: 89 58 04           mov         dword ptr [eax+4],ebx
  10005445: 8B 1D 80 2A 01 10  mov         ebx,dword ptr ds:[10012A80h]
  1000544B: 89 58 08           mov         dword ptr [eax+8],ebx
  1000544E: 8B 1D 78 2A 01 10  mov         ebx,dword ptr ds:[10012A78h]
  10005454: 83 EC 0C           sub         esp,0Ch
  10005457: 8B C4              mov         eax,esp
  10005459: 89 18              mov         dword ptr [eax],ebx
  1000545B: 8B 1D 7C 2A 01 10  mov         ebx,dword ptr ds:[10012A7Ch]
  10005461: 89 58 04           mov         dword ptr [eax+4],ebx
  10005464: 8B 1D 80 2A 01 10  mov         ebx,dword ptr ds:[10012A80h]
  1000546A: 89 58 08           mov         dword ptr [eax+8],ebx
  1000546D: 83 EC 0C           sub         esp,0Ch
  10005470: 8B C4              mov         eax,esp
  10005472: 66 C7 44 24 34 04  mov         word ptr [esp+34h],504h
            05
  10005479: 8B 54 24 34        mov         edx,dword ptr [esp+34h]
  1000547D: BF FF 12 00 00     mov         edi,12FFh
  10005482: 89 38              mov         dword ptr [eax],edi
  10005484: 89 50 04           mov         dword ptr [eax+4],edx
  10005487: 89 70 08           mov         dword ptr [eax+8],esi
  1000548A: 8B 45 08           mov         eax,dword ptr [ebp+8]
  1000548D: 8B 34 85 28 20 01  mov         esi,dword ptr [eax*4+10012028h]
            10
  10005494: 51                 push        ecx
  10005495: E8 96 E9 FF FF     call        10003E30
  1000549A: 5F                 pop         edi
  1000549B: 5E                 pop         esi
  1000549C: 5B                 pop         ebx
  1000549D: 8B E5              mov         esp,ebp
  1000549F: 5D                 pop         ebp
  100054A0: C2 08 00           ret         8
  100054A3: CC                 int         3
  100054A4: FF 25 B0 60 00 10  jmp         dword ptr ds:[100060B0h]
  100054AA: FF 25 B4 60 00 10  jmp         dword ptr ds:[100060B4h]
  100054B0: B8 4C 00 01 10     mov         eax,1001004Ch
  100054B5: E9 F0 FF FF FF     jmp         100054AA
  100054BA: CC                 int         3
  100054BB: CC                 int         3
  100054BC: CC                 int         3
  100054BD: CC                 int         3
  100054BE: CC                 int         3
  100054BF: CC                 int         3
  100054C0: B8 A4 00 01 10     mov         eax,100100A4h
  100054C5: E9 E0 FF FF FF     jmp         100054AA

  Summary

        1000 .data
        C000 .rdata
        2000 .reloc
        1000 .rsrc
        5000 .text
